
Buzzer.elf:     file format elf32-littlearm

Sections:
Idx Name          Size      VMA       LMA       File off  Algn
  0 .isr_vector   00000188  08000000  08000000  00010000  2**0
                  CONTENTS, ALLOC, LOAD, READONLY, DATA
  1 .text         000064c8  08000190  08000190  00010190  2**4
                  CONTENTS, ALLOC, LOAD, READONLY, CODE
  2 .rodata       00000298  08006658  08006658  00016658  2**3
                  CONTENTS, ALLOC, LOAD, READONLY, DATA
  3 .ARM.extab    00000000  080068f0  080068f0  00020060  2**0
                  CONTENTS
  4 .ARM          00000000  080068f0  080068f0  00020060  2**0
                  CONTENTS
  5 .preinit_array 00000000  080068f0  080068f0  00020060  2**0
                  CONTENTS, ALLOC, LOAD, DATA
  6 .init_array   00000004  080068f0  080068f0  000168f0  2**2
                  CONTENTS, ALLOC, LOAD, DATA
  7 .fini_array   00000004  080068f4  080068f4  000168f4  2**2
                  CONTENTS, ALLOC, LOAD, DATA
  8 .data         00000060  20000000  080068f8  00020000  2**2
                  CONTENTS, ALLOC, LOAD, DATA
  9 .bss          000001b0  20000060  08006958  00020060  2**2
                  ALLOC
 10 ._user_heap_stack 00000600  20000210  08006958  00020210  2**0
                  ALLOC
 11 .ARM.attributes 00000030  00000000  00000000  00020060  2**0
                  CONTENTS, READONLY
 12 .comment      00000043  00000000  00000000  00020090  2**0
                  CONTENTS, READONLY
 13 .debug_info   00009827  00000000  00000000  000200d3  2**0
                  CONTENTS, READONLY, DEBUGGING, OCTETS
 14 .debug_abbrev 00001bf0  00000000  00000000  000298fa  2**0
                  CONTENTS, READONLY, DEBUGGING, OCTETS
 15 .debug_aranges 00000c18  00000000  00000000  0002b4f0  2**3
                  CONTENTS, READONLY, DEBUGGING, OCTETS
 16 .debug_rnglists 0000091c  00000000  00000000  0002c108  2**0
                  CONTENTS, READONLY, DEBUGGING, OCTETS
 17 .debug_macro  00022cc6  00000000  00000000  0002ca24  2**0
                  CONTENTS, READONLY, DEBUGGING, OCTETS
 18 .debug_line   00009875  00000000  00000000  0004f6ea  2**0
                  CONTENTS, READONLY, DEBUGGING, OCTETS
 19 .debug_str    000ba760  00000000  00000000  00058f5f  2**0
                  CONTENTS, READONLY, DEBUGGING, OCTETS
 20 .debug_frame  00003d3c  00000000  00000000  001136c0  2**2
                  CONTENTS, READONLY, DEBUGGING, OCTETS
 21 .debug_line_str 00000068  00000000  00000000  001173fc  2**0
                  CONTENTS, READONLY, DEBUGGING, OCTETS

Disassembly of section .text:

08000190 <__do_global_dtors_aux>:
 8000190:	b510      	push	{r4, lr}
 8000192:	4c05      	ldr	r4, [pc, #20]	; (80001a8 <__do_global_dtors_aux+0x18>)
 8000194:	7823      	ldrb	r3, [r4, #0]
 8000196:	b933      	cbnz	r3, 80001a6 <__do_global_dtors_aux+0x16>
 8000198:	4b04      	ldr	r3, [pc, #16]	; (80001ac <__do_global_dtors_aux+0x1c>)
 800019a:	b113      	cbz	r3, 80001a2 <__do_global_dtors_aux+0x12>
 800019c:	4804      	ldr	r0, [pc, #16]	; (80001b0 <__do_global_dtors_aux+0x20>)
 800019e:	f3af 8000 	nop.w
 80001a2:	2301      	movs	r3, #1
 80001a4:	7023      	strb	r3, [r4, #0]
 80001a6:	bd10      	pop	{r4, pc}
 80001a8:	20000060 	.word	0x20000060
 80001ac:	00000000 	.word	0x00000000
 80001b0:	08006640 	.word	0x08006640

080001b4 <frame_dummy>:
 80001b4:	b508      	push	{r3, lr}
 80001b6:	4b03      	ldr	r3, [pc, #12]	; (80001c4 <frame_dummy+0x10>)
 80001b8:	b11b      	cbz	r3, 80001c2 <frame_dummy+0xe>
 80001ba:	4903      	ldr	r1, [pc, #12]	; (80001c8 <frame_dummy+0x14>)
 80001bc:	4803      	ldr	r0, [pc, #12]	; (80001cc <frame_dummy+0x18>)
 80001be:	f3af 8000 	nop.w
 80001c2:	bd08      	pop	{r3, pc}
 80001c4:	00000000 	.word	0x00000000
 80001c8:	20000064 	.word	0x20000064
 80001cc:	08006640 	.word	0x08006640

080001d0 <memchr>:
 80001d0:	f001 01ff 	and.w	r1, r1, #255	; 0xff
 80001d4:	2a10      	cmp	r2, #16
 80001d6:	db2b      	blt.n	8000230 <memchr+0x60>
 80001d8:	f010 0f07 	tst.w	r0, #7
 80001dc:	d008      	beq.n	80001f0 <memchr+0x20>
 80001de:	f810 3b01 	ldrb.w	r3, [r0], #1
 80001e2:	3a01      	subs	r2, #1
 80001e4:	428b      	cmp	r3, r1
 80001e6:	d02d      	beq.n	8000244 <memchr+0x74>
 80001e8:	f010 0f07 	tst.w	r0, #7
 80001ec:	b342      	cbz	r2, 8000240 <memchr+0x70>
 80001ee:	d1f6      	bne.n	80001de <memchr+0xe>
 80001f0:	b4f0      	push	{r4, r5, r6, r7}
 80001f2:	ea41 2101 	orr.w	r1, r1, r1, lsl #8
 80001f6:	ea41 4101 	orr.w	r1, r1, r1, lsl #16
 80001fa:	f022 0407 	bic.w	r4, r2, #7
 80001fe:	f07f 0700 	mvns.w	r7, #0
 8000202:	2300      	movs	r3, #0
 8000204:	e8f0 5602 	ldrd	r5, r6, [r0], #8
 8000208:	3c08      	subs	r4, #8
 800020a:	ea85 0501 	eor.w	r5, r5, r1
 800020e:	ea86 0601 	eor.w	r6, r6, r1
 8000212:	fa85 f547 	uadd8	r5, r5, r7
 8000216:	faa3 f587 	sel	r5, r3, r7
 800021a:	fa86 f647 	uadd8	r6, r6, r7
 800021e:	faa5 f687 	sel	r6, r5, r7
 8000222:	b98e      	cbnz	r6, 8000248 <memchr+0x78>
 8000224:	d1ee      	bne.n	8000204 <memchr+0x34>
 8000226:	bcf0      	pop	{r4, r5, r6, r7}
 8000228:	f001 01ff 	and.w	r1, r1, #255	; 0xff
 800022c:	f002 0207 	and.w	r2, r2, #7
 8000230:	b132      	cbz	r2, 8000240 <memchr+0x70>
 8000232:	f810 3b01 	ldrb.w	r3, [r0], #1
 8000236:	3a01      	subs	r2, #1
 8000238:	ea83 0301 	eor.w	r3, r3, r1
 800023c:	b113      	cbz	r3, 8000244 <memchr+0x74>
 800023e:	d1f8      	bne.n	8000232 <memchr+0x62>
 8000240:	2000      	movs	r0, #0
 8000242:	4770      	bx	lr
 8000244:	3801      	subs	r0, #1
 8000246:	4770      	bx	lr
 8000248:	2d00      	cmp	r5, #0
 800024a:	bf06      	itte	eq
 800024c:	4635      	moveq	r5, r6
 800024e:	3803      	subeq	r0, #3
 8000250:	3807      	subne	r0, #7
 8000252:	f015 0f01 	tst.w	r5, #1
 8000256:	d107      	bne.n	8000268 <memchr+0x98>
 8000258:	3001      	adds	r0, #1
 800025a:	f415 7f80 	tst.w	r5, #256	; 0x100
 800025e:	bf02      	ittt	eq
 8000260:	3001      	addeq	r0, #1
 8000262:	f415 3fc0 	tsteq.w	r5, #98304	; 0x18000
 8000266:	3001      	addeq	r0, #1
 8000268:	bcf0      	pop	{r4, r5, r6, r7}
 800026a:	3801      	subs	r0, #1
 800026c:	4770      	bx	lr
 800026e:	bf00      	nop

08000270 <__aeabi_drsub>:
 8000270:	f081 4100 	eor.w	r1, r1, #2147483648	; 0x80000000
 8000274:	e002      	b.n	800027c <__adddf3>
 8000276:	bf00      	nop

08000278 <__aeabi_dsub>:
 8000278:	f083 4300 	eor.w	r3, r3, #2147483648	; 0x80000000

0800027c <__adddf3>:
 800027c:	b530      	push	{r4, r5, lr}
 800027e:	ea4f 0441 	mov.w	r4, r1, lsl #1
 8000282:	ea4f 0543 	mov.w	r5, r3, lsl #1
 8000286:	ea94 0f05 	teq	r4, r5
 800028a:	bf08      	it	eq
 800028c:	ea90 0f02 	teqeq	r0, r2
 8000290:	bf1f      	itttt	ne
 8000292:	ea54 0c00 	orrsne.w	ip, r4, r0
 8000296:	ea55 0c02 	orrsne.w	ip, r5, r2
 800029a:	ea7f 5c64 	mvnsne.w	ip, r4, asr #21
 800029e:	ea7f 5c65 	mvnsne.w	ip, r5, asr #21
 80002a2:	f000 80e2 	beq.w	800046a <__adddf3+0x1ee>
 80002a6:	ea4f 5454 	mov.w	r4, r4, lsr #21
 80002aa:	ebd4 5555 	rsbs	r5, r4, r5, lsr #21
 80002ae:	bfb8      	it	lt
 80002b0:	426d      	neglt	r5, r5
 80002b2:	dd0c      	ble.n	80002ce <__adddf3+0x52>
 80002b4:	442c      	add	r4, r5
 80002b6:	ea80 0202 	eor.w	r2, r0, r2
 80002ba:	ea81 0303 	eor.w	r3, r1, r3
 80002be:	ea82 0000 	eor.w	r0, r2, r0
 80002c2:	ea83 0101 	eor.w	r1, r3, r1
 80002c6:	ea80 0202 	eor.w	r2, r0, r2
 80002ca:	ea81 0303 	eor.w	r3, r1, r3
 80002ce:	2d36      	cmp	r5, #54	; 0x36
 80002d0:	bf88      	it	hi
 80002d2:	bd30      	pophi	{r4, r5, pc}
 80002d4:	f011 4f00 	tst.w	r1, #2147483648	; 0x80000000
 80002d8:	ea4f 3101 	mov.w	r1, r1, lsl #12
 80002dc:	f44f 1c80 	mov.w	ip, #1048576	; 0x100000
 80002e0:	ea4c 3111 	orr.w	r1, ip, r1, lsr #12
 80002e4:	d002      	beq.n	80002ec <__adddf3+0x70>
 80002e6:	4240      	negs	r0, r0
 80002e8:	eb61 0141 	sbc.w	r1, r1, r1, lsl #1
 80002ec:	f013 4f00 	tst.w	r3, #2147483648	; 0x80000000
 80002f0:	ea4f 3303 	mov.w	r3, r3, lsl #12
 80002f4:	ea4c 3313 	orr.w	r3, ip, r3, lsr #12
 80002f8:	d002      	beq.n	8000300 <__adddf3+0x84>
 80002fa:	4252      	negs	r2, r2
 80002fc:	eb63 0343 	sbc.w	r3, r3, r3, lsl #1
 8000300:	ea94 0f05 	teq	r4, r5
 8000304:	f000 80a7 	beq.w	8000456 <__adddf3+0x1da>
 8000308:	f1a4 0401 	sub.w	r4, r4, #1
 800030c:	f1d5 0e20 	rsbs	lr, r5, #32
 8000310:	db0d      	blt.n	800032e <__adddf3+0xb2>
 8000312:	fa02 fc0e 	lsl.w	ip, r2, lr
 8000316:	fa22 f205 	lsr.w	r2, r2, r5
 800031a:	1880      	adds	r0, r0, r2
 800031c:	f141 0100 	adc.w	r1, r1, #0
 8000320:	fa03 f20e 	lsl.w	r2, r3, lr
 8000324:	1880      	adds	r0, r0, r2
 8000326:	fa43 f305 	asr.w	r3, r3, r5
 800032a:	4159      	adcs	r1, r3
 800032c:	e00e      	b.n	800034c <__adddf3+0xd0>
 800032e:	f1a5 0520 	sub.w	r5, r5, #32
 8000332:	f10e 0e20 	add.w	lr, lr, #32
 8000336:	2a01      	cmp	r2, #1
 8000338:	fa03 fc0e 	lsl.w	ip, r3, lr
 800033c:	bf28      	it	cs
 800033e:	f04c 0c02 	orrcs.w	ip, ip, #2
 8000342:	fa43 f305 	asr.w	r3, r3, r5
 8000346:	18c0      	adds	r0, r0, r3
 8000348:	eb51 71e3 	adcs.w	r1, r1, r3, asr #31
 800034c:	f001 4500 	and.w	r5, r1, #2147483648	; 0x80000000
 8000350:	d507      	bpl.n	8000362 <__adddf3+0xe6>
 8000352:	f04f 0e00 	mov.w	lr, #0
 8000356:	f1dc 0c00 	rsbs	ip, ip, #0
 800035a:	eb7e 0000 	sbcs.w	r0, lr, r0
 800035e:	eb6e 0101 	sbc.w	r1, lr, r1
 8000362:	f5b1 1f80 	cmp.w	r1, #1048576	; 0x100000
 8000366:	d31b      	bcc.n	80003a0 <__adddf3+0x124>
 8000368:	f5b1 1f00 	cmp.w	r1, #2097152	; 0x200000
 800036c:	d30c      	bcc.n	8000388 <__adddf3+0x10c>
 800036e:	0849      	lsrs	r1, r1, #1
 8000370:	ea5f 0030 	movs.w	r0, r0, rrx
 8000374:	ea4f 0c3c 	mov.w	ip, ip, rrx
 8000378:	f104 0401 	add.w	r4, r4, #1
 800037c:	ea4f 5244 	mov.w	r2, r4, lsl #21
 8000380:	f512 0f80 	cmn.w	r2, #4194304	; 0x400000
 8000384:	f080 809a 	bcs.w	80004bc <__adddf3+0x240>
 8000388:	f1bc 4f00 	cmp.w	ip, #2147483648	; 0x80000000
 800038c:	bf08      	it	eq
 800038e:	ea5f 0c50 	movseq.w	ip, r0, lsr #1
 8000392:	f150 0000 	adcs.w	r0, r0, #0
 8000396:	eb41 5104 	adc.w	r1, r1, r4, lsl #20
 800039a:	ea41 0105 	orr.w	r1, r1, r5
 800039e:	bd30      	pop	{r4, r5, pc}
 80003a0:	ea5f 0c4c 	movs.w	ip, ip, lsl #1
 80003a4:	4140      	adcs	r0, r0
 80003a6:	eb41 0101 	adc.w	r1, r1, r1
 80003aa:	3c01      	subs	r4, #1
 80003ac:	bf28      	it	cs
 80003ae:	f5b1 1f80 	cmpcs.w	r1, #1048576	; 0x100000
 80003b2:	d2e9      	bcs.n	8000388 <__adddf3+0x10c>
 80003b4:	f091 0f00 	teq	r1, #0
 80003b8:	bf04      	itt	eq
 80003ba:	4601      	moveq	r1, r0
 80003bc:	2000      	moveq	r0, #0
 80003be:	fab1 f381 	clz	r3, r1
 80003c2:	bf08      	it	eq
 80003c4:	3320      	addeq	r3, #32
 80003c6:	f1a3 030b 	sub.w	r3, r3, #11
 80003ca:	f1b3 0220 	subs.w	r2, r3, #32
 80003ce:	da0c      	bge.n	80003ea <__adddf3+0x16e>
 80003d0:	320c      	adds	r2, #12
 80003d2:	dd08      	ble.n	80003e6 <__adddf3+0x16a>
 80003d4:	f102 0c14 	add.w	ip, r2, #20
 80003d8:	f1c2 020c 	rsb	r2, r2, #12
 80003dc:	fa01 f00c 	lsl.w	r0, r1, ip
 80003e0:	fa21 f102 	lsr.w	r1, r1, r2
 80003e4:	e00c      	b.n	8000400 <__adddf3+0x184>
 80003e6:	f102 0214 	add.w	r2, r2, #20
 80003ea:	bfd8      	it	le
 80003ec:	f1c2 0c20 	rsble	ip, r2, #32
 80003f0:	fa01 f102 	lsl.w	r1, r1, r2
 80003f4:	fa20 fc0c 	lsr.w	ip, r0, ip
 80003f8:	bfdc      	itt	le
 80003fa:	ea41 010c 	orrle.w	r1, r1, ip
 80003fe:	4090      	lslle	r0, r2
 8000400:	1ae4      	subs	r4, r4, r3
 8000402:	bfa2      	ittt	ge
 8000404:	eb01 5104 	addge.w	r1, r1, r4, lsl #20
 8000408:	4329      	orrge	r1, r5
 800040a:	bd30      	popge	{r4, r5, pc}
 800040c:	ea6f 0404 	mvn.w	r4, r4
 8000410:	3c1f      	subs	r4, #31
 8000412:	da1c      	bge.n	800044e <__adddf3+0x1d2>
 8000414:	340c      	adds	r4, #12
 8000416:	dc0e      	bgt.n	8000436 <__adddf3+0x1ba>
 8000418:	f104 0414 	add.w	r4, r4, #20
 800041c:	f1c4 0220 	rsb	r2, r4, #32
 8000420:	fa20 f004 	lsr.w	r0, r0, r4
 8000424:	fa01 f302 	lsl.w	r3, r1, r2
 8000428:	ea40 0003 	orr.w	r0, r0, r3
 800042c:	fa21 f304 	lsr.w	r3, r1, r4
 8000430:	ea45 0103 	orr.w	r1, r5, r3
 8000434:	bd30      	pop	{r4, r5, pc}
 8000436:	f1c4 040c 	rsb	r4, r4, #12
 800043a:	f1c4 0220 	rsb	r2, r4, #32
 800043e:	fa20 f002 	lsr.w	r0, r0, r2
 8000442:	fa01 f304 	lsl.w	r3, r1, r4
 8000446:	ea40 0003 	orr.w	r0, r0, r3
 800044a:	4629      	mov	r1, r5
 800044c:	bd30      	pop	{r4, r5, pc}
 800044e:	fa21 f004 	lsr.w	r0, r1, r4
 8000452:	4629      	mov	r1, r5
 8000454:	bd30      	pop	{r4, r5, pc}
 8000456:	f094 0f00 	teq	r4, #0
 800045a:	f483 1380 	eor.w	r3, r3, #1048576	; 0x100000
 800045e:	bf06      	itte	eq
 8000460:	f481 1180 	eoreq.w	r1, r1, #1048576	; 0x100000
 8000464:	3401      	addeq	r4, #1
 8000466:	3d01      	subne	r5, #1
 8000468:	e74e      	b.n	8000308 <__adddf3+0x8c>
 800046a:	ea7f 5c64 	mvns.w	ip, r4, asr #21
 800046e:	bf18      	it	ne
 8000470:	ea7f 5c65 	mvnsne.w	ip, r5, asr #21
 8000474:	d029      	beq.n	80004ca <__adddf3+0x24e>
 8000476:	ea94 0f05 	teq	r4, r5
 800047a:	bf08      	it	eq
 800047c:	ea90 0f02 	teqeq	r0, r2
 8000480:	d005      	beq.n	800048e <__adddf3+0x212>
 8000482:	ea54 0c00 	orrs.w	ip, r4, r0
 8000486:	bf04      	itt	eq
 8000488:	4619      	moveq	r1, r3
 800048a:	4610      	moveq	r0, r2
 800048c:	bd30      	pop	{r4, r5, pc}
 800048e:	ea91 0f03 	teq	r1, r3
 8000492:	bf1e      	ittt	ne
 8000494:	2100      	movne	r1, #0
 8000496:	2000      	movne	r0, #0
 8000498:	bd30      	popne	{r4, r5, pc}
 800049a:	ea5f 5c54 	movs.w	ip, r4, lsr #21
 800049e:	d105      	bne.n	80004ac <__adddf3+0x230>
 80004a0:	0040      	lsls	r0, r0, #1
 80004a2:	4149      	adcs	r1, r1
 80004a4:	bf28      	it	cs
 80004a6:	f041 4100 	orrcs.w	r1, r1, #2147483648	; 0x80000000
 80004aa:	bd30      	pop	{r4, r5, pc}
 80004ac:	f514 0480 	adds.w	r4, r4, #4194304	; 0x400000
 80004b0:	bf3c      	itt	cc
 80004b2:	f501 1180 	addcc.w	r1, r1, #1048576	; 0x100000
 80004b6:	bd30      	popcc	{r4, r5, pc}
 80004b8:	f001 4500 	and.w	r5, r1, #2147483648	; 0x80000000
 80004bc:	f045 41fe 	orr.w	r1, r5, #2130706432	; 0x7f000000
 80004c0:	f441 0170 	orr.w	r1, r1, #15728640	; 0xf00000
 80004c4:	f04f 0000 	mov.w	r0, #0
 80004c8:	bd30      	pop	{r4, r5, pc}
 80004ca:	ea7f 5c64 	mvns.w	ip, r4, asr #21
 80004ce:	bf1a      	itte	ne
 80004d0:	4619      	movne	r1, r3
 80004d2:	4610      	movne	r0, r2
 80004d4:	ea7f 5c65 	mvnseq.w	ip, r5, asr #21
 80004d8:	bf1c      	itt	ne
 80004da:	460b      	movne	r3, r1
 80004dc:	4602      	movne	r2, r0
 80004de:	ea50 3401 	orrs.w	r4, r0, r1, lsl #12
 80004e2:	bf06      	itte	eq
 80004e4:	ea52 3503 	orrseq.w	r5, r2, r3, lsl #12
 80004e8:	ea91 0f03 	teqeq	r1, r3
 80004ec:	f441 2100 	orrne.w	r1, r1, #524288	; 0x80000
 80004f0:	bd30      	pop	{r4, r5, pc}
 80004f2:	bf00      	nop

080004f4 <__aeabi_ui2d>:
 80004f4:	f090 0f00 	teq	r0, #0
 80004f8:	bf04      	itt	eq
 80004fa:	2100      	moveq	r1, #0
 80004fc:	4770      	bxeq	lr
 80004fe:	b530      	push	{r4, r5, lr}
 8000500:	f44f 6480 	mov.w	r4, #1024	; 0x400
 8000504:	f104 0432 	add.w	r4, r4, #50	; 0x32
 8000508:	f04f 0500 	mov.w	r5, #0
 800050c:	f04f 0100 	mov.w	r1, #0
 8000510:	e750      	b.n	80003b4 <__adddf3+0x138>
 8000512:	bf00      	nop

08000514 <__aeabi_i2d>:
 8000514:	f090 0f00 	teq	r0, #0
 8000518:	bf04      	itt	eq
 800051a:	2100      	moveq	r1, #0
 800051c:	4770      	bxeq	lr
 800051e:	b530      	push	{r4, r5, lr}
 8000520:	f44f 6480 	mov.w	r4, #1024	; 0x400
 8000524:	f104 0432 	add.w	r4, r4, #50	; 0x32
 8000528:	f010 4500 	ands.w	r5, r0, #2147483648	; 0x80000000
 800052c:	bf48      	it	mi
 800052e:	4240      	negmi	r0, r0
 8000530:	f04f 0100 	mov.w	r1, #0
 8000534:	e73e      	b.n	80003b4 <__adddf3+0x138>
 8000536:	bf00      	nop

08000538 <__aeabi_f2d>:
 8000538:	0042      	lsls	r2, r0, #1
 800053a:	ea4f 01e2 	mov.w	r1, r2, asr #3
 800053e:	ea4f 0131 	mov.w	r1, r1, rrx
 8000542:	ea4f 7002 	mov.w	r0, r2, lsl #28
 8000546:	bf1f      	itttt	ne
 8000548:	f012 437f 	andsne.w	r3, r2, #4278190080	; 0xff000000
 800054c:	f093 4f7f 	teqne	r3, #4278190080	; 0xff000000
 8000550:	f081 5160 	eorne.w	r1, r1, #939524096	; 0x38000000
 8000554:	4770      	bxne	lr
 8000556:	f032 427f 	bics.w	r2, r2, #4278190080	; 0xff000000
 800055a:	bf08      	it	eq
 800055c:	4770      	bxeq	lr
 800055e:	f093 4f7f 	teq	r3, #4278190080	; 0xff000000
 8000562:	bf04      	itt	eq
 8000564:	f441 2100 	orreq.w	r1, r1, #524288	; 0x80000
 8000568:	4770      	bxeq	lr
 800056a:	b530      	push	{r4, r5, lr}
 800056c:	f44f 7460 	mov.w	r4, #896	; 0x380
 8000570:	f001 4500 	and.w	r5, r1, #2147483648	; 0x80000000
 8000574:	f021 4100 	bic.w	r1, r1, #2147483648	; 0x80000000
 8000578:	e71c      	b.n	80003b4 <__adddf3+0x138>
 800057a:	bf00      	nop

0800057c <__aeabi_ul2d>:
 800057c:	ea50 0201 	orrs.w	r2, r0, r1
 8000580:	bf08      	it	eq
 8000582:	4770      	bxeq	lr
 8000584:	b530      	push	{r4, r5, lr}
 8000586:	f04f 0500 	mov.w	r5, #0
 800058a:	e00a      	b.n	80005a2 <__aeabi_l2d+0x16>

0800058c <__aeabi_l2d>:
 800058c:	ea50 0201 	orrs.w	r2, r0, r1
 8000590:	bf08      	it	eq
 8000592:	4770      	bxeq	lr
 8000594:	b530      	push	{r4, r5, lr}
 8000596:	f011 4500 	ands.w	r5, r1, #2147483648	; 0x80000000
 800059a:	d502      	bpl.n	80005a2 <__aeabi_l2d+0x16>
 800059c:	4240      	negs	r0, r0
 800059e:	eb61 0141 	sbc.w	r1, r1, r1, lsl #1
 80005a2:	f44f 6480 	mov.w	r4, #1024	; 0x400
 80005a6:	f104 0432 	add.w	r4, r4, #50	; 0x32
 80005aa:	ea5f 5c91 	movs.w	ip, r1, lsr #22
 80005ae:	f43f aed8 	beq.w	8000362 <__adddf3+0xe6>
 80005b2:	f04f 0203 	mov.w	r2, #3
 80005b6:	ea5f 0cdc 	movs.w	ip, ip, lsr #3
 80005ba:	bf18      	it	ne
 80005bc:	3203      	addne	r2, #3
 80005be:	ea5f 0cdc 	movs.w	ip, ip, lsr #3
 80005c2:	bf18      	it	ne
 80005c4:	3203      	addne	r2, #3
 80005c6:	eb02 02dc 	add.w	r2, r2, ip, lsr #3
 80005ca:	f1c2 0320 	rsb	r3, r2, #32
 80005ce:	fa00 fc03 	lsl.w	ip, r0, r3
 80005d2:	fa20 f002 	lsr.w	r0, r0, r2
 80005d6:	fa01 fe03 	lsl.w	lr, r1, r3
 80005da:	ea40 000e 	orr.w	r0, r0, lr
 80005de:	fa21 f102 	lsr.w	r1, r1, r2
 80005e2:	4414      	add	r4, r2
 80005e4:	e6bd      	b.n	8000362 <__adddf3+0xe6>
 80005e6:	bf00      	nop

080005e8 <__aeabi_dmul>:
 80005e8:	b570      	push	{r4, r5, r6, lr}
 80005ea:	f04f 0cff 	mov.w	ip, #255	; 0xff
 80005ee:	f44c 6ce0 	orr.w	ip, ip, #1792	; 0x700
 80005f2:	ea1c 5411 	ands.w	r4, ip, r1, lsr #20
 80005f6:	bf1d      	ittte	ne
 80005f8:	ea1c 5513 	andsne.w	r5, ip, r3, lsr #20
 80005fc:	ea94 0f0c 	teqne	r4, ip
 8000600:	ea95 0f0c 	teqne	r5, ip
 8000604:	f000 f8de 	bleq	80007c4 <__aeabi_dmul+0x1dc>
 8000608:	442c      	add	r4, r5
 800060a:	ea81 0603 	eor.w	r6, r1, r3
 800060e:	ea21 514c 	bic.w	r1, r1, ip, lsl #21
 8000612:	ea23 534c 	bic.w	r3, r3, ip, lsl #21
 8000616:	ea50 3501 	orrs.w	r5, r0, r1, lsl #12
 800061a:	bf18      	it	ne
 800061c:	ea52 3503 	orrsne.w	r5, r2, r3, lsl #12
 8000620:	f441 1180 	orr.w	r1, r1, #1048576	; 0x100000
 8000624:	f443 1380 	orr.w	r3, r3, #1048576	; 0x100000
 8000628:	d038      	beq.n	800069c <__aeabi_dmul+0xb4>
 800062a:	fba0 ce02 	umull	ip, lr, r0, r2
 800062e:	f04f 0500 	mov.w	r5, #0
 8000632:	fbe1 e502 	umlal	lr, r5, r1, r2
 8000636:	f006 4200 	and.w	r2, r6, #2147483648	; 0x80000000
 800063a:	fbe0 e503 	umlal	lr, r5, r0, r3
 800063e:	f04f 0600 	mov.w	r6, #0
 8000642:	fbe1 5603 	umlal	r5, r6, r1, r3
 8000646:	f09c 0f00 	teq	ip, #0
 800064a:	bf18      	it	ne
 800064c:	f04e 0e01 	orrne.w	lr, lr, #1
 8000650:	f1a4 04ff 	sub.w	r4, r4, #255	; 0xff
 8000654:	f5b6 7f00 	cmp.w	r6, #512	; 0x200
 8000658:	f564 7440 	sbc.w	r4, r4, #768	; 0x300
 800065c:	d204      	bcs.n	8000668 <__aeabi_dmul+0x80>
 800065e:	ea5f 0e4e 	movs.w	lr, lr, lsl #1
 8000662:	416d      	adcs	r5, r5
 8000664:	eb46 0606 	adc.w	r6, r6, r6
 8000668:	ea42 21c6 	orr.w	r1, r2, r6, lsl #11
 800066c:	ea41 5155 	orr.w	r1, r1, r5, lsr #21
 8000670:	ea4f 20c5 	mov.w	r0, r5, lsl #11
 8000674:	ea40 505e 	orr.w	r0, r0, lr, lsr #21
 8000678:	ea4f 2ece 	mov.w	lr, lr, lsl #11
 800067c:	f1b4 0cfd 	subs.w	ip, r4, #253	; 0xfd
 8000680:	bf88      	it	hi
 8000682:	f5bc 6fe0 	cmphi.w	ip, #1792	; 0x700
 8000686:	d81e      	bhi.n	80006c6 <__aeabi_dmul+0xde>
 8000688:	f1be 4f00 	cmp.w	lr, #2147483648	; 0x80000000
 800068c:	bf08      	it	eq
 800068e:	ea5f 0e50 	movseq.w	lr, r0, lsr #1
 8000692:	f150 0000 	adcs.w	r0, r0, #0
 8000696:	eb41 5104 	adc.w	r1, r1, r4, lsl #20
 800069a:	bd70      	pop	{r4, r5, r6, pc}
 800069c:	f006 4600 	and.w	r6, r6, #2147483648	; 0x80000000
 80006a0:	ea46 0101 	orr.w	r1, r6, r1
 80006a4:	ea40 0002 	orr.w	r0, r0, r2
 80006a8:	ea81 0103 	eor.w	r1, r1, r3
 80006ac:	ebb4 045c 	subs.w	r4, r4, ip, lsr #1
 80006b0:	bfc2      	ittt	gt
 80006b2:	ebd4 050c 	rsbsgt	r5, r4, ip
 80006b6:	ea41 5104 	orrgt.w	r1, r1, r4, lsl #20
 80006ba:	bd70      	popgt	{r4, r5, r6, pc}
 80006bc:	f441 1180 	orr.w	r1, r1, #1048576	; 0x100000
 80006c0:	f04f 0e00 	mov.w	lr, #0
 80006c4:	3c01      	subs	r4, #1
 80006c6:	f300 80ab 	bgt.w	8000820 <__aeabi_dmul+0x238>
 80006ca:	f114 0f36 	cmn.w	r4, #54	; 0x36
 80006ce:	bfde      	ittt	le
 80006d0:	2000      	movle	r0, #0
 80006d2:	f001 4100 	andle.w	r1, r1, #2147483648	; 0x80000000
 80006d6:	bd70      	pople	{r4, r5, r6, pc}
 80006d8:	f1c4 0400 	rsb	r4, r4, #0
 80006dc:	3c20      	subs	r4, #32
 80006de:	da35      	bge.n	800074c <__aeabi_dmul+0x164>
 80006e0:	340c      	adds	r4, #12
 80006e2:	dc1b      	bgt.n	800071c <__aeabi_dmul+0x134>
 80006e4:	f104 0414 	add.w	r4, r4, #20
 80006e8:	f1c4 0520 	rsb	r5, r4, #32
 80006ec:	fa00 f305 	lsl.w	r3, r0, r5
 80006f0:	fa20 f004 	lsr.w	r0, r0, r4
 80006f4:	fa01 f205 	lsl.w	r2, r1, r5
 80006f8:	ea40 0002 	orr.w	r0, r0, r2
 80006fc:	f001 4200 	and.w	r2, r1, #2147483648	; 0x80000000
 8000700:	f021 4100 	bic.w	r1, r1, #2147483648	; 0x80000000
 8000704:	eb10 70d3 	adds.w	r0, r0, r3, lsr #31
 8000708:	fa21 f604 	lsr.w	r6, r1, r4
 800070c:	eb42 0106 	adc.w	r1, r2, r6
 8000710:	ea5e 0e43 	orrs.w	lr, lr, r3, lsl #1
 8000714:	bf08      	it	eq
 8000716:	ea20 70d3 	biceq.w	r0, r0, r3, lsr #31
 800071a:	bd70      	pop	{r4, r5, r6, pc}
 800071c:	f1c4 040c 	rsb	r4, r4, #12
 8000720:	f1c4 0520 	rsb	r5, r4, #32
 8000724:	fa00 f304 	lsl.w	r3, r0, r4
 8000728:	fa20 f005 	lsr.w	r0, r0, r5
 800072c:	fa01 f204 	lsl.w	r2, r1, r4
 8000730:	ea40 0002 	orr.w	r0, r0, r2
 8000734:	f001 4100 	and.w	r1, r1, #2147483648	; 0x80000000
 8000738:	eb10 70d3 	adds.w	r0, r0, r3, lsr #31
 800073c:	f141 0100 	adc.w	r1, r1, #0
 8000740:	ea5e 0e43 	orrs.w	lr, lr, r3, lsl #1
 8000744:	bf08      	it	eq
 8000746:	ea20 70d3 	biceq.w	r0, r0, r3, lsr #31
 800074a:	bd70      	pop	{r4, r5, r6, pc}
 800074c:	f1c4 0520 	rsb	r5, r4, #32
 8000750:	fa00 f205 	lsl.w	r2, r0, r5
 8000754:	ea4e 0e02 	orr.w	lr, lr, r2
 8000758:	fa20 f304 	lsr.w	r3, r0, r4
 800075c:	fa01 f205 	lsl.w	r2, r1, r5
 8000760:	ea43 0302 	orr.w	r3, r3, r2
 8000764:	fa21 f004 	lsr.w	r0, r1, r4
 8000768:	f001 4100 	and.w	r1, r1, #2147483648	; 0x80000000
 800076c:	fa21 f204 	lsr.w	r2, r1, r4
 8000770:	ea20 0002 	bic.w	r0, r0, r2
 8000774:	eb00 70d3 	add.w	r0, r0, r3, lsr #31
 8000778:	ea5e 0e43 	orrs.w	lr, lr, r3, lsl #1
 800077c:	bf08      	it	eq
 800077e:	ea20 70d3 	biceq.w	r0, r0, r3, lsr #31
 8000782:	bd70      	pop	{r4, r5, r6, pc}
 8000784:	f094 0f00 	teq	r4, #0
 8000788:	d10f      	bne.n	80007aa <__aeabi_dmul+0x1c2>
 800078a:	f001 4600 	and.w	r6, r1, #2147483648	; 0x80000000
 800078e:	0040      	lsls	r0, r0, #1
 8000790:	eb41 0101 	adc.w	r1, r1, r1
 8000794:	f411 1f80 	tst.w	r1, #1048576	; 0x100000
 8000798:	bf08      	it	eq
 800079a:	3c01      	subeq	r4, #1
 800079c:	d0f7      	beq.n	800078e <__aeabi_dmul+0x1a6>
 800079e:	ea41 0106 	orr.w	r1, r1, r6
 80007a2:	f095 0f00 	teq	r5, #0
 80007a6:	bf18      	it	ne
 80007a8:	4770      	bxne	lr
 80007aa:	f003 4600 	and.w	r6, r3, #2147483648	; 0x80000000
 80007ae:	0052      	lsls	r2, r2, #1
 80007b0:	eb43 0303 	adc.w	r3, r3, r3
 80007b4:	f413 1f80 	tst.w	r3, #1048576	; 0x100000
 80007b8:	bf08      	it	eq
 80007ba:	3d01      	subeq	r5, #1
 80007bc:	d0f7      	beq.n	80007ae <__aeabi_dmul+0x1c6>
 80007be:	ea43 0306 	orr.w	r3, r3, r6
 80007c2:	4770      	bx	lr
 80007c4:	ea94 0f0c 	teq	r4, ip
 80007c8:	ea0c 5513 	and.w	r5, ip, r3, lsr #20
 80007cc:	bf18      	it	ne
 80007ce:	ea95 0f0c 	teqne	r5, ip
 80007d2:	d00c      	beq.n	80007ee <__aeabi_dmul+0x206>
 80007d4:	ea50 0641 	orrs.w	r6, r0, r1, lsl #1
 80007d8:	bf18      	it	ne
 80007da:	ea52 0643 	orrsne.w	r6, r2, r3, lsl #1
 80007de:	d1d1      	bne.n	8000784 <__aeabi_dmul+0x19c>
 80007e0:	ea81 0103 	eor.w	r1, r1, r3
 80007e4:	f001 4100 	and.w	r1, r1, #2147483648	; 0x80000000
 80007e8:	f04f 0000 	mov.w	r0, #0
 80007ec:	bd70      	pop	{r4, r5, r6, pc}
 80007ee:	ea50 0641 	orrs.w	r6, r0, r1, lsl #1
 80007f2:	bf06      	itte	eq
 80007f4:	4610      	moveq	r0, r2
 80007f6:	4619      	moveq	r1, r3
 80007f8:	ea52 0643 	orrsne.w	r6, r2, r3, lsl #1
 80007fc:	d019      	beq.n	8000832 <__aeabi_dmul+0x24a>
 80007fe:	ea94 0f0c 	teq	r4, ip
 8000802:	d102      	bne.n	800080a <__aeabi_dmul+0x222>
 8000804:	ea50 3601 	orrs.w	r6, r0, r1, lsl #12
 8000808:	d113      	bne.n	8000832 <__aeabi_dmul+0x24a>
 800080a:	ea95 0f0c 	teq	r5, ip
 800080e:	d105      	bne.n	800081c <__aeabi_dmul+0x234>
 8000810:	ea52 3603 	orrs.w	r6, r2, r3, lsl #12
 8000814:	bf1c      	itt	ne
 8000816:	4610      	movne	r0, r2
 8000818:	4619      	movne	r1, r3
 800081a:	d10a      	bne.n	8000832 <__aeabi_dmul+0x24a>
 800081c:	ea81 0103 	eor.w	r1, r1, r3
 8000820:	f001 4100 	and.w	r1, r1, #2147483648	; 0x80000000
 8000824:	f041 41fe 	orr.w	r1, r1, #2130706432	; 0x7f000000
 8000828:	f441 0170 	orr.w	r1, r1, #15728640	; 0xf00000
 800082c:	f04f 0000 	mov.w	r0, #0
 8000830:	bd70      	pop	{r4, r5, r6, pc}
 8000832:	f041 41fe 	orr.w	r1, r1, #2130706432	; 0x7f000000
 8000836:	f441 0178 	orr.w	r1, r1, #16252928	; 0xf80000
 800083a:	bd70      	pop	{r4, r5, r6, pc}

0800083c <__aeabi_ddiv>:
 800083c:	b570      	push	{r4, r5, r6, lr}
 800083e:	f04f 0cff 	mov.w	ip, #255	; 0xff
 8000842:	f44c 6ce0 	orr.w	ip, ip, #1792	; 0x700
 8000846:	ea1c 5411 	ands.w	r4, ip, r1, lsr #20
 800084a:	bf1d      	ittte	ne
 800084c:	ea1c 5513 	andsne.w	r5, ip, r3, lsr #20
 8000850:	ea94 0f0c 	teqne	r4, ip
 8000854:	ea95 0f0c 	teqne	r5, ip
 8000858:	f000 f8a7 	bleq	80009aa <__aeabi_ddiv+0x16e>
 800085c:	eba4 0405 	sub.w	r4, r4, r5
 8000860:	ea81 0e03 	eor.w	lr, r1, r3
 8000864:	ea52 3503 	orrs.w	r5, r2, r3, lsl #12
 8000868:	ea4f 3101 	mov.w	r1, r1, lsl #12
 800086c:	f000 8088 	beq.w	8000980 <__aeabi_ddiv+0x144>
 8000870:	ea4f 3303 	mov.w	r3, r3, lsl #12
 8000874:	f04f 5580 	mov.w	r5, #268435456	; 0x10000000
 8000878:	ea45 1313 	orr.w	r3, r5, r3, lsr #4
 800087c:	ea43 6312 	orr.w	r3, r3, r2, lsr #24
 8000880:	ea4f 2202 	mov.w	r2, r2, lsl #8
 8000884:	ea45 1511 	orr.w	r5, r5, r1, lsr #4
 8000888:	ea45 6510 	orr.w	r5, r5, r0, lsr #24
 800088c:	ea4f 2600 	mov.w	r6, r0, lsl #8
 8000890:	f00e 4100 	and.w	r1, lr, #2147483648	; 0x80000000
 8000894:	429d      	cmp	r5, r3
 8000896:	bf08      	it	eq
 8000898:	4296      	cmpeq	r6, r2
 800089a:	f144 04fd 	adc.w	r4, r4, #253	; 0xfd
 800089e:	f504 7440 	add.w	r4, r4, #768	; 0x300
 80008a2:	d202      	bcs.n	80008aa <__aeabi_ddiv+0x6e>
 80008a4:	085b      	lsrs	r3, r3, #1
 80008a6:	ea4f 0232 	mov.w	r2, r2, rrx
 80008aa:	1ab6      	subs	r6, r6, r2
 80008ac:	eb65 0503 	sbc.w	r5, r5, r3
 80008b0:	085b      	lsrs	r3, r3, #1
 80008b2:	ea4f 0232 	mov.w	r2, r2, rrx
 80008b6:	f44f 1080 	mov.w	r0, #1048576	; 0x100000
 80008ba:	f44f 2c00 	mov.w	ip, #524288	; 0x80000
 80008be:	ebb6 0e02 	subs.w	lr, r6, r2
 80008c2:	eb75 0e03 	sbcs.w	lr, r5, r3
 80008c6:	bf22      	ittt	cs
 80008c8:	1ab6      	subcs	r6, r6, r2
 80008ca:	4675      	movcs	r5, lr
 80008cc:	ea40 000c 	orrcs.w	r0, r0, ip
 80008d0:	085b      	lsrs	r3, r3, #1
 80008d2:	ea4f 0232 	mov.w	r2, r2, rrx
 80008d6:	ebb6 0e02 	subs.w	lr, r6, r2
 80008da:	eb75 0e03 	sbcs.w	lr, r5, r3
 80008de:	bf22      	ittt	cs
 80008e0:	1ab6      	subcs	r6, r6, r2
 80008e2:	4675      	movcs	r5, lr
 80008e4:	ea40 005c 	orrcs.w	r0, r0, ip, lsr #1
 80008e8:	085b      	lsrs	r3, r3, #1
 80008ea:	ea4f 0232 	mov.w	r2, r2, rrx
 80008ee:	ebb6 0e02 	subs.w	lr, r6, r2
 80008f2:	eb75 0e03 	sbcs.w	lr, r5, r3
 80008f6:	bf22      	ittt	cs
 80008f8:	1ab6      	subcs	r6, r6, r2
 80008fa:	4675      	movcs	r5, lr
 80008fc:	ea40 009c 	orrcs.w	r0, r0, ip, lsr #2
 8000900:	085b      	lsrs	r3, r3, #1
 8000902:	ea4f 0232 	mov.w	r2, r2, rrx
 8000906:	ebb6 0e02 	subs.w	lr, r6, r2
 800090a:	eb75 0e03 	sbcs.w	lr, r5, r3
 800090e:	bf22      	ittt	cs
 8000910:	1ab6      	subcs	r6, r6, r2
 8000912:	4675      	movcs	r5, lr
 8000914:	ea40 00dc 	orrcs.w	r0, r0, ip, lsr #3
 8000918:	ea55 0e06 	orrs.w	lr, r5, r6
 800091c:	d018      	beq.n	8000950 <__aeabi_ddiv+0x114>
 800091e:	ea4f 1505 	mov.w	r5, r5, lsl #4
 8000922:	ea45 7516 	orr.w	r5, r5, r6, lsr #28
 8000926:	ea4f 1606 	mov.w	r6, r6, lsl #4
 800092a:	ea4f 03c3 	mov.w	r3, r3, lsl #3
 800092e:	ea43 7352 	orr.w	r3, r3, r2, lsr #29
 8000932:	ea4f 02c2 	mov.w	r2, r2, lsl #3
 8000936:	ea5f 1c1c 	movs.w	ip, ip, lsr #4
 800093a:	d1c0      	bne.n	80008be <__aeabi_ddiv+0x82>
 800093c:	f411 1f80 	tst.w	r1, #1048576	; 0x100000
 8000940:	d10b      	bne.n	800095a <__aeabi_ddiv+0x11e>
 8000942:	ea41 0100 	orr.w	r1, r1, r0
 8000946:	f04f 0000 	mov.w	r0, #0
 800094a:	f04f 4c00 	mov.w	ip, #2147483648	; 0x80000000
 800094e:	e7b6      	b.n	80008be <__aeabi_ddiv+0x82>
 8000950:	f411 1f80 	tst.w	r1, #1048576	; 0x100000
 8000954:	bf04      	itt	eq
 8000956:	4301      	orreq	r1, r0
 8000958:	2000      	moveq	r0, #0
 800095a:	f1b4 0cfd 	subs.w	ip, r4, #253	; 0xfd
 800095e:	bf88      	it	hi
 8000960:	f5bc 6fe0 	cmphi.w	ip, #1792	; 0x700
 8000964:	f63f aeaf 	bhi.w	80006c6 <__aeabi_dmul+0xde>
 8000968:	ebb5 0c03 	subs.w	ip, r5, r3
 800096c:	bf04      	itt	eq
 800096e:	ebb6 0c02 	subseq.w	ip, r6, r2
 8000972:	ea5f 0c50 	movseq.w	ip, r0, lsr #1
 8000976:	f150 0000 	adcs.w	r0, r0, #0
 800097a:	eb41 5104 	adc.w	r1, r1, r4, lsl #20
 800097e:	bd70      	pop	{r4, r5, r6, pc}
 8000980:	f00e 4e00 	and.w	lr, lr, #2147483648	; 0x80000000
 8000984:	ea4e 3111 	orr.w	r1, lr, r1, lsr #12
 8000988:	eb14 045c 	adds.w	r4, r4, ip, lsr #1
 800098c:	bfc2      	ittt	gt
 800098e:	ebd4 050c 	rsbsgt	r5, r4, ip
 8000992:	ea41 5104 	orrgt.w	r1, r1, r4, lsl #20
 8000996:	bd70      	popgt	{r4, r5, r6, pc}
 8000998:	f441 1180 	orr.w	r1, r1, #1048576	; 0x100000
 800099c:	f04f 0e00 	mov.w	lr, #0
 80009a0:	3c01      	subs	r4, #1
 80009a2:	e690      	b.n	80006c6 <__aeabi_dmul+0xde>
 80009a4:	ea45 0e06 	orr.w	lr, r5, r6
 80009a8:	e68d      	b.n	80006c6 <__aeabi_dmul+0xde>
 80009aa:	ea0c 5513 	and.w	r5, ip, r3, lsr #20
 80009ae:	ea94 0f0c 	teq	r4, ip
 80009b2:	bf08      	it	eq
 80009b4:	ea95 0f0c 	teqeq	r5, ip
 80009b8:	f43f af3b 	beq.w	8000832 <__aeabi_dmul+0x24a>
 80009bc:	ea94 0f0c 	teq	r4, ip
 80009c0:	d10a      	bne.n	80009d8 <__aeabi_ddiv+0x19c>
 80009c2:	ea50 3401 	orrs.w	r4, r0, r1, lsl #12
 80009c6:	f47f af34 	bne.w	8000832 <__aeabi_dmul+0x24a>
 80009ca:	ea95 0f0c 	teq	r5, ip
 80009ce:	f47f af25 	bne.w	800081c <__aeabi_dmul+0x234>
 80009d2:	4610      	mov	r0, r2
 80009d4:	4619      	mov	r1, r3
 80009d6:	e72c      	b.n	8000832 <__aeabi_dmul+0x24a>
 80009d8:	ea95 0f0c 	teq	r5, ip
 80009dc:	d106      	bne.n	80009ec <__aeabi_ddiv+0x1b0>
 80009de:	ea52 3503 	orrs.w	r5, r2, r3, lsl #12
 80009e2:	f43f aefd 	beq.w	80007e0 <__aeabi_dmul+0x1f8>
 80009e6:	4610      	mov	r0, r2
 80009e8:	4619      	mov	r1, r3
 80009ea:	e722      	b.n	8000832 <__aeabi_dmul+0x24a>
 80009ec:	ea50 0641 	orrs.w	r6, r0, r1, lsl #1
 80009f0:	bf18      	it	ne
 80009f2:	ea52 0643 	orrsne.w	r6, r2, r3, lsl #1
 80009f6:	f47f aec5 	bne.w	8000784 <__aeabi_dmul+0x19c>
 80009fa:	ea50 0441 	orrs.w	r4, r0, r1, lsl #1
 80009fe:	f47f af0d 	bne.w	800081c <__aeabi_dmul+0x234>
 8000a02:	ea52 0543 	orrs.w	r5, r2, r3, lsl #1
 8000a06:	f47f aeeb 	bne.w	80007e0 <__aeabi_dmul+0x1f8>
 8000a0a:	e712      	b.n	8000832 <__aeabi_dmul+0x24a>

08000a0c <__gedf2>:
 8000a0c:	f04f 3cff 	mov.w	ip, #4294967295
 8000a10:	e006      	b.n	8000a20 <__cmpdf2+0x4>
 8000a12:	bf00      	nop

08000a14 <__ledf2>:
 8000a14:	f04f 0c01 	mov.w	ip, #1
 8000a18:	e002      	b.n	8000a20 <__cmpdf2+0x4>
 8000a1a:	bf00      	nop

08000a1c <__cmpdf2>:
 8000a1c:	f04f 0c01 	mov.w	ip, #1
 8000a20:	f84d cd04 	str.w	ip, [sp, #-4]!
 8000a24:	ea4f 0c41 	mov.w	ip, r1, lsl #1
 8000a28:	ea7f 5c6c 	mvns.w	ip, ip, asr #21
 8000a2c:	ea4f 0c43 	mov.w	ip, r3, lsl #1
 8000a30:	bf18      	it	ne
 8000a32:	ea7f 5c6c 	mvnsne.w	ip, ip, asr #21
 8000a36:	d01b      	beq.n	8000a70 <__cmpdf2+0x54>
 8000a38:	b001      	add	sp, #4
 8000a3a:	ea50 0c41 	orrs.w	ip, r0, r1, lsl #1
 8000a3e:	bf0c      	ite	eq
 8000a40:	ea52 0c43 	orrseq.w	ip, r2, r3, lsl #1
 8000a44:	ea91 0f03 	teqne	r1, r3
 8000a48:	bf02      	ittt	eq
 8000a4a:	ea90 0f02 	teqeq	r0, r2
 8000a4e:	2000      	moveq	r0, #0
 8000a50:	4770      	bxeq	lr
 8000a52:	f110 0f00 	cmn.w	r0, #0
 8000a56:	ea91 0f03 	teq	r1, r3
 8000a5a:	bf58      	it	pl
 8000a5c:	4299      	cmppl	r1, r3
 8000a5e:	bf08      	it	eq
 8000a60:	4290      	cmpeq	r0, r2
 8000a62:	bf2c      	ite	cs
 8000a64:	17d8      	asrcs	r0, r3, #31
 8000a66:	ea6f 70e3 	mvncc.w	r0, r3, asr #31
 8000a6a:	f040 0001 	orr.w	r0, r0, #1
 8000a6e:	4770      	bx	lr
 8000a70:	ea4f 0c41 	mov.w	ip, r1, lsl #1
 8000a74:	ea7f 5c6c 	mvns.w	ip, ip, asr #21
 8000a78:	d102      	bne.n	8000a80 <__cmpdf2+0x64>
 8000a7a:	ea50 3c01 	orrs.w	ip, r0, r1, lsl #12
 8000a7e:	d107      	bne.n	8000a90 <__cmpdf2+0x74>
 8000a80:	ea4f 0c43 	mov.w	ip, r3, lsl #1
 8000a84:	ea7f 5c6c 	mvns.w	ip, ip, asr #21
 8000a88:	d1d6      	bne.n	8000a38 <__cmpdf2+0x1c>
 8000a8a:	ea52 3c03 	orrs.w	ip, r2, r3, lsl #12
 8000a8e:	d0d3      	beq.n	8000a38 <__cmpdf2+0x1c>
 8000a90:	f85d 0b04 	ldr.w	r0, [sp], #4
 8000a94:	4770      	bx	lr
 8000a96:	bf00      	nop

08000a98 <__aeabi_cdrcmple>:
 8000a98:	4684      	mov	ip, r0
 8000a9a:	4610      	mov	r0, r2
 8000a9c:	4662      	mov	r2, ip
 8000a9e:	468c      	mov	ip, r1
 8000aa0:	4619      	mov	r1, r3
 8000aa2:	4663      	mov	r3, ip
 8000aa4:	e000      	b.n	8000aa8 <__aeabi_cdcmpeq>
 8000aa6:	bf00      	nop

08000aa8 <__aeabi_cdcmpeq>:
 8000aa8:	b501      	push	{r0, lr}
 8000aaa:	f7ff ffb7 	bl	8000a1c <__cmpdf2>
 8000aae:	2800      	cmp	r0, #0
 8000ab0:	bf48      	it	mi
 8000ab2:	f110 0f00 	cmnmi.w	r0, #0
 8000ab6:	bd01      	pop	{r0, pc}

08000ab8 <__aeabi_dcmpeq>:
 8000ab8:	f84d ed08 	str.w	lr, [sp, #-8]!
 8000abc:	f7ff fff4 	bl	8000aa8 <__aeabi_cdcmpeq>
 8000ac0:	bf0c      	ite	eq
 8000ac2:	2001      	moveq	r0, #1
 8000ac4:	2000      	movne	r0, #0
 8000ac6:	f85d fb08 	ldr.w	pc, [sp], #8
 8000aca:	bf00      	nop

08000acc <__aeabi_dcmplt>:
 8000acc:	f84d ed08 	str.w	lr, [sp, #-8]!
 8000ad0:	f7ff ffea 	bl	8000aa8 <__aeabi_cdcmpeq>
 8000ad4:	bf34      	ite	cc
 8000ad6:	2001      	movcc	r0, #1
 8000ad8:	2000      	movcs	r0, #0
 8000ada:	f85d fb08 	ldr.w	pc, [sp], #8
 8000ade:	bf00      	nop

08000ae0 <__aeabi_dcmple>:
 8000ae0:	f84d ed08 	str.w	lr, [sp, #-8]!
 8000ae4:	f7ff ffe0 	bl	8000aa8 <__aeabi_cdcmpeq>
 8000ae8:	bf94      	ite	ls
 8000aea:	2001      	movls	r0, #1
 8000aec:	2000      	movhi	r0, #0
 8000aee:	f85d fb08 	ldr.w	pc, [sp], #8
 8000af2:	bf00      	nop

08000af4 <__aeabi_dcmpge>:
 8000af4:	f84d ed08 	str.w	lr, [sp, #-8]!
 8000af8:	f7ff ffce 	bl	8000a98 <__aeabi_cdrcmple>
 8000afc:	bf94      	ite	ls
 8000afe:	2001      	movls	r0, #1
 8000b00:	2000      	movhi	r0, #0
 8000b02:	f85d fb08 	ldr.w	pc, [sp], #8
 8000b06:	bf00      	nop

08000b08 <__aeabi_dcmpgt>:
 8000b08:	f84d ed08 	str.w	lr, [sp, #-8]!
 8000b0c:	f7ff ffc4 	bl	8000a98 <__aeabi_cdrcmple>
 8000b10:	bf34      	ite	cc
 8000b12:	2001      	movcc	r0, #1
 8000b14:	2000      	movcs	r0, #0
 8000b16:	f85d fb08 	ldr.w	pc, [sp], #8
 8000b1a:	bf00      	nop

08000b1c <__aeabi_d2iz>:
 8000b1c:	ea4f 0241 	mov.w	r2, r1, lsl #1
 8000b20:	f512 1200 	adds.w	r2, r2, #2097152	; 0x200000
 8000b24:	d215      	bcs.n	8000b52 <__aeabi_d2iz+0x36>
 8000b26:	d511      	bpl.n	8000b4c <__aeabi_d2iz+0x30>
 8000b28:	f46f 7378 	mvn.w	r3, #992	; 0x3e0
 8000b2c:	ebb3 5262 	subs.w	r2, r3, r2, asr #21
 8000b30:	d912      	bls.n	8000b58 <__aeabi_d2iz+0x3c>
 8000b32:	ea4f 23c1 	mov.w	r3, r1, lsl #11
 8000b36:	f043 4300 	orr.w	r3, r3, #2147483648	; 0x80000000
 8000b3a:	ea43 5350 	orr.w	r3, r3, r0, lsr #21
 8000b3e:	f011 4f00 	tst.w	r1, #2147483648	; 0x80000000
 8000b42:	fa23 f002 	lsr.w	r0, r3, r2
 8000b46:	bf18      	it	ne
 8000b48:	4240      	negne	r0, r0
 8000b4a:	4770      	bx	lr
 8000b4c:	f04f 0000 	mov.w	r0, #0
 8000b50:	4770      	bx	lr
 8000b52:	ea50 3001 	orrs.w	r0, r0, r1, lsl #12
 8000b56:	d105      	bne.n	8000b64 <__aeabi_d2iz+0x48>
 8000b58:	f011 4000 	ands.w	r0, r1, #2147483648	; 0x80000000
 8000b5c:	bf08      	it	eq
 8000b5e:	f06f 4000 	mvneq.w	r0, #2147483648	; 0x80000000
 8000b62:	4770      	bx	lr
 8000b64:	f04f 0000 	mov.w	r0, #0
 8000b68:	4770      	bx	lr
 8000b6a:	bf00      	nop

08000b6c <__aeabi_d2uiz>:
 8000b6c:	004a      	lsls	r2, r1, #1
 8000b6e:	d211      	bcs.n	8000b94 <__aeabi_d2uiz+0x28>
 8000b70:	f512 1200 	adds.w	r2, r2, #2097152	; 0x200000
 8000b74:	d211      	bcs.n	8000b9a <__aeabi_d2uiz+0x2e>
 8000b76:	d50d      	bpl.n	8000b94 <__aeabi_d2uiz+0x28>
 8000b78:	f46f 7378 	mvn.w	r3, #992	; 0x3e0
 8000b7c:	ebb3 5262 	subs.w	r2, r3, r2, asr #21
 8000b80:	d40e      	bmi.n	8000ba0 <__aeabi_d2uiz+0x34>
 8000b82:	ea4f 23c1 	mov.w	r3, r1, lsl #11
 8000b86:	f043 4300 	orr.w	r3, r3, #2147483648	; 0x80000000
 8000b8a:	ea43 5350 	orr.w	r3, r3, r0, lsr #21
 8000b8e:	fa23 f002 	lsr.w	r0, r3, r2
 8000b92:	4770      	bx	lr
 8000b94:	f04f 0000 	mov.w	r0, #0
 8000b98:	4770      	bx	lr
 8000b9a:	ea50 3001 	orrs.w	r0, r0, r1, lsl #12
 8000b9e:	d102      	bne.n	8000ba6 <__aeabi_d2uiz+0x3a>
 8000ba0:	f04f 30ff 	mov.w	r0, #4294967295
 8000ba4:	4770      	bx	lr
 8000ba6:	f04f 0000 	mov.w	r0, #0
 8000baa:	4770      	bx	lr

08000bac <__aeabi_d2f>:
 8000bac:	ea4f 0241 	mov.w	r2, r1, lsl #1
 8000bb0:	f1b2 43e0 	subs.w	r3, r2, #1879048192	; 0x70000000
 8000bb4:	bf24      	itt	cs
 8000bb6:	f5b3 1c00 	subscs.w	ip, r3, #2097152	; 0x200000
 8000bba:	f1dc 5cfe 	rsbscs	ip, ip, #532676608	; 0x1fc00000
 8000bbe:	d90d      	bls.n	8000bdc <__aeabi_d2f+0x30>
 8000bc0:	f001 4c00 	and.w	ip, r1, #2147483648	; 0x80000000
 8000bc4:	ea4f 02c0 	mov.w	r2, r0, lsl #3
 8000bc8:	ea4c 7050 	orr.w	r0, ip, r0, lsr #29
 8000bcc:	f1b2 4f00 	cmp.w	r2, #2147483648	; 0x80000000
 8000bd0:	eb40 0083 	adc.w	r0, r0, r3, lsl #2
 8000bd4:	bf08      	it	eq
 8000bd6:	f020 0001 	biceq.w	r0, r0, #1
 8000bda:	4770      	bx	lr
 8000bdc:	f011 4f80 	tst.w	r1, #1073741824	; 0x40000000
 8000be0:	d121      	bne.n	8000c26 <__aeabi_d2f+0x7a>
 8000be2:	f113 7238 	adds.w	r2, r3, #48234496	; 0x2e00000
 8000be6:	bfbc      	itt	lt
 8000be8:	f001 4000 	andlt.w	r0, r1, #2147483648	; 0x80000000
 8000bec:	4770      	bxlt	lr
 8000bee:	f441 1180 	orr.w	r1, r1, #1048576	; 0x100000
 8000bf2:	ea4f 5252 	mov.w	r2, r2, lsr #21
 8000bf6:	f1c2 0218 	rsb	r2, r2, #24
 8000bfa:	f1c2 0c20 	rsb	ip, r2, #32
 8000bfe:	fa10 f30c 	lsls.w	r3, r0, ip
 8000c02:	fa20 f002 	lsr.w	r0, r0, r2
 8000c06:	bf18      	it	ne
 8000c08:	f040 0001 	orrne.w	r0, r0, #1
 8000c0c:	ea4f 23c1 	mov.w	r3, r1, lsl #11
 8000c10:	ea4f 23d3 	mov.w	r3, r3, lsr #11
 8000c14:	fa03 fc0c 	lsl.w	ip, r3, ip
 8000c18:	ea40 000c 	orr.w	r0, r0, ip
 8000c1c:	fa23 f302 	lsr.w	r3, r3, r2
 8000c20:	ea4f 0343 	mov.w	r3, r3, lsl #1
 8000c24:	e7cc      	b.n	8000bc0 <__aeabi_d2f+0x14>
 8000c26:	ea7f 5362 	mvns.w	r3, r2, asr #21
 8000c2a:	d107      	bne.n	8000c3c <__aeabi_d2f+0x90>
 8000c2c:	ea50 3301 	orrs.w	r3, r0, r1, lsl #12
 8000c30:	bf1e      	ittt	ne
 8000c32:	f04f 40fe 	movne.w	r0, #2130706432	; 0x7f000000
 8000c36:	f440 0040 	orrne.w	r0, r0, #12582912	; 0xc00000
 8000c3a:	4770      	bxne	lr
 8000c3c:	f001 4000 	and.w	r0, r1, #2147483648	; 0x80000000
 8000c40:	f040 40fe 	orr.w	r0, r0, #2130706432	; 0x7f000000
 8000c44:	f440 0000 	orr.w	r0, r0, #8388608	; 0x800000
 8000c48:	4770      	bx	lr
 8000c4a:	bf00      	nop

08000c4c <__NVIC_GetPriorityGrouping>:
  \brief   Get Priority Grouping
  \details Reads the priority grouping field from the NVIC Interrupt Controller.
  \return                Priority grouping field (SCB->AIRCR [10:8] PRIGROUP field).
 */
__STATIC_INLINE uint32_t __NVIC_GetPriorityGrouping(void)
{
 8000c4c:	b480      	push	{r7}
 8000c4e:	af00      	add	r7, sp, #0
  return ((uint32_t)((SCB->AIRCR & SCB_AIRCR_PRIGROUP_Msk) >> SCB_AIRCR_PRIGROUP_Pos));
 8000c50:	4b04      	ldr	r3, [pc, #16]	; (8000c64 <__NVIC_GetPriorityGrouping+0x18>)
 8000c52:	68db      	ldr	r3, [r3, #12]
 8000c54:	0a1b      	lsrs	r3, r3, #8
 8000c56:	f003 0307 	and.w	r3, r3, #7
}
 8000c5a:	4618      	mov	r0, r3
 8000c5c:	46bd      	mov	sp, r7
 8000c5e:	f85d 7b04 	ldr.w	r7, [sp], #4
 8000c62:	4770      	bx	lr
 8000c64:	e000ed00 	.word	0xe000ed00

08000c68 <__NVIC_EnableIRQ>:
  \details Enables a device specific interrupt in the NVIC interrupt controller.
  \param [in]      IRQn  Device specific interrupt number.
  \note    IRQn must not be negative.
 */
__STATIC_INLINE void __NVIC_EnableIRQ(IRQn_Type IRQn)
{
 8000c68:	b480      	push	{r7}
 8000c6a:	b083      	sub	sp, #12
 8000c6c:	af00      	add	r7, sp, #0
 8000c6e:	4603      	mov	r3, r0
 8000c70:	71fb      	strb	r3, [r7, #7]
  if ((int32_t)(IRQn) >= 0)
 8000c72:	f997 3007 	ldrsb.w	r3, [r7, #7]
 8000c76:	2b00      	cmp	r3, #0
 8000c78:	db0b      	blt.n	8000c92 <__NVIC_EnableIRQ+0x2a>
  {
    __COMPILER_BARRIER();
    NVIC->ISER[(((uint32_t)IRQn) >> 5UL)] = (uint32_t)(1UL << (((uint32_t)IRQn) & 0x1FUL));
 8000c7a:	79fb      	ldrb	r3, [r7, #7]
 8000c7c:	f003 021f 	and.w	r2, r3, #31
 8000c80:	4907      	ldr	r1, [pc, #28]	; (8000ca0 <__NVIC_EnableIRQ+0x38>)
 8000c82:	f997 3007 	ldrsb.w	r3, [r7, #7]
 8000c86:	095b      	lsrs	r3, r3, #5
 8000c88:	2001      	movs	r0, #1
 8000c8a:	fa00 f202 	lsl.w	r2, r0, r2
 8000c8e:	f841 2023 	str.w	r2, [r1, r3, lsl #2]
    __COMPILER_BARRIER();
  }
}
 8000c92:	bf00      	nop
 8000c94:	370c      	adds	r7, #12
 8000c96:	46bd      	mov	sp, r7
 8000c98:	f85d 7b04 	ldr.w	r7, [sp], #4
 8000c9c:	4770      	bx	lr
 8000c9e:	bf00      	nop
 8000ca0:	e000e100 	.word	0xe000e100

08000ca4 <__NVIC_SetPriority>:
  \param [in]      IRQn  Interrupt number.
  \param [in]  priority  Priority to set.
  \note    The priority cannot be set for every processor exception.
 */
__STATIC_INLINE void __NVIC_SetPriority(IRQn_Type IRQn, uint32_t priority)
{
 8000ca4:	b480      	push	{r7}
 8000ca6:	b083      	sub	sp, #12
 8000ca8:	af00      	add	r7, sp, #0
 8000caa:	4603      	mov	r3, r0
 8000cac:	6039      	str	r1, [r7, #0]
 8000cae:	71fb      	strb	r3, [r7, #7]
  if ((int32_t)(IRQn) >= 0)
 8000cb0:	f997 3007 	ldrsb.w	r3, [r7, #7]
 8000cb4:	2b00      	cmp	r3, #0
 8000cb6:	db0a      	blt.n	8000cce <__NVIC_SetPriority+0x2a>
  {
    NVIC->IP[((uint32_t)IRQn)]               = (uint8_t)((priority << (8U - __NVIC_PRIO_BITS)) & (uint32_t)0xFFUL);
 8000cb8:	683b      	ldr	r3, [r7, #0]
 8000cba:	b2da      	uxtb	r2, r3
 8000cbc:	490c      	ldr	r1, [pc, #48]	; (8000cf0 <__NVIC_SetPriority+0x4c>)
 8000cbe:	f997 3007 	ldrsb.w	r3, [r7, #7]
 8000cc2:	0112      	lsls	r2, r2, #4
 8000cc4:	b2d2      	uxtb	r2, r2
 8000cc6:	440b      	add	r3, r1
 8000cc8:	f883 2300 	strb.w	r2, [r3, #768]	; 0x300
  }
  else
  {
    SCB->SHP[(((uint32_t)IRQn) & 0xFUL)-4UL] = (uint8_t)((priority << (8U - __NVIC_PRIO_BITS)) & (uint32_t)0xFFUL);
  }
}
 8000ccc:	e00a      	b.n	8000ce4 <__NVIC_SetPriority+0x40>
    SCB->SHP[(((uint32_t)IRQn) & 0xFUL)-4UL] = (uint8_t)((priority << (8U - __NVIC_PRIO_BITS)) & (uint32_t)0xFFUL);
 8000cce:	683b      	ldr	r3, [r7, #0]
 8000cd0:	b2da      	uxtb	r2, r3
 8000cd2:	4908      	ldr	r1, [pc, #32]	; (8000cf4 <__NVIC_SetPriority+0x50>)
 8000cd4:	79fb      	ldrb	r3, [r7, #7]
 8000cd6:	f003 030f 	and.w	r3, r3, #15
 8000cda:	3b04      	subs	r3, #4
 8000cdc:	0112      	lsls	r2, r2, #4
 8000cde:	b2d2      	uxtb	r2, r2
 8000ce0:	440b      	add	r3, r1
 8000ce2:	761a      	strb	r2, [r3, #24]
}
 8000ce4:	bf00      	nop
 8000ce6:	370c      	adds	r7, #12
 8000ce8:	46bd      	mov	sp, r7
 8000cea:	f85d 7b04 	ldr.w	r7, [sp], #4
 8000cee:	4770      	bx	lr
 8000cf0:	e000e100 	.word	0xe000e100
 8000cf4:	e000ed00 	.word	0xe000ed00

08000cf8 <NVIC_EncodePriority>:
  \param [in]   PreemptPriority  Preemptive priority value (starting from 0).
  \param [in]       SubPriority  Subpriority value (starting from 0).
  \return                        Encoded priority. Value can be used in the function \ref NVIC_SetPriority().
 */
__STATIC_INLINE uint32_t NVIC_EncodePriority (uint32_t PriorityGroup, uint32_t PreemptPriority, uint32_t SubPriority)
{
 8000cf8:	b480      	push	{r7}
 8000cfa:	b089      	sub	sp, #36	; 0x24
 8000cfc:	af00      	add	r7, sp, #0
 8000cfe:	60f8      	str	r0, [r7, #12]
 8000d00:	60b9      	str	r1, [r7, #8]
 8000d02:	607a      	str	r2, [r7, #4]
  uint32_t PriorityGroupTmp = (PriorityGroup & (uint32_t)0x07UL);   /* only values 0..7 are used          */
 8000d04:	68fb      	ldr	r3, [r7, #12]
 8000d06:	f003 0307 	and.w	r3, r3, #7
 8000d0a:	61fb      	str	r3, [r7, #28]
  uint32_t PreemptPriorityBits;
  uint32_t SubPriorityBits;

  PreemptPriorityBits = ((7UL - PriorityGroupTmp) > (uint32_t)(__NVIC_PRIO_BITS)) ? (uint32_t)(__NVIC_PRIO_BITS) : (uint32_t)(7UL - PriorityGroupTmp);
 8000d0c:	69fb      	ldr	r3, [r7, #28]
 8000d0e:	f1c3 0307 	rsb	r3, r3, #7
 8000d12:	2b04      	cmp	r3, #4
 8000d14:	bf28      	it	cs
 8000d16:	2304      	movcs	r3, #4
 8000d18:	61bb      	str	r3, [r7, #24]
  SubPriorityBits     = ((PriorityGroupTmp + (uint32_t)(__NVIC_PRIO_BITS)) < (uint32_t)7UL) ? (uint32_t)0UL : (uint32_t)((PriorityGroupTmp - 7UL) + (uint32_t)(__NVIC_PRIO_BITS));
 8000d1a:	69fb      	ldr	r3, [r7, #28]
 8000d1c:	3304      	adds	r3, #4
 8000d1e:	2b06      	cmp	r3, #6
 8000d20:	d902      	bls.n	8000d28 <NVIC_EncodePriority+0x30>
 8000d22:	69fb      	ldr	r3, [r7, #28]
 8000d24:	3b03      	subs	r3, #3
 8000d26:	e000      	b.n	8000d2a <NVIC_EncodePriority+0x32>
 8000d28:	2300      	movs	r3, #0
 8000d2a:	617b      	str	r3, [r7, #20]

  return (
           ((PreemptPriority & (uint32_t)((1UL << (PreemptPriorityBits)) - 1UL)) << SubPriorityBits) |
 8000d2c:	f04f 32ff 	mov.w	r2, #4294967295
 8000d30:	69bb      	ldr	r3, [r7, #24]
 8000d32:	fa02 f303 	lsl.w	r3, r2, r3
 8000d36:	43da      	mvns	r2, r3
 8000d38:	68bb      	ldr	r3, [r7, #8]
 8000d3a:	401a      	ands	r2, r3
 8000d3c:	697b      	ldr	r3, [r7, #20]
 8000d3e:	409a      	lsls	r2, r3
           ((SubPriority     & (uint32_t)((1UL << (SubPriorityBits    )) - 1UL)))
 8000d40:	f04f 31ff 	mov.w	r1, #4294967295
 8000d44:	697b      	ldr	r3, [r7, #20]
 8000d46:	fa01 f303 	lsl.w	r3, r1, r3
 8000d4a:	43d9      	mvns	r1, r3
 8000d4c:	687b      	ldr	r3, [r7, #4]
 8000d4e:	400b      	ands	r3, r1
           ((PreemptPriority & (uint32_t)((1UL << (PreemptPriorityBits)) - 1UL)) << SubPriorityBits) |
 8000d50:	4313      	orrs	r3, r2
         );
}
 8000d52:	4618      	mov	r0, r3
 8000d54:	3724      	adds	r7, #36	; 0x24
 8000d56:	46bd      	mov	sp, r7
 8000d58:	f85d 7b04 	ldr.w	r7, [sp], #4
 8000d5c:	4770      	bx	lr
	...

08000d60 <LL_RCC_SetUSARTClockSource>:
  *
  *         (*) value not defined in all devices.
  * @retval None
  */
__STATIC_INLINE void LL_RCC_SetUSARTClockSource(uint32_t USARTxSource)
{
 8000d60:	b480      	push	{r7}
 8000d62:	b083      	sub	sp, #12
 8000d64:	af00      	add	r7, sp, #0
 8000d66:	6078      	str	r0, [r7, #4]
  MODIFY_REG(RCC->CCIPR, (USARTxSource >> 16U), (USARTxSource & 0x0000FFFFU));
 8000d68:	4b09      	ldr	r3, [pc, #36]	; (8000d90 <LL_RCC_SetUSARTClockSource+0x30>)
 8000d6a:	f8d3 2088 	ldr.w	r2, [r3, #136]	; 0x88
 8000d6e:	687b      	ldr	r3, [r7, #4]
 8000d70:	0c1b      	lsrs	r3, r3, #16
 8000d72:	43db      	mvns	r3, r3
 8000d74:	401a      	ands	r2, r3
 8000d76:	687b      	ldr	r3, [r7, #4]
 8000d78:	b29b      	uxth	r3, r3
 8000d7a:	4905      	ldr	r1, [pc, #20]	; (8000d90 <LL_RCC_SetUSARTClockSource+0x30>)
 8000d7c:	4313      	orrs	r3, r2
 8000d7e:	f8c1 3088 	str.w	r3, [r1, #136]	; 0x88
}
 8000d82:	bf00      	nop
 8000d84:	370c      	adds	r7, #12
 8000d86:	46bd      	mov	sp, r7
 8000d88:	f85d 7b04 	ldr.w	r7, [sp], #4
 8000d8c:	4770      	bx	lr
 8000d8e:	bf00      	nop
 8000d90:	40021000 	.word	0x40021000

08000d94 <LL_AHB2_GRP1_EnableClock>:
  *
  *         (*) value not defined in all devices.
  * @retval None
*/
__STATIC_INLINE void LL_AHB2_GRP1_EnableClock(uint32_t Periphs)
{
 8000d94:	b480      	push	{r7}
 8000d96:	b085      	sub	sp, #20
 8000d98:	af00      	add	r7, sp, #0
 8000d9a:	6078      	str	r0, [r7, #4]
  __IO uint32_t tmpreg;
  SET_BIT(RCC->AHB2ENR, Periphs);
 8000d9c:	4b08      	ldr	r3, [pc, #32]	; (8000dc0 <LL_AHB2_GRP1_EnableClock+0x2c>)
 8000d9e:	6cda      	ldr	r2, [r3, #76]	; 0x4c
 8000da0:	4907      	ldr	r1, [pc, #28]	; (8000dc0 <LL_AHB2_GRP1_EnableClock+0x2c>)
 8000da2:	687b      	ldr	r3, [r7, #4]
 8000da4:	4313      	orrs	r3, r2
 8000da6:	64cb      	str	r3, [r1, #76]	; 0x4c
  /* Delay after an RCC peripheral clock enabling */
  tmpreg = READ_BIT(RCC->AHB2ENR, Periphs);
 8000da8:	4b05      	ldr	r3, [pc, #20]	; (8000dc0 <LL_AHB2_GRP1_EnableClock+0x2c>)
 8000daa:	6cda      	ldr	r2, [r3, #76]	; 0x4c
 8000dac:	687b      	ldr	r3, [r7, #4]
 8000dae:	4013      	ands	r3, r2
 8000db0:	60fb      	str	r3, [r7, #12]
  (void)tmpreg;
 8000db2:	68fb      	ldr	r3, [r7, #12]
}
 8000db4:	bf00      	nop
 8000db6:	3714      	adds	r7, #20
 8000db8:	46bd      	mov	sp, r7
 8000dba:	f85d 7b04 	ldr.w	r7, [sp], #4
 8000dbe:	4770      	bx	lr
 8000dc0:	40021000 	.word	0x40021000

08000dc4 <LL_APB2_GRP1_EnableClock>:
  *
  *         (*) value not defined in all devices.
  * @retval None
*/
__STATIC_INLINE void LL_APB2_GRP1_EnableClock(uint32_t Periphs)
{
 8000dc4:	b480      	push	{r7}
 8000dc6:	b085      	sub	sp, #20
 8000dc8:	af00      	add	r7, sp, #0
 8000dca:	6078      	str	r0, [r7, #4]
  __IO uint32_t tmpreg;
  SET_BIT(RCC->APB2ENR, Periphs);
 8000dcc:	4b08      	ldr	r3, [pc, #32]	; (8000df0 <LL_APB2_GRP1_EnableClock+0x2c>)
 8000dce:	6e1a      	ldr	r2, [r3, #96]	; 0x60
 8000dd0:	4907      	ldr	r1, [pc, #28]	; (8000df0 <LL_APB2_GRP1_EnableClock+0x2c>)
 8000dd2:	687b      	ldr	r3, [r7, #4]
 8000dd4:	4313      	orrs	r3, r2
 8000dd6:	660b      	str	r3, [r1, #96]	; 0x60
  /* Delay after an RCC peripheral clock enabling */
  tmpreg = READ_BIT(RCC->APB2ENR, Periphs);
 8000dd8:	4b05      	ldr	r3, [pc, #20]	; (8000df0 <LL_APB2_GRP1_EnableClock+0x2c>)
 8000dda:	6e1a      	ldr	r2, [r3, #96]	; 0x60
 8000ddc:	687b      	ldr	r3, [r7, #4]
 8000dde:	4013      	ands	r3, r2
 8000de0:	60fb      	str	r3, [r7, #12]
  (void)tmpreg;
 8000de2:	68fb      	ldr	r3, [r7, #12]
}
 8000de4:	bf00      	nop
 8000de6:	3714      	adds	r7, #20
 8000de8:	46bd      	mov	sp, r7
 8000dea:	f85d 7b04 	ldr.w	r7, [sp], #4
 8000dee:	4770      	bx	lr
 8000df0:	40021000 	.word	0x40021000

08000df4 <LL_USART_Enable>:
  * @rmtoll CR1          UE            LL_USART_Enable
  * @param  USARTx USART Instance
  * @retval None
  */
__STATIC_INLINE void LL_USART_Enable(USART_TypeDef *USARTx)
{
 8000df4:	b480      	push	{r7}
 8000df6:	b083      	sub	sp, #12
 8000df8:	af00      	add	r7, sp, #0
 8000dfa:	6078      	str	r0, [r7, #4]
  SET_BIT(USARTx->CR1, USART_CR1_UE);
 8000dfc:	687b      	ldr	r3, [r7, #4]
 8000dfe:	681b      	ldr	r3, [r3, #0]
 8000e00:	f043 0201 	orr.w	r2, r3, #1
 8000e04:	687b      	ldr	r3, [r7, #4]
 8000e06:	601a      	str	r2, [r3, #0]
}
 8000e08:	bf00      	nop
 8000e0a:	370c      	adds	r7, #12
 8000e0c:	46bd      	mov	sp, r7
 8000e0e:	f85d 7b04 	ldr.w	r7, [sp], #4
 8000e12:	4770      	bx	lr

08000e14 <LL_USART_ConfigAsyncMode>:
  *         CR3          HDSEL         LL_USART_ConfigAsyncMode
  * @param  USARTx USART Instance
  * @retval None
  */
__STATIC_INLINE void LL_USART_ConfigAsyncMode(USART_TypeDef *USARTx)
{
 8000e14:	b480      	push	{r7}
 8000e16:	b083      	sub	sp, #12
 8000e18:	af00      	add	r7, sp, #0
 8000e1a:	6078      	str	r0, [r7, #4]
  /* In Asynchronous mode, the following bits must be kept cleared:
  - LINEN, CLKEN bits in the USART_CR2 register,
  - SCEN, IREN and HDSEL bits in the USART_CR3 register.
  */
  CLEAR_BIT(USARTx->CR2, (USART_CR2_LINEN | USART_CR2_CLKEN));
 8000e1c:	687b      	ldr	r3, [r7, #4]
 8000e1e:	685b      	ldr	r3, [r3, #4]
 8000e20:	f423 4290 	bic.w	r2, r3, #18432	; 0x4800
 8000e24:	687b      	ldr	r3, [r7, #4]
 8000e26:	605a      	str	r2, [r3, #4]
  CLEAR_BIT(USARTx->CR3, (USART_CR3_SCEN | USART_CR3_IREN | USART_CR3_HDSEL));
 8000e28:	687b      	ldr	r3, [r7, #4]
 8000e2a:	689b      	ldr	r3, [r3, #8]
 8000e2c:	f023 022a 	bic.w	r2, r3, #42	; 0x2a
 8000e30:	687b      	ldr	r3, [r7, #4]
 8000e32:	609a      	str	r2, [r3, #8]
}
 8000e34:	bf00      	nop
 8000e36:	370c      	adds	r7, #12
 8000e38:	46bd      	mov	sp, r7
 8000e3a:	f85d 7b04 	ldr.w	r7, [sp], #4
 8000e3e:	4770      	bx	lr

08000e40 <LL_USART_IsActiveFlag_RXNE>:
  * @rmtoll ISR          RXNE          LL_USART_IsActiveFlag_RXNE
  * @param  USARTx USART Instance
  * @retval State of bit (1 or 0).
  */
__STATIC_INLINE uint32_t LL_USART_IsActiveFlag_RXNE(const USART_TypeDef *USARTx)
{
 8000e40:	b480      	push	{r7}
 8000e42:	b083      	sub	sp, #12
 8000e44:	af00      	add	r7, sp, #0
 8000e46:	6078      	str	r0, [r7, #4]
  return ((READ_BIT(USARTx->ISR, USART_ISR_RXNE) == (USART_ISR_RXNE)) ? 1UL : 0UL);
 8000e48:	687b      	ldr	r3, [r7, #4]
 8000e4a:	69db      	ldr	r3, [r3, #28]
 8000e4c:	f003 0320 	and.w	r3, r3, #32
 8000e50:	2b20      	cmp	r3, #32
 8000e52:	d101      	bne.n	8000e58 <LL_USART_IsActiveFlag_RXNE+0x18>
 8000e54:	2301      	movs	r3, #1
 8000e56:	e000      	b.n	8000e5a <LL_USART_IsActiveFlag_RXNE+0x1a>
 8000e58:	2300      	movs	r3, #0
}
 8000e5a:	4618      	mov	r0, r3
 8000e5c:	370c      	adds	r7, #12
 8000e5e:	46bd      	mov	sp, r7
 8000e60:	f85d 7b04 	ldr.w	r7, [sp], #4
 8000e64:	4770      	bx	lr

08000e66 <LL_USART_IsActiveFlag_TC>:
  * @rmtoll ISR          TC            LL_USART_IsActiveFlag_TC
  * @param  USARTx USART Instance
  * @retval State of bit (1 or 0).
  */
__STATIC_INLINE uint32_t LL_USART_IsActiveFlag_TC(const USART_TypeDef *USARTx)
{
 8000e66:	b480      	push	{r7}
 8000e68:	b083      	sub	sp, #12
 8000e6a:	af00      	add	r7, sp, #0
 8000e6c:	6078      	str	r0, [r7, #4]
  return ((READ_BIT(USARTx->ISR, USART_ISR_TC) == (USART_ISR_TC)) ? 1UL : 0UL);
 8000e6e:	687b      	ldr	r3, [r7, #4]
 8000e70:	69db      	ldr	r3, [r3, #28]
 8000e72:	f003 0340 	and.w	r3, r3, #64	; 0x40
 8000e76:	2b40      	cmp	r3, #64	; 0x40
 8000e78:	d101      	bne.n	8000e7e <LL_USART_IsActiveFlag_TC+0x18>
 8000e7a:	2301      	movs	r3, #1
 8000e7c:	e000      	b.n	8000e80 <LL_USART_IsActiveFlag_TC+0x1a>
 8000e7e:	2300      	movs	r3, #0
}
 8000e80:	4618      	mov	r0, r3
 8000e82:	370c      	adds	r7, #12
 8000e84:	46bd      	mov	sp, r7
 8000e86:	f85d 7b04 	ldr.w	r7, [sp], #4
 8000e8a:	4770      	bx	lr

08000e8c <LL_USART_IsActiveFlag_TXE>:
  * @rmtoll ISR          TXE           LL_USART_IsActiveFlag_TXE
  * @param  USARTx USART Instance
  * @retval State of bit (1 or 0).
  */
__STATIC_INLINE uint32_t LL_USART_IsActiveFlag_TXE(const USART_TypeDef *USARTx)
{
 8000e8c:	b480      	push	{r7}
 8000e8e:	b083      	sub	sp, #12
 8000e90:	af00      	add	r7, sp, #0
 8000e92:	6078      	str	r0, [r7, #4]
  return ((READ_BIT(USARTx->ISR, USART_ISR_TXE) == (USART_ISR_TXE)) ? 1UL : 0UL);
 8000e94:	687b      	ldr	r3, [r7, #4]
 8000e96:	69db      	ldr	r3, [r3, #28]
 8000e98:	f003 0380 	and.w	r3, r3, #128	; 0x80
 8000e9c:	2b80      	cmp	r3, #128	; 0x80
 8000e9e:	d101      	bne.n	8000ea4 <LL_USART_IsActiveFlag_TXE+0x18>
 8000ea0:	2301      	movs	r3, #1
 8000ea2:	e000      	b.n	8000ea6 <LL_USART_IsActiveFlag_TXE+0x1a>
 8000ea4:	2300      	movs	r3, #0
}
 8000ea6:	4618      	mov	r0, r3
 8000ea8:	370c      	adds	r7, #12
 8000eaa:	46bd      	mov	sp, r7
 8000eac:	f85d 7b04 	ldr.w	r7, [sp], #4
 8000eb0:	4770      	bx	lr

08000eb2 <LL_USART_EnableIT_RXNE>:
  * @rmtoll CR1          RXNEIE        LL_USART_EnableIT_RXNE
  * @param  USARTx USART Instance
  * @retval None
  */
__STATIC_INLINE void LL_USART_EnableIT_RXNE(USART_TypeDef *USARTx)
{
 8000eb2:	b480      	push	{r7}
 8000eb4:	b089      	sub	sp, #36	; 0x24
 8000eb6:	af00      	add	r7, sp, #0
 8000eb8:	6078      	str	r0, [r7, #4]
  ATOMIC_SET_BIT(USARTx->CR1, USART_CR1_RXNEIE);
 8000eba:	687b      	ldr	r3, [r7, #4]
 8000ebc:	60fb      	str	r3, [r7, #12]
 */
__STATIC_FORCEINLINE uint32_t __LDREXW(volatile uint32_t *addr)
{
    uint32_t result;

   __ASM volatile ("ldrex %0, %1" : "=r" (result) : "Q" (*addr) );
 8000ebe:	68fb      	ldr	r3, [r7, #12]
 8000ec0:	e853 3f00 	ldrex	r3, [r3]
 8000ec4:	60bb      	str	r3, [r7, #8]
   return(result);
 8000ec6:	68bb      	ldr	r3, [r7, #8]
 8000ec8:	f043 0320 	orr.w	r3, r3, #32
 8000ecc:	61fb      	str	r3, [r7, #28]
 8000ece:	687b      	ldr	r3, [r7, #4]
 8000ed0:	69fa      	ldr	r2, [r7, #28]
 8000ed2:	61ba      	str	r2, [r7, #24]
 8000ed4:	617b      	str	r3, [r7, #20]
 */
__STATIC_FORCEINLINE uint32_t __STREXW(uint32_t value, volatile uint32_t *addr)
{
   uint32_t result;

   __ASM volatile ("strex %0, %2, %1" : "=&r" (result), "=Q" (*addr) : "r" (value) );
 8000ed6:	6979      	ldr	r1, [r7, #20]
 8000ed8:	69ba      	ldr	r2, [r7, #24]
 8000eda:	e841 2300 	strex	r3, r2, [r1]
 8000ede:	613b      	str	r3, [r7, #16]
   return(result);
 8000ee0:	693b      	ldr	r3, [r7, #16]
 8000ee2:	2b00      	cmp	r3, #0
 8000ee4:	d1e9      	bne.n	8000eba <LL_USART_EnableIT_RXNE+0x8>
}
 8000ee6:	bf00      	nop
 8000ee8:	bf00      	nop
 8000eea:	3724      	adds	r7, #36	; 0x24
 8000eec:	46bd      	mov	sp, r7
 8000eee:	f85d 7b04 	ldr.w	r7, [sp], #4
 8000ef2:	4770      	bx	lr

08000ef4 <LL_USART_ReceiveData8>:
  * @rmtoll RDR          RDR           LL_USART_ReceiveData8
  * @param  USARTx USART Instance
  * @retval Value between Min_Data=0x00 and Max_Data=0xFF
  */
__STATIC_INLINE uint8_t LL_USART_ReceiveData8(const USART_TypeDef *USARTx)
{
 8000ef4:	b480      	push	{r7}
 8000ef6:	b083      	sub	sp, #12
 8000ef8:	af00      	add	r7, sp, #0
 8000efa:	6078      	str	r0, [r7, #4]
  return (uint8_t)(READ_BIT(USARTx->RDR, USART_RDR_RDR) & 0xFFU);
 8000efc:	687b      	ldr	r3, [r7, #4]
 8000efe:	8c9b      	ldrh	r3, [r3, #36]	; 0x24
 8000f00:	b29b      	uxth	r3, r3
 8000f02:	b2db      	uxtb	r3, r3
}
 8000f04:	4618      	mov	r0, r3
 8000f06:	370c      	adds	r7, #12
 8000f08:	46bd      	mov	sp, r7
 8000f0a:	f85d 7b04 	ldr.w	r7, [sp], #4
 8000f0e:	4770      	bx	lr

08000f10 <LL_USART_TransmitData8>:
  * @param  USARTx USART Instance
  * @param  Value between Min_Data=0x00 and Max_Data=0xFF
  * @retval None
  */
__STATIC_INLINE void LL_USART_TransmitData8(USART_TypeDef *USARTx, uint8_t Value)
{
 8000f10:	b480      	push	{r7}
 8000f12:	b083      	sub	sp, #12
 8000f14:	af00      	add	r7, sp, #0
 8000f16:	6078      	str	r0, [r7, #4]
 8000f18:	460b      	mov	r3, r1
 8000f1a:	70fb      	strb	r3, [r7, #3]
  USARTx->TDR = Value;
 8000f1c:	78fb      	ldrb	r3, [r7, #3]
 8000f1e:	b29a      	uxth	r2, r3
 8000f20:	687b      	ldr	r3, [r7, #4]
 8000f22:	851a      	strh	r2, [r3, #40]	; 0x28
}
 8000f24:	bf00      	nop
 8000f26:	370c      	adds	r7, #12
 8000f28:	46bd      	mov	sp, r7
 8000f2a:	f85d 7b04 	ldr.w	r7, [sp], #4
 8000f2e:	4770      	bx	lr

08000f30 <_write>:
#include "communication.h"

#define LINE_MAX_LENGTH 50
#define ASCII_OFFSET 48

int _write(int file, uint8_t *buf, int nbytes){
 8000f30:	b580      	push	{r7, lr}
 8000f32:	b086      	sub	sp, #24
 8000f34:	af00      	add	r7, sp, #0
 8000f36:	60f8      	str	r0, [r7, #12]
 8000f38:	60b9      	str	r1, [r7, #8]
 8000f3a:	607a      	str	r2, [r7, #4]
  uint8_t num_of_byte = 0;
 8000f3c:	2300      	movs	r3, #0
 8000f3e:	75fb      	strb	r3, [r7, #23]
  while (num_of_byte <= nbytes - 1){
 8000f40:	e011      	b.n	8000f66 <_write+0x36>
    while (!LL_USART_IsActiveFlag_TXE(USART2));
 8000f42:	bf00      	nop
 8000f44:	4810      	ldr	r0, [pc, #64]	; (8000f88 <_write+0x58>)
 8000f46:	f7ff ffa1 	bl	8000e8c <LL_USART_IsActiveFlag_TXE>
 8000f4a:	4603      	mov	r3, r0
 8000f4c:	2b00      	cmp	r3, #0
 8000f4e:	d0f9      	beq.n	8000f44 <_write+0x14>
    LL_USART_TransmitData8(USART2, buf[num_of_byte++]);
 8000f50:	7dfb      	ldrb	r3, [r7, #23]
 8000f52:	1c5a      	adds	r2, r3, #1
 8000f54:	75fa      	strb	r2, [r7, #23]
 8000f56:	461a      	mov	r2, r3
 8000f58:	68bb      	ldr	r3, [r7, #8]
 8000f5a:	4413      	add	r3, r2
 8000f5c:	781b      	ldrb	r3, [r3, #0]
 8000f5e:	4619      	mov	r1, r3
 8000f60:	4809      	ldr	r0, [pc, #36]	; (8000f88 <_write+0x58>)
 8000f62:	f7ff ffd5 	bl	8000f10 <LL_USART_TransmitData8>
  while (num_of_byte <= nbytes - 1){
 8000f66:	7dfb      	ldrb	r3, [r7, #23]
 8000f68:	687a      	ldr	r2, [r7, #4]
 8000f6a:	429a      	cmp	r2, r3
 8000f6c:	dce9      	bgt.n	8000f42 <_write+0x12>
  }
  while (!LL_USART_IsActiveFlag_TC(USART2));
 8000f6e:	bf00      	nop
 8000f70:	4805      	ldr	r0, [pc, #20]	; (8000f88 <_write+0x58>)
 8000f72:	f7ff ff78 	bl	8000e66 <LL_USART_IsActiveFlag_TC>
 8000f76:	4603      	mov	r3, r0
 8000f78:	2b00      	cmp	r3, #0
 8000f7a:	d0f9      	beq.n	8000f70 <_write+0x40>
  return nbytes;
 8000f7c:	687b      	ldr	r3, [r7, #4]
}
 8000f7e:	4618      	mov	r0, r3
 8000f80:	3718      	adds	r7, #24
 8000f82:	46bd      	mov	sp, r7
 8000f84:	bd80      	pop	{r7, pc}
 8000f86:	bf00      	nop
 8000f88:	40004400 	.word	0x40004400

08000f8c <decompose_data>:

void decompose_data(uint8_t message[], uint8_t length){
 8000f8c:	b480      	push	{r7}
 8000f8e:	b085      	sub	sp, #20
 8000f90:	af00      	add	r7, sp, #0
 8000f92:	6078      	str	r0, [r7, #4]
 8000f94:	460b      	mov	r3, r1
 8000f96:	70fb      	strb	r3, [r7, #3]
	extern struct bluetooth_data data;
	data.check_sum = (message[length - 1] - ASCII_OFFSET) * 10; //48 = ASCII offset
 8000f98:	78fb      	ldrb	r3, [r7, #3]
 8000f9a:	3b01      	subs	r3, #1
 8000f9c:	687a      	ldr	r2, [r7, #4]
 8000f9e:	4413      	add	r3, r2
 8000fa0:	781b      	ldrb	r3, [r3, #0]
 8000fa2:	461a      	mov	r2, r3
 8000fa4:	0092      	lsls	r2, r2, #2
 8000fa6:	4413      	add	r3, r2
 8000fa8:	005b      	lsls	r3, r3, #1
 8000faa:	b2db      	uxtb	r3, r3
 8000fac:	3320      	adds	r3, #32
 8000fae:	b2da      	uxtb	r2, r3
 8000fb0:	4b43      	ldr	r3, [pc, #268]	; (80010c0 <decompose_data+0x134>)
 8000fb2:	70da      	strb	r2, [r3, #3]
	data.check_sum += message[length] - ASCII_OFFSET;
 8000fb4:	4b42      	ldr	r3, [pc, #264]	; (80010c0 <decompose_data+0x134>)
 8000fb6:	78da      	ldrb	r2, [r3, #3]
 8000fb8:	78fb      	ldrb	r3, [r7, #3]
 8000fba:	6879      	ldr	r1, [r7, #4]
 8000fbc:	440b      	add	r3, r1
 8000fbe:	781b      	ldrb	r3, [r3, #0]
 8000fc0:	4413      	add	r3, r2
 8000fc2:	b2db      	uxtb	r3, r3
 8000fc4:	3b30      	subs	r3, #48	; 0x30
 8000fc6:	b2da      	uxtb	r2, r3
 8000fc8:	4b3d      	ldr	r3, [pc, #244]	; (80010c0 <decompose_data+0x134>)
 8000fca:	70da      	strb	r2, [r3, #3]
	uint8_t sum = 0;
 8000fcc:	2300      	movs	r3, #0
 8000fce:	73fb      	strb	r3, [r7, #15]
	for(int i = 0; i < length - 1; ++i){
 8000fd0:	2300      	movs	r3, #0
 8000fd2:	60bb      	str	r3, [r7, #8]
 8000fd4:	e00b      	b.n	8000fee <decompose_data+0x62>
		sum += message[i] - ASCII_OFFSET;
 8000fd6:	68bb      	ldr	r3, [r7, #8]
 8000fd8:	687a      	ldr	r2, [r7, #4]
 8000fda:	4413      	add	r3, r2
 8000fdc:	781a      	ldrb	r2, [r3, #0]
 8000fde:	7bfb      	ldrb	r3, [r7, #15]
 8000fe0:	4413      	add	r3, r2
 8000fe2:	b2db      	uxtb	r3, r3
 8000fe4:	3b30      	subs	r3, #48	; 0x30
 8000fe6:	73fb      	strb	r3, [r7, #15]
	for(int i = 0; i < length - 1; ++i){
 8000fe8:	68bb      	ldr	r3, [r7, #8]
 8000fea:	3301      	adds	r3, #1
 8000fec:	60bb      	str	r3, [r7, #8]
 8000fee:	78fb      	ldrb	r3, [r7, #3]
 8000ff0:	3b01      	subs	r3, #1
 8000ff2:	68ba      	ldr	r2, [r7, #8]
 8000ff4:	429a      	cmp	r2, r3
 8000ff6:	dbee      	blt.n	8000fd6 <decompose_data+0x4a>
	}
	if(data.check_sum != sum){
 8000ff8:	4b31      	ldr	r3, [pc, #196]	; (80010c0 <decompose_data+0x134>)
 8000ffa:	78db      	ldrb	r3, [r3, #3]
 8000ffc:	7bfa      	ldrb	r2, [r7, #15]
 8000ffe:	429a      	cmp	r2, r3
 8001000:	d155      	bne.n	80010ae <decompose_data+0x122>
		return;
	}
	data.device_address = message[0] - ASCII_OFFSET;
 8001002:	687b      	ldr	r3, [r7, #4]
 8001004:	781b      	ldrb	r3, [r3, #0]
 8001006:	3b30      	subs	r3, #48	; 0x30
 8001008:	b2da      	uxtb	r2, r3
 800100a:	4b2d      	ldr	r3, [pc, #180]	; (80010c0 <decompose_data+0x134>)
 800100c:	701a      	strb	r2, [r3, #0]

	if(data.device_address == 1){
 800100e:	4b2c      	ldr	r3, [pc, #176]	; (80010c0 <decompose_data+0x134>)
 8001010:	781b      	ldrb	r3, [r3, #0]
 8001012:	2b01      	cmp	r3, #1
 8001014:	d122      	bne.n	800105c <decompose_data+0xd0>
		data.value1 = (message[1] - ASCII_OFFSET) * 10 + message[2] - ASCII_OFFSET;
 8001016:	687b      	ldr	r3, [r7, #4]
 8001018:	3301      	adds	r3, #1
 800101a:	781b      	ldrb	r3, [r3, #0]
 800101c:	461a      	mov	r2, r3
 800101e:	0092      	lsls	r2, r2, #2
 8001020:	4413      	add	r3, r2
 8001022:	005b      	lsls	r3, r3, #1
 8001024:	b2da      	uxtb	r2, r3
 8001026:	687b      	ldr	r3, [r7, #4]
 8001028:	3302      	adds	r3, #2
 800102a:	781b      	ldrb	r3, [r3, #0]
 800102c:	4413      	add	r3, r2
 800102e:	b2db      	uxtb	r3, r3
 8001030:	3b10      	subs	r3, #16
 8001032:	b2da      	uxtb	r2, r3
 8001034:	4b22      	ldr	r3, [pc, #136]	; (80010c0 <decompose_data+0x134>)
 8001036:	705a      	strb	r2, [r3, #1]
		data.value2 = (message[3] - ASCII_OFFSET) * 10 + message[4] - ASCII_OFFSET;
 8001038:	687b      	ldr	r3, [r7, #4]
 800103a:	3303      	adds	r3, #3
 800103c:	781b      	ldrb	r3, [r3, #0]
 800103e:	461a      	mov	r2, r3
 8001040:	0092      	lsls	r2, r2, #2
 8001042:	4413      	add	r3, r2
 8001044:	005b      	lsls	r3, r3, #1
 8001046:	b2da      	uxtb	r2, r3
 8001048:	687b      	ldr	r3, [r7, #4]
 800104a:	3304      	adds	r3, #4
 800104c:	781b      	ldrb	r3, [r3, #0]
 800104e:	4413      	add	r3, r2
 8001050:	b2db      	uxtb	r3, r3
 8001052:	3b10      	subs	r3, #16
 8001054:	b2da      	uxtb	r2, r3
 8001056:	4b1a      	ldr	r3, [pc, #104]	; (80010c0 <decompose_data+0x134>)
 8001058:	709a      	strb	r2, [r3, #2]
 800105a:	e024      	b.n	80010a6 <decompose_data+0x11a>
	}
	else if(data.device_address == 2){
 800105c:	4b18      	ldr	r3, [pc, #96]	; (80010c0 <decompose_data+0x134>)
 800105e:	781b      	ldrb	r3, [r3, #0]
 8001060:	2b02      	cmp	r3, #2
 8001062:	d10e      	bne.n	8001082 <decompose_data+0xf6>
		data.value1 = message[1] - ASCII_OFFSET;
 8001064:	687b      	ldr	r3, [r7, #4]
 8001066:	3301      	adds	r3, #1
 8001068:	781b      	ldrb	r3, [r3, #0]
 800106a:	3b30      	subs	r3, #48	; 0x30
 800106c:	b2da      	uxtb	r2, r3
 800106e:	4b14      	ldr	r3, [pc, #80]	; (80010c0 <decompose_data+0x134>)
 8001070:	705a      	strb	r2, [r3, #1]
		data.value2 = message[2] - ASCII_OFFSET;
 8001072:	687b      	ldr	r3, [r7, #4]
 8001074:	3302      	adds	r3, #2
 8001076:	781b      	ldrb	r3, [r3, #0]
 8001078:	3b30      	subs	r3, #48	; 0x30
 800107a:	b2da      	uxtb	r2, r3
 800107c:	4b10      	ldr	r3, [pc, #64]	; (80010c0 <decompose_data+0x134>)
 800107e:	709a      	strb	r2, [r3, #2]
 8001080:	e011      	b.n	80010a6 <decompose_data+0x11a>
	}
	else if(data.device_address == 3){
 8001082:	4b0f      	ldr	r3, [pc, #60]	; (80010c0 <decompose_data+0x134>)
 8001084:	781b      	ldrb	r3, [r3, #0]
 8001086:	2b03      	cmp	r3, #3
 8001088:	d113      	bne.n	80010b2 <decompose_data+0x126>
		data.value1 = message[1] - ASCII_OFFSET;
 800108a:	687b      	ldr	r3, [r7, #4]
 800108c:	3301      	adds	r3, #1
 800108e:	781b      	ldrb	r3, [r3, #0]
 8001090:	3b30      	subs	r3, #48	; 0x30
 8001092:	b2da      	uxtb	r2, r3
 8001094:	4b0a      	ldr	r3, [pc, #40]	; (80010c0 <decompose_data+0x134>)
 8001096:	705a      	strb	r2, [r3, #1]
		data.value2 = message[2] - ASCII_OFFSET;
 8001098:	687b      	ldr	r3, [r7, #4]
 800109a:	3302      	adds	r3, #2
 800109c:	781b      	ldrb	r3, [r3, #0]
 800109e:	3b30      	subs	r3, #48	; 0x30
 80010a0:	b2da      	uxtb	r2, r3
 80010a2:	4b07      	ldr	r3, [pc, #28]	; (80010c0 <decompose_data+0x134>)
 80010a4:	709a      	strb	r2, [r3, #2]
	}
	else {
		return;
	}
	data.flag = 1;
 80010a6:	4b06      	ldr	r3, [pc, #24]	; (80010c0 <decompose_data+0x134>)
 80010a8:	2201      	movs	r2, #1
 80010aa:	711a      	strb	r2, [r3, #4]
 80010ac:	e002      	b.n	80010b4 <decompose_data+0x128>
		return;
 80010ae:	bf00      	nop
 80010b0:	e000      	b.n	80010b4 <decompose_data+0x128>
		return;
 80010b2:	bf00      	nop
}
 80010b4:	3714      	adds	r7, #20
 80010b6:	46bd      	mov	sp, r7
 80010b8:	f85d 7b04 	ldr.w	r7, [sp], #4
 80010bc:	4770      	bx	lr
 80010be:	bf00      	nop
 80010c0:	200000b4 	.word	0x200000b4

080010c4 <usart_append>:


static void usart_append(uint8_t value){
 80010c4:	b580      	push	{r7, lr}
 80010c6:	b082      	sub	sp, #8
 80010c8:	af00      	add	r7, sp, #0
 80010ca:	4603      	mov	r3, r0
 80010cc:	71fb      	strb	r3, [r7, #7]

	static char line_buffer_usart[LINE_MAX_LENGTH + 1];
	static uint8_t line_length_usart = 0;

	if(value == '\r')
 80010ce:	79fb      	ldrb	r3, [r7, #7]
 80010d0:	2b0d      	cmp	r3, #13
 80010d2:	d02f      	beq.n	8001134 <usart_append+0x70>
		return;

	if(value == '\n'){
 80010d4:	79fb      	ldrb	r3, [r7, #7]
 80010d6:	2b0a      	cmp	r3, #10
 80010d8:	d11a      	bne.n	8001110 <usart_append+0x4c>
		line_buffer_usart[line_length_usart] = '\0';
 80010da:	4b18      	ldr	r3, [pc, #96]	; (800113c <usart_append+0x78>)
 80010dc:	781b      	ldrb	r3, [r3, #0]
 80010de:	461a      	mov	r2, r3
 80010e0:	4b17      	ldr	r3, [pc, #92]	; (8001140 <usart_append+0x7c>)
 80010e2:	2100      	movs	r1, #0
 80010e4:	5499      	strb	r1, [r3, r2]
		printf("Received: %s\r\n", line_buffer_usart);
 80010e6:	4916      	ldr	r1, [pc, #88]	; (8001140 <usart_append+0x7c>)
 80010e8:	4816      	ldr	r0, [pc, #88]	; (8001144 <usart_append+0x80>)
 80010ea:	f003 fb91 	bl	8004810 <iprintf>
		decompose_data((uint8_t*)line_buffer_usart, line_length_usart-1);
 80010ee:	4b13      	ldr	r3, [pc, #76]	; (800113c <usart_append+0x78>)
 80010f0:	781b      	ldrb	r3, [r3, #0]
 80010f2:	3b01      	subs	r3, #1
 80010f4:	b2db      	uxtb	r3, r3
 80010f6:	4619      	mov	r1, r3
 80010f8:	4811      	ldr	r0, [pc, #68]	; (8001140 <usart_append+0x7c>)
 80010fa:	f7ff ff47 	bl	8000f8c <decompose_data>
		memset(line_buffer_usart, '\0', LINE_MAX_LENGTH);
 80010fe:	2232      	movs	r2, #50	; 0x32
 8001100:	2100      	movs	r1, #0
 8001102:	480f      	ldr	r0, [pc, #60]	; (8001140 <usart_append+0x7c>)
 8001104:	f003 fbd9 	bl	80048ba <memset>
		line_length_usart = 0;
 8001108:	4b0c      	ldr	r3, [pc, #48]	; (800113c <usart_append+0x78>)
 800110a:	2200      	movs	r2, #0
 800110c:	701a      	strb	r2, [r3, #0]
 800110e:	e012      	b.n	8001136 <usart_append+0x72>
	}
	else
	{
		if (line_length_usart >= LINE_MAX_LENGTH) {
 8001110:	4b0a      	ldr	r3, [pc, #40]	; (800113c <usart_append+0x78>)
 8001112:	781b      	ldrb	r3, [r3, #0]
 8001114:	2b31      	cmp	r3, #49	; 0x31
 8001116:	d902      	bls.n	800111e <usart_append+0x5a>
			line_length_usart = 0;
 8001118:	4b08      	ldr	r3, [pc, #32]	; (800113c <usart_append+0x78>)
 800111a:	2200      	movs	r2, #0
 800111c:	701a      	strb	r2, [r3, #0]
		}
		line_buffer_usart[line_length_usart++] = value;
 800111e:	4b07      	ldr	r3, [pc, #28]	; (800113c <usart_append+0x78>)
 8001120:	781b      	ldrb	r3, [r3, #0]
 8001122:	1c5a      	adds	r2, r3, #1
 8001124:	b2d1      	uxtb	r1, r2
 8001126:	4a05      	ldr	r2, [pc, #20]	; (800113c <usart_append+0x78>)
 8001128:	7011      	strb	r1, [r2, #0]
 800112a:	4619      	mov	r1, r3
 800112c:	4a04      	ldr	r2, [pc, #16]	; (8001140 <usart_append+0x7c>)
 800112e:	79fb      	ldrb	r3, [r7, #7]
 8001130:	5453      	strb	r3, [r2, r1]
 8001132:	e000      	b.n	8001136 <usart_append+0x72>
		return;
 8001134:	bf00      	nop
	}
}
 8001136:	3708      	adds	r7, #8
 8001138:	46bd      	mov	sp, r7
 800113a:	bd80      	pop	{r7, pc}
 800113c:	2000007c 	.word	0x2000007c
 8001140:	20000080 	.word	0x20000080
 8001144:	08006658 	.word	0x08006658

08001148 <USART1_IRQHandler>:
	num_of_byte = 0;
}


void USART1_IRQHandler(void)
{
 8001148:	b580      	push	{r7, lr}
 800114a:	b082      	sub	sp, #8
 800114c:	af00      	add	r7, sp, #0
	uint8_t received_byte;
	if(LL_USART_IsActiveFlag_RXNE(USART1))
 800114e:	4809      	ldr	r0, [pc, #36]	; (8001174 <USART1_IRQHandler+0x2c>)
 8001150:	f7ff fe76 	bl	8000e40 <LL_USART_IsActiveFlag_RXNE>
 8001154:	4603      	mov	r3, r0
 8001156:	2b00      	cmp	r3, #0
 8001158:	d008      	beq.n	800116c <USART1_IRQHandler+0x24>
	{
	  received_byte = LL_USART_ReceiveData8(USART1);
 800115a:	4806      	ldr	r0, [pc, #24]	; (8001174 <USART1_IRQHandler+0x2c>)
 800115c:	f7ff feca 	bl	8000ef4 <LL_USART_ReceiveData8>
 8001160:	4603      	mov	r3, r0
 8001162:	71fb      	strb	r3, [r7, #7]
	  usart_append(received_byte);
 8001164:	79fb      	ldrb	r3, [r7, #7]
 8001166:	4618      	mov	r0, r3
 8001168:	f7ff ffac 	bl	80010c4 <usart_append>
	}
}
 800116c:	bf00      	nop
 800116e:	3708      	adds	r7, #8
 8001170:	46bd      	mov	sp, r7
 8001172:	bd80      	pop	{r7, pc}
 8001174:	40013800 	.word	0x40013800

08001178 <usart1_init>:

void usart1_init(void){
 8001178:	b580      	push	{r7, lr}
 800117a:	b08e      	sub	sp, #56	; 0x38
 800117c:	af00      	add	r7, sp, #0

  LL_USART_InitTypeDef USART_InitStruct = {0};
 800117e:	f107 031c 	add.w	r3, r7, #28
 8001182:	2200      	movs	r2, #0
 8001184:	601a      	str	r2, [r3, #0]
 8001186:	605a      	str	r2, [r3, #4]
 8001188:	609a      	str	r2, [r3, #8]
 800118a:	60da      	str	r2, [r3, #12]
 800118c:	611a      	str	r2, [r3, #16]
 800118e:	615a      	str	r2, [r3, #20]
 8001190:	619a      	str	r2, [r3, #24]
  LL_GPIO_InitTypeDef GPIO_InitStruct = {0};
 8001192:	1d3b      	adds	r3, r7, #4
 8001194:	2200      	movs	r2, #0
 8001196:	601a      	str	r2, [r3, #0]
 8001198:	605a      	str	r2, [r3, #4]
 800119a:	609a      	str	r2, [r3, #8]
 800119c:	60da      	str	r2, [r3, #12]
 800119e:	611a      	str	r2, [r3, #16]
 80011a0:	615a      	str	r2, [r3, #20]

  LL_RCC_SetUSARTClockSource(LL_RCC_USART1_CLKSOURCE_PCLK2);
 80011a2:	f44f 3040 	mov.w	r0, #196608	; 0x30000
 80011a6:	f7ff fddb 	bl	8000d60 <LL_RCC_SetUSARTClockSource>
  LL_APB2_GRP1_EnableClock(LL_APB2_GRP1_PERIPH_USART1);
 80011aa:	f44f 4080 	mov.w	r0, #16384	; 0x4000
 80011ae:	f7ff fe09 	bl	8000dc4 <LL_APB2_GRP1_EnableClock>
  LL_AHB2_GRP1_EnableClock(LL_AHB2_GRP1_PERIPH_GPIOA);
 80011b2:	2001      	movs	r0, #1
 80011b4:	f7ff fdee 	bl	8000d94 <LL_AHB2_GRP1_EnableClock>
  LL_AHB2_GRP1_EnableClock(LL_AHB2_GRP1_PERIPH_GPIOB);
 80011b8:	2002      	movs	r0, #2
 80011ba:	f7ff fdeb 	bl	8000d94 <LL_AHB2_GRP1_EnableClock>

  GPIO_InitStruct.Pin = LL_GPIO_PIN_10;
 80011be:	f44f 6380 	mov.w	r3, #1024	; 0x400
 80011c2:	607b      	str	r3, [r7, #4]
  GPIO_InitStruct.Mode = LL_GPIO_MODE_ALTERNATE;
 80011c4:	2302      	movs	r3, #2
 80011c6:	60bb      	str	r3, [r7, #8]
  GPIO_InitStruct.Speed = LL_GPIO_SPEED_FREQ_VERY_HIGH;
 80011c8:	2303      	movs	r3, #3
 80011ca:	60fb      	str	r3, [r7, #12]
  GPIO_InitStruct.OutputType = LL_GPIO_OUTPUT_PUSHPULL;
 80011cc:	2300      	movs	r3, #0
 80011ce:	613b      	str	r3, [r7, #16]
  GPIO_InitStruct.Pull = LL_GPIO_PULL_NO;
 80011d0:	2300      	movs	r3, #0
 80011d2:	617b      	str	r3, [r7, #20]
  GPIO_InitStruct.Alternate = LL_GPIO_AF_7;
 80011d4:	2307      	movs	r3, #7
 80011d6:	61bb      	str	r3, [r7, #24]
  LL_GPIO_Init(GPIOA, &GPIO_InitStruct);
 80011d8:	1d3b      	adds	r3, r7, #4
 80011da:	4619      	mov	r1, r3
 80011dc:	f04f 4090 	mov.w	r0, #1207959552	; 0x48000000
 80011e0:	f002 f8c4 	bl	800336c <LL_GPIO_Init>

  GPIO_InitStruct.Pin = LL_GPIO_PIN_6;
 80011e4:	2340      	movs	r3, #64	; 0x40
 80011e6:	607b      	str	r3, [r7, #4]
  GPIO_InitStruct.Mode = LL_GPIO_MODE_ALTERNATE;
 80011e8:	2302      	movs	r3, #2
 80011ea:	60bb      	str	r3, [r7, #8]
  GPIO_InitStruct.Speed = LL_GPIO_SPEED_FREQ_VERY_HIGH;
 80011ec:	2303      	movs	r3, #3
 80011ee:	60fb      	str	r3, [r7, #12]
  GPIO_InitStruct.OutputType = LL_GPIO_OUTPUT_PUSHPULL;
 80011f0:	2300      	movs	r3, #0
 80011f2:	613b      	str	r3, [r7, #16]
  GPIO_InitStruct.Pull = LL_GPIO_PULL_NO;
 80011f4:	2300      	movs	r3, #0
 80011f6:	617b      	str	r3, [r7, #20]
  GPIO_InitStruct.Alternate = LL_GPIO_AF_7;
 80011f8:	2307      	movs	r3, #7
 80011fa:	61bb      	str	r3, [r7, #24]
  LL_GPIO_Init(GPIOB, &GPIO_InitStruct);
 80011fc:	1d3b      	adds	r3, r7, #4
 80011fe:	4619      	mov	r1, r3
 8001200:	481a      	ldr	r0, [pc, #104]	; (800126c <usart1_init+0xf4>)
 8001202:	f002 f8b3 	bl	800336c <LL_GPIO_Init>

  NVIC_SetPriority(USART1_IRQn, NVIC_EncodePriority(NVIC_GetPriorityGrouping(),0, 0));
 8001206:	f7ff fd21 	bl	8000c4c <__NVIC_GetPriorityGrouping>
 800120a:	4603      	mov	r3, r0
 800120c:	2200      	movs	r2, #0
 800120e:	2100      	movs	r1, #0
 8001210:	4618      	mov	r0, r3
 8001212:	f7ff fd71 	bl	8000cf8 <NVIC_EncodePriority>
 8001216:	4603      	mov	r3, r0
 8001218:	4619      	mov	r1, r3
 800121a:	2025      	movs	r0, #37	; 0x25
 800121c:	f7ff fd42 	bl	8000ca4 <__NVIC_SetPriority>
  NVIC_EnableIRQ(USART1_IRQn);
 8001220:	2025      	movs	r0, #37	; 0x25
 8001222:	f7ff fd21 	bl	8000c68 <__NVIC_EnableIRQ>

  USART_InitStruct.BaudRate = 9600;
 8001226:	f44f 5316 	mov.w	r3, #9600	; 0x2580
 800122a:	61fb      	str	r3, [r7, #28]
  USART_InitStruct.DataWidth = LL_USART_DATAWIDTH_8B;
 800122c:	2300      	movs	r3, #0
 800122e:	623b      	str	r3, [r7, #32]
  USART_InitStruct.StopBits = LL_USART_STOPBITS_1;
 8001230:	2300      	movs	r3, #0
 8001232:	627b      	str	r3, [r7, #36]	; 0x24
  USART_InitStruct.Parity = LL_USART_PARITY_NONE;
 8001234:	2300      	movs	r3, #0
 8001236:	62bb      	str	r3, [r7, #40]	; 0x28
  USART_InitStruct.TransferDirection = LL_USART_DIRECTION_TX_RX;
 8001238:	230c      	movs	r3, #12
 800123a:	62fb      	str	r3, [r7, #44]	; 0x2c
  USART_InitStruct.HardwareFlowControl = LL_USART_HWCONTROL_NONE;
 800123c:	2300      	movs	r3, #0
 800123e:	633b      	str	r3, [r7, #48]	; 0x30
  USART_InitStruct.OverSampling = LL_USART_OVERSAMPLING_16;
 8001240:	2300      	movs	r3, #0
 8001242:	637b      	str	r3, [r7, #52]	; 0x34
  LL_USART_Init(USART1, &USART_InitStruct);
 8001244:	f107 031c 	add.w	r3, r7, #28
 8001248:	4619      	mov	r1, r3
 800124a:	4809      	ldr	r0, [pc, #36]	; (8001270 <usart1_init+0xf8>)
 800124c:	f003 f96a 	bl	8004524 <LL_USART_Init>
  LL_USART_ConfigAsyncMode(USART1);
 8001250:	4807      	ldr	r0, [pc, #28]	; (8001270 <usart1_init+0xf8>)
 8001252:	f7ff fddf 	bl	8000e14 <LL_USART_ConfigAsyncMode>
  LL_USART_Enable(USART1);
 8001256:	4806      	ldr	r0, [pc, #24]	; (8001270 <usart1_init+0xf8>)
 8001258:	f7ff fdcc 	bl	8000df4 <LL_USART_Enable>
  LL_USART_EnableIT_RXNE(USART1);
 800125c:	4804      	ldr	r0, [pc, #16]	; (8001270 <usart1_init+0xf8>)
 800125e:	f7ff fe28 	bl	8000eb2 <LL_USART_EnableIT_RXNE>

}
 8001262:	bf00      	nop
 8001264:	3738      	adds	r7, #56	; 0x38
 8001266:	46bd      	mov	sp, r7
 8001268:	bd80      	pop	{r7, pc}
 800126a:	bf00      	nop
 800126c:	48000400 	.word	0x48000400
 8001270:	40013800 	.word	0x40013800

08001274 <__NVIC_GetPriorityGrouping>:
{
 8001274:	b480      	push	{r7}
 8001276:	af00      	add	r7, sp, #0
  return ((uint32_t)((SCB->AIRCR & SCB_AIRCR_PRIGROUP_Msk) >> SCB_AIRCR_PRIGROUP_Pos));
 8001278:	4b04      	ldr	r3, [pc, #16]	; (800128c <__NVIC_GetPriorityGrouping+0x18>)
 800127a:	68db      	ldr	r3, [r3, #12]
 800127c:	0a1b      	lsrs	r3, r3, #8
 800127e:	f003 0307 	and.w	r3, r3, #7
}
 8001282:	4618      	mov	r0, r3
 8001284:	46bd      	mov	sp, r7
 8001286:	f85d 7b04 	ldr.w	r7, [sp], #4
 800128a:	4770      	bx	lr
 800128c:	e000ed00 	.word	0xe000ed00

08001290 <__NVIC_EnableIRQ>:
{
 8001290:	b480      	push	{r7}
 8001292:	b083      	sub	sp, #12
 8001294:	af00      	add	r7, sp, #0
 8001296:	4603      	mov	r3, r0
 8001298:	71fb      	strb	r3, [r7, #7]
  if ((int32_t)(IRQn) >= 0)
 800129a:	f997 3007 	ldrsb.w	r3, [r7, #7]
 800129e:	2b00      	cmp	r3, #0
 80012a0:	db0b      	blt.n	80012ba <__NVIC_EnableIRQ+0x2a>
    NVIC->ISER[(((uint32_t)IRQn) >> 5UL)] = (uint32_t)(1UL << (((uint32_t)IRQn) & 0x1FUL));
 80012a2:	79fb      	ldrb	r3, [r7, #7]
 80012a4:	f003 021f 	and.w	r2, r3, #31
 80012a8:	4907      	ldr	r1, [pc, #28]	; (80012c8 <__NVIC_EnableIRQ+0x38>)
 80012aa:	f997 3007 	ldrsb.w	r3, [r7, #7]
 80012ae:	095b      	lsrs	r3, r3, #5
 80012b0:	2001      	movs	r0, #1
 80012b2:	fa00 f202 	lsl.w	r2, r0, r2
 80012b6:	f841 2023 	str.w	r2, [r1, r3, lsl #2]
}
 80012ba:	bf00      	nop
 80012bc:	370c      	adds	r7, #12
 80012be:	46bd      	mov	sp, r7
 80012c0:	f85d 7b04 	ldr.w	r7, [sp], #4
 80012c4:	4770      	bx	lr
 80012c6:	bf00      	nop
 80012c8:	e000e100 	.word	0xe000e100

080012cc <__NVIC_SetPriority>:
{
 80012cc:	b480      	push	{r7}
 80012ce:	b083      	sub	sp, #12
 80012d0:	af00      	add	r7, sp, #0
 80012d2:	4603      	mov	r3, r0
 80012d4:	6039      	str	r1, [r7, #0]
 80012d6:	71fb      	strb	r3, [r7, #7]
  if ((int32_t)(IRQn) >= 0)
 80012d8:	f997 3007 	ldrsb.w	r3, [r7, #7]
 80012dc:	2b00      	cmp	r3, #0
 80012de:	db0a      	blt.n	80012f6 <__NVIC_SetPriority+0x2a>
    NVIC->IP[((uint32_t)IRQn)]               = (uint8_t)((priority << (8U - __NVIC_PRIO_BITS)) & (uint32_t)0xFFUL);
 80012e0:	683b      	ldr	r3, [r7, #0]
 80012e2:	b2da      	uxtb	r2, r3
 80012e4:	490c      	ldr	r1, [pc, #48]	; (8001318 <__NVIC_SetPriority+0x4c>)
 80012e6:	f997 3007 	ldrsb.w	r3, [r7, #7]
 80012ea:	0112      	lsls	r2, r2, #4
 80012ec:	b2d2      	uxtb	r2, r2
 80012ee:	440b      	add	r3, r1
 80012f0:	f883 2300 	strb.w	r2, [r3, #768]	; 0x300
}
 80012f4:	e00a      	b.n	800130c <__NVIC_SetPriority+0x40>
    SCB->SHP[(((uint32_t)IRQn) & 0xFUL)-4UL] = (uint8_t)((priority << (8U - __NVIC_PRIO_BITS)) & (uint32_t)0xFFUL);
 80012f6:	683b      	ldr	r3, [r7, #0]
 80012f8:	b2da      	uxtb	r2, r3
 80012fa:	4908      	ldr	r1, [pc, #32]	; (800131c <__NVIC_SetPriority+0x50>)
 80012fc:	79fb      	ldrb	r3, [r7, #7]
 80012fe:	f003 030f 	and.w	r3, r3, #15
 8001302:	3b04      	subs	r3, #4
 8001304:	0112      	lsls	r2, r2, #4
 8001306:	b2d2      	uxtb	r2, r2
 8001308:	440b      	add	r3, r1
 800130a:	761a      	strb	r2, [r3, #24]
}
 800130c:	bf00      	nop
 800130e:	370c      	adds	r7, #12
 8001310:	46bd      	mov	sp, r7
 8001312:	f85d 7b04 	ldr.w	r7, [sp], #4
 8001316:	4770      	bx	lr
 8001318:	e000e100 	.word	0xe000e100
 800131c:	e000ed00 	.word	0xe000ed00

08001320 <NVIC_EncodePriority>:
{
 8001320:	b480      	push	{r7}
 8001322:	b089      	sub	sp, #36	; 0x24
 8001324:	af00      	add	r7, sp, #0
 8001326:	60f8      	str	r0, [r7, #12]
 8001328:	60b9      	str	r1, [r7, #8]
 800132a:	607a      	str	r2, [r7, #4]
  uint32_t PriorityGroupTmp = (PriorityGroup & (uint32_t)0x07UL);   /* only values 0..7 are used          */
 800132c:	68fb      	ldr	r3, [r7, #12]
 800132e:	f003 0307 	and.w	r3, r3, #7
 8001332:	61fb      	str	r3, [r7, #28]
  PreemptPriorityBits = ((7UL - PriorityGroupTmp) > (uint32_t)(__NVIC_PRIO_BITS)) ? (uint32_t)(__NVIC_PRIO_BITS) : (uint32_t)(7UL - PriorityGroupTmp);
 8001334:	69fb      	ldr	r3, [r7, #28]
 8001336:	f1c3 0307 	rsb	r3, r3, #7
 800133a:	2b04      	cmp	r3, #4
 800133c:	bf28      	it	cs
 800133e:	2304      	movcs	r3, #4
 8001340:	61bb      	str	r3, [r7, #24]
  SubPriorityBits     = ((PriorityGroupTmp + (uint32_t)(__NVIC_PRIO_BITS)) < (uint32_t)7UL) ? (uint32_t)0UL : (uint32_t)((PriorityGroupTmp - 7UL) + (uint32_t)(__NVIC_PRIO_BITS));
 8001342:	69fb      	ldr	r3, [r7, #28]
 8001344:	3304      	adds	r3, #4
 8001346:	2b06      	cmp	r3, #6
 8001348:	d902      	bls.n	8001350 <NVIC_EncodePriority+0x30>
 800134a:	69fb      	ldr	r3, [r7, #28]
 800134c:	3b03      	subs	r3, #3
 800134e:	e000      	b.n	8001352 <NVIC_EncodePriority+0x32>
 8001350:	2300      	movs	r3, #0
 8001352:	617b      	str	r3, [r7, #20]
           ((PreemptPriority & (uint32_t)((1UL << (PreemptPriorityBits)) - 1UL)) << SubPriorityBits) |
 8001354:	f04f 32ff 	mov.w	r2, #4294967295
 8001358:	69bb      	ldr	r3, [r7, #24]
 800135a:	fa02 f303 	lsl.w	r3, r2, r3
 800135e:	43da      	mvns	r2, r3
 8001360:	68bb      	ldr	r3, [r7, #8]
 8001362:	401a      	ands	r2, r3
 8001364:	697b      	ldr	r3, [r7, #20]
 8001366:	409a      	lsls	r2, r3
           ((SubPriority     & (uint32_t)((1UL << (SubPriorityBits    )) - 1UL)))
 8001368:	f04f 31ff 	mov.w	r1, #4294967295
 800136c:	697b      	ldr	r3, [r7, #20]
 800136e:	fa01 f303 	lsl.w	r3, r1, r3
 8001372:	43d9      	mvns	r1, r3
 8001374:	687b      	ldr	r3, [r7, #4]
 8001376:	400b      	ands	r3, r1
           ((PreemptPriority & (uint32_t)((1UL << (PreemptPriorityBits)) - 1UL)) << SubPriorityBits) |
 8001378:	4313      	orrs	r3, r2
}
 800137a:	4618      	mov	r0, r3
 800137c:	3724      	adds	r7, #36	; 0x24
 800137e:	46bd      	mov	sp, r7
 8001380:	f85d 7b04 	ldr.w	r7, [sp], #4
 8001384:	4770      	bx	lr
	...

08001388 <LL_AHB1_GRP1_EnableClock>:
{
 8001388:	b480      	push	{r7}
 800138a:	b085      	sub	sp, #20
 800138c:	af00      	add	r7, sp, #0
 800138e:	6078      	str	r0, [r7, #4]
  SET_BIT(RCC->AHB1ENR, Periphs);
 8001390:	4b08      	ldr	r3, [pc, #32]	; (80013b4 <LL_AHB1_GRP1_EnableClock+0x2c>)
 8001392:	6c9a      	ldr	r2, [r3, #72]	; 0x48
 8001394:	4907      	ldr	r1, [pc, #28]	; (80013b4 <LL_AHB1_GRP1_EnableClock+0x2c>)
 8001396:	687b      	ldr	r3, [r7, #4]
 8001398:	4313      	orrs	r3, r2
 800139a:	648b      	str	r3, [r1, #72]	; 0x48
  tmpreg = READ_BIT(RCC->AHB1ENR, Periphs);
 800139c:	4b05      	ldr	r3, [pc, #20]	; (80013b4 <LL_AHB1_GRP1_EnableClock+0x2c>)
 800139e:	6c9a      	ldr	r2, [r3, #72]	; 0x48
 80013a0:	687b      	ldr	r3, [r7, #4]
 80013a2:	4013      	ands	r3, r2
 80013a4:	60fb      	str	r3, [r7, #12]
  (void)tmpreg;
 80013a6:	68fb      	ldr	r3, [r7, #12]
}
 80013a8:	bf00      	nop
 80013aa:	3714      	adds	r7, #20
 80013ac:	46bd      	mov	sp, r7
 80013ae:	f85d 7b04 	ldr.w	r7, [sp], #4
 80013b2:	4770      	bx	lr
 80013b4:	40021000 	.word	0x40021000

080013b8 <LL_DMA_EnableChannel>:
  *         @arg @ref LL_DMA_CHANNEL_6
  *         @arg @ref LL_DMA_CHANNEL_7
  * @retval None
  */
__STATIC_INLINE void LL_DMA_EnableChannel(DMA_TypeDef *DMAx, uint32_t Channel)
{
 80013b8:	b480      	push	{r7}
 80013ba:	b085      	sub	sp, #20
 80013bc:	af00      	add	r7, sp, #0
 80013be:	6078      	str	r0, [r7, #4]
 80013c0:	6039      	str	r1, [r7, #0]
  uint32_t dma_base_addr = (uint32_t)DMAx;
 80013c2:	687b      	ldr	r3, [r7, #4]
 80013c4:	60fb      	str	r3, [r7, #12]
  SET_BIT(((DMA_Channel_TypeDef *)(dma_base_addr + CHANNEL_OFFSET_TAB[Channel]))->CCR, DMA_CCR_EN);
 80013c6:	4a0c      	ldr	r2, [pc, #48]	; (80013f8 <LL_DMA_EnableChannel+0x40>)
 80013c8:	683b      	ldr	r3, [r7, #0]
 80013ca:	4413      	add	r3, r2
 80013cc:	781b      	ldrb	r3, [r3, #0]
 80013ce:	461a      	mov	r2, r3
 80013d0:	68fb      	ldr	r3, [r7, #12]
 80013d2:	4413      	add	r3, r2
 80013d4:	681b      	ldr	r3, [r3, #0]
 80013d6:	4908      	ldr	r1, [pc, #32]	; (80013f8 <LL_DMA_EnableChannel+0x40>)
 80013d8:	683a      	ldr	r2, [r7, #0]
 80013da:	440a      	add	r2, r1
 80013dc:	7812      	ldrb	r2, [r2, #0]
 80013de:	4611      	mov	r1, r2
 80013e0:	68fa      	ldr	r2, [r7, #12]
 80013e2:	440a      	add	r2, r1
 80013e4:	f043 0301 	orr.w	r3, r3, #1
 80013e8:	6013      	str	r3, [r2, #0]
}
 80013ea:	bf00      	nop
 80013ec:	3714      	adds	r7, #20
 80013ee:	46bd      	mov	sp, r7
 80013f0:	f85d 7b04 	ldr.w	r7, [sp], #4
 80013f4:	4770      	bx	lr
 80013f6:	bf00      	nop
 80013f8:	08006668 	.word	0x08006668

080013fc <LL_DMA_DisableChannel>:
  *         @arg @ref LL_DMA_CHANNEL_6
  *         @arg @ref LL_DMA_CHANNEL_7
  * @retval None
  */
__STATIC_INLINE void LL_DMA_DisableChannel(DMA_TypeDef *DMAx, uint32_t Channel)
{
 80013fc:	b480      	push	{r7}
 80013fe:	b085      	sub	sp, #20
 8001400:	af00      	add	r7, sp, #0
 8001402:	6078      	str	r0, [r7, #4]
 8001404:	6039      	str	r1, [r7, #0]
  uint32_t dma_base_addr = (uint32_t)DMAx;
 8001406:	687b      	ldr	r3, [r7, #4]
 8001408:	60fb      	str	r3, [r7, #12]
  CLEAR_BIT(((DMA_Channel_TypeDef *)(dma_base_addr + CHANNEL_OFFSET_TAB[Channel]))->CCR, DMA_CCR_EN);
 800140a:	4a0c      	ldr	r2, [pc, #48]	; (800143c <LL_DMA_DisableChannel+0x40>)
 800140c:	683b      	ldr	r3, [r7, #0]
 800140e:	4413      	add	r3, r2
 8001410:	781b      	ldrb	r3, [r3, #0]
 8001412:	461a      	mov	r2, r3
 8001414:	68fb      	ldr	r3, [r7, #12]
 8001416:	4413      	add	r3, r2
 8001418:	681b      	ldr	r3, [r3, #0]
 800141a:	4908      	ldr	r1, [pc, #32]	; (800143c <LL_DMA_DisableChannel+0x40>)
 800141c:	683a      	ldr	r2, [r7, #0]
 800141e:	440a      	add	r2, r1
 8001420:	7812      	ldrb	r2, [r2, #0]
 8001422:	4611      	mov	r1, r2
 8001424:	68fa      	ldr	r2, [r7, #12]
 8001426:	440a      	add	r2, r1
 8001428:	f023 0301 	bic.w	r3, r3, #1
 800142c:	6013      	str	r3, [r2, #0]
}
 800142e:	bf00      	nop
 8001430:	3714      	adds	r7, #20
 8001432:	46bd      	mov	sp, r7
 8001434:	f85d 7b04 	ldr.w	r7, [sp], #4
 8001438:	4770      	bx	lr
 800143a:	bf00      	nop
 800143c:	08006668 	.word	0x08006668

08001440 <LL_DMA_SetDataTransferDirection>:
  *         @arg @ref LL_DMA_DIRECTION_MEMORY_TO_PERIPH
  *         @arg @ref LL_DMA_DIRECTION_MEMORY_TO_MEMORY
  * @retval None
  */
__STATIC_INLINE void LL_DMA_SetDataTransferDirection(DMA_TypeDef *DMAx, uint32_t Channel, uint32_t Direction)
{
 8001440:	b480      	push	{r7}
 8001442:	b087      	sub	sp, #28
 8001444:	af00      	add	r7, sp, #0
 8001446:	60f8      	str	r0, [r7, #12]
 8001448:	60b9      	str	r1, [r7, #8]
 800144a:	607a      	str	r2, [r7, #4]
  uint32_t dma_base_addr = (uint32_t)DMAx;
 800144c:	68fb      	ldr	r3, [r7, #12]
 800144e:	617b      	str	r3, [r7, #20]
  MODIFY_REG(((DMA_Channel_TypeDef *)(dma_base_addr + CHANNEL_OFFSET_TAB[Channel]))->CCR,
 8001450:	4a0e      	ldr	r2, [pc, #56]	; (800148c <LL_DMA_SetDataTransferDirection+0x4c>)
 8001452:	68bb      	ldr	r3, [r7, #8]
 8001454:	4413      	add	r3, r2
 8001456:	781b      	ldrb	r3, [r3, #0]
 8001458:	461a      	mov	r2, r3
 800145a:	697b      	ldr	r3, [r7, #20]
 800145c:	4413      	add	r3, r2
 800145e:	681b      	ldr	r3, [r3, #0]
 8001460:	f423 4380 	bic.w	r3, r3, #16384	; 0x4000
 8001464:	f023 0310 	bic.w	r3, r3, #16
 8001468:	4908      	ldr	r1, [pc, #32]	; (800148c <LL_DMA_SetDataTransferDirection+0x4c>)
 800146a:	68ba      	ldr	r2, [r7, #8]
 800146c:	440a      	add	r2, r1
 800146e:	7812      	ldrb	r2, [r2, #0]
 8001470:	4611      	mov	r1, r2
 8001472:	697a      	ldr	r2, [r7, #20]
 8001474:	440a      	add	r2, r1
 8001476:	4611      	mov	r1, r2
 8001478:	687a      	ldr	r2, [r7, #4]
 800147a:	4313      	orrs	r3, r2
 800147c:	600b      	str	r3, [r1, #0]
             DMA_CCR_DIR | DMA_CCR_MEM2MEM, Direction);
}
 800147e:	bf00      	nop
 8001480:	371c      	adds	r7, #28
 8001482:	46bd      	mov	sp, r7
 8001484:	f85d 7b04 	ldr.w	r7, [sp], #4
 8001488:	4770      	bx	lr
 800148a:	bf00      	nop
 800148c:	08006668 	.word	0x08006668

08001490 <LL_DMA_SetMode>:
  *         @arg @ref LL_DMA_MODE_NORMAL
  *         @arg @ref LL_DMA_MODE_CIRCULAR
  * @retval None
  */
__STATIC_INLINE void LL_DMA_SetMode(DMA_TypeDef *DMAx, uint32_t Channel, uint32_t Mode)
{
 8001490:	b480      	push	{r7}
 8001492:	b087      	sub	sp, #28
 8001494:	af00      	add	r7, sp, #0
 8001496:	60f8      	str	r0, [r7, #12]
 8001498:	60b9      	str	r1, [r7, #8]
 800149a:	607a      	str	r2, [r7, #4]
  uint32_t dma_base_addr = (uint32_t)DMAx;
 800149c:	68fb      	ldr	r3, [r7, #12]
 800149e:	617b      	str	r3, [r7, #20]
  MODIFY_REG(((DMA_Channel_TypeDef *)(dma_base_addr + CHANNEL_OFFSET_TAB[Channel]))->CCR, DMA_CCR_CIRC,
 80014a0:	4a0d      	ldr	r2, [pc, #52]	; (80014d8 <LL_DMA_SetMode+0x48>)
 80014a2:	68bb      	ldr	r3, [r7, #8]
 80014a4:	4413      	add	r3, r2
 80014a6:	781b      	ldrb	r3, [r3, #0]
 80014a8:	461a      	mov	r2, r3
 80014aa:	697b      	ldr	r3, [r7, #20]
 80014ac:	4413      	add	r3, r2
 80014ae:	681b      	ldr	r3, [r3, #0]
 80014b0:	f023 0220 	bic.w	r2, r3, #32
 80014b4:	4908      	ldr	r1, [pc, #32]	; (80014d8 <LL_DMA_SetMode+0x48>)
 80014b6:	68bb      	ldr	r3, [r7, #8]
 80014b8:	440b      	add	r3, r1
 80014ba:	781b      	ldrb	r3, [r3, #0]
 80014bc:	4619      	mov	r1, r3
 80014be:	697b      	ldr	r3, [r7, #20]
 80014c0:	440b      	add	r3, r1
 80014c2:	4619      	mov	r1, r3
 80014c4:	687b      	ldr	r3, [r7, #4]
 80014c6:	4313      	orrs	r3, r2
 80014c8:	600b      	str	r3, [r1, #0]
             Mode);
}
 80014ca:	bf00      	nop
 80014cc:	371c      	adds	r7, #28
 80014ce:	46bd      	mov	sp, r7
 80014d0:	f85d 7b04 	ldr.w	r7, [sp], #4
 80014d4:	4770      	bx	lr
 80014d6:	bf00      	nop
 80014d8:	08006668 	.word	0x08006668

080014dc <LL_DMA_SetPeriphIncMode>:
  *         @arg @ref LL_DMA_PERIPH_INCREMENT
  *         @arg @ref LL_DMA_PERIPH_NOINCREMENT
  * @retval None
  */
__STATIC_INLINE void LL_DMA_SetPeriphIncMode(DMA_TypeDef *DMAx, uint32_t Channel, uint32_t PeriphOrM2MSrcIncMode)
{
 80014dc:	b480      	push	{r7}
 80014de:	b087      	sub	sp, #28
 80014e0:	af00      	add	r7, sp, #0
 80014e2:	60f8      	str	r0, [r7, #12]
 80014e4:	60b9      	str	r1, [r7, #8]
 80014e6:	607a      	str	r2, [r7, #4]
  uint32_t dma_base_addr = (uint32_t)DMAx;
 80014e8:	68fb      	ldr	r3, [r7, #12]
 80014ea:	617b      	str	r3, [r7, #20]
  MODIFY_REG(((DMA_Channel_TypeDef *)(dma_base_addr + CHANNEL_OFFSET_TAB[Channel]))->CCR, DMA_CCR_PINC,
 80014ec:	4a0d      	ldr	r2, [pc, #52]	; (8001524 <LL_DMA_SetPeriphIncMode+0x48>)
 80014ee:	68bb      	ldr	r3, [r7, #8]
 80014f0:	4413      	add	r3, r2
 80014f2:	781b      	ldrb	r3, [r3, #0]
 80014f4:	461a      	mov	r2, r3
 80014f6:	697b      	ldr	r3, [r7, #20]
 80014f8:	4413      	add	r3, r2
 80014fa:	681b      	ldr	r3, [r3, #0]
 80014fc:	f023 0240 	bic.w	r2, r3, #64	; 0x40
 8001500:	4908      	ldr	r1, [pc, #32]	; (8001524 <LL_DMA_SetPeriphIncMode+0x48>)
 8001502:	68bb      	ldr	r3, [r7, #8]
 8001504:	440b      	add	r3, r1
 8001506:	781b      	ldrb	r3, [r3, #0]
 8001508:	4619      	mov	r1, r3
 800150a:	697b      	ldr	r3, [r7, #20]
 800150c:	440b      	add	r3, r1
 800150e:	4619      	mov	r1, r3
 8001510:	687b      	ldr	r3, [r7, #4]
 8001512:	4313      	orrs	r3, r2
 8001514:	600b      	str	r3, [r1, #0]
             PeriphOrM2MSrcIncMode);
}
 8001516:	bf00      	nop
 8001518:	371c      	adds	r7, #28
 800151a:	46bd      	mov	sp, r7
 800151c:	f85d 7b04 	ldr.w	r7, [sp], #4
 8001520:	4770      	bx	lr
 8001522:	bf00      	nop
 8001524:	08006668 	.word	0x08006668

08001528 <LL_DMA_SetMemoryIncMode>:
  *         @arg @ref LL_DMA_MEMORY_INCREMENT
  *         @arg @ref LL_DMA_MEMORY_NOINCREMENT
  * @retval None
  */
__STATIC_INLINE void LL_DMA_SetMemoryIncMode(DMA_TypeDef *DMAx, uint32_t Channel, uint32_t MemoryOrM2MDstIncMode)
{
 8001528:	b480      	push	{r7}
 800152a:	b087      	sub	sp, #28
 800152c:	af00      	add	r7, sp, #0
 800152e:	60f8      	str	r0, [r7, #12]
 8001530:	60b9      	str	r1, [r7, #8]
 8001532:	607a      	str	r2, [r7, #4]
  uint32_t dma_base_addr = (uint32_t)DMAx;
 8001534:	68fb      	ldr	r3, [r7, #12]
 8001536:	617b      	str	r3, [r7, #20]
  MODIFY_REG(((DMA_Channel_TypeDef *)(dma_base_addr + CHANNEL_OFFSET_TAB[Channel]))->CCR, DMA_CCR_MINC,
 8001538:	4a0d      	ldr	r2, [pc, #52]	; (8001570 <LL_DMA_SetMemoryIncMode+0x48>)
 800153a:	68bb      	ldr	r3, [r7, #8]
 800153c:	4413      	add	r3, r2
 800153e:	781b      	ldrb	r3, [r3, #0]
 8001540:	461a      	mov	r2, r3
 8001542:	697b      	ldr	r3, [r7, #20]
 8001544:	4413      	add	r3, r2
 8001546:	681b      	ldr	r3, [r3, #0]
 8001548:	f023 0280 	bic.w	r2, r3, #128	; 0x80
 800154c:	4908      	ldr	r1, [pc, #32]	; (8001570 <LL_DMA_SetMemoryIncMode+0x48>)
 800154e:	68bb      	ldr	r3, [r7, #8]
 8001550:	440b      	add	r3, r1
 8001552:	781b      	ldrb	r3, [r3, #0]
 8001554:	4619      	mov	r1, r3
 8001556:	697b      	ldr	r3, [r7, #20]
 8001558:	440b      	add	r3, r1
 800155a:	4619      	mov	r1, r3
 800155c:	687b      	ldr	r3, [r7, #4]
 800155e:	4313      	orrs	r3, r2
 8001560:	600b      	str	r3, [r1, #0]
             MemoryOrM2MDstIncMode);
}
 8001562:	bf00      	nop
 8001564:	371c      	adds	r7, #28
 8001566:	46bd      	mov	sp, r7
 8001568:	f85d 7b04 	ldr.w	r7, [sp], #4
 800156c:	4770      	bx	lr
 800156e:	bf00      	nop
 8001570:	08006668 	.word	0x08006668

08001574 <LL_DMA_SetPeriphSize>:
  *         @arg @ref LL_DMA_PDATAALIGN_HALFWORD
  *         @arg @ref LL_DMA_PDATAALIGN_WORD
  * @retval None
  */
__STATIC_INLINE void LL_DMA_SetPeriphSize(DMA_TypeDef *DMAx, uint32_t Channel, uint32_t PeriphOrM2MSrcDataSize)
{
 8001574:	b480      	push	{r7}
 8001576:	b087      	sub	sp, #28
 8001578:	af00      	add	r7, sp, #0
 800157a:	60f8      	str	r0, [r7, #12]
 800157c:	60b9      	str	r1, [r7, #8]
 800157e:	607a      	str	r2, [r7, #4]
  uint32_t dma_base_addr = (uint32_t)DMAx;
 8001580:	68fb      	ldr	r3, [r7, #12]
 8001582:	617b      	str	r3, [r7, #20]
  MODIFY_REG(((DMA_Channel_TypeDef *)(dma_base_addr + CHANNEL_OFFSET_TAB[Channel]))->CCR, DMA_CCR_PSIZE,
 8001584:	4a0d      	ldr	r2, [pc, #52]	; (80015bc <LL_DMA_SetPeriphSize+0x48>)
 8001586:	68bb      	ldr	r3, [r7, #8]
 8001588:	4413      	add	r3, r2
 800158a:	781b      	ldrb	r3, [r3, #0]
 800158c:	461a      	mov	r2, r3
 800158e:	697b      	ldr	r3, [r7, #20]
 8001590:	4413      	add	r3, r2
 8001592:	681b      	ldr	r3, [r3, #0]
 8001594:	f423 7240 	bic.w	r2, r3, #768	; 0x300
 8001598:	4908      	ldr	r1, [pc, #32]	; (80015bc <LL_DMA_SetPeriphSize+0x48>)
 800159a:	68bb      	ldr	r3, [r7, #8]
 800159c:	440b      	add	r3, r1
 800159e:	781b      	ldrb	r3, [r3, #0]
 80015a0:	4619      	mov	r1, r3
 80015a2:	697b      	ldr	r3, [r7, #20]
 80015a4:	440b      	add	r3, r1
 80015a6:	4619      	mov	r1, r3
 80015a8:	687b      	ldr	r3, [r7, #4]
 80015aa:	4313      	orrs	r3, r2
 80015ac:	600b      	str	r3, [r1, #0]
             PeriphOrM2MSrcDataSize);
}
 80015ae:	bf00      	nop
 80015b0:	371c      	adds	r7, #28
 80015b2:	46bd      	mov	sp, r7
 80015b4:	f85d 7b04 	ldr.w	r7, [sp], #4
 80015b8:	4770      	bx	lr
 80015ba:	bf00      	nop
 80015bc:	08006668 	.word	0x08006668

080015c0 <LL_DMA_SetMemorySize>:
  *         @arg @ref LL_DMA_MDATAALIGN_HALFWORD
  *         @arg @ref LL_DMA_MDATAALIGN_WORD
  * @retval None
  */
__STATIC_INLINE void LL_DMA_SetMemorySize(DMA_TypeDef *DMAx, uint32_t Channel, uint32_t MemoryOrM2MDstDataSize)
{
 80015c0:	b480      	push	{r7}
 80015c2:	b087      	sub	sp, #28
 80015c4:	af00      	add	r7, sp, #0
 80015c6:	60f8      	str	r0, [r7, #12]
 80015c8:	60b9      	str	r1, [r7, #8]
 80015ca:	607a      	str	r2, [r7, #4]
  uint32_t dma_base_addr = (uint32_t)DMAx;
 80015cc:	68fb      	ldr	r3, [r7, #12]
 80015ce:	617b      	str	r3, [r7, #20]
  MODIFY_REG(((DMA_Channel_TypeDef *)(dma_base_addr + CHANNEL_OFFSET_TAB[Channel]))->CCR, DMA_CCR_MSIZE,
 80015d0:	4a0d      	ldr	r2, [pc, #52]	; (8001608 <LL_DMA_SetMemorySize+0x48>)
 80015d2:	68bb      	ldr	r3, [r7, #8]
 80015d4:	4413      	add	r3, r2
 80015d6:	781b      	ldrb	r3, [r3, #0]
 80015d8:	461a      	mov	r2, r3
 80015da:	697b      	ldr	r3, [r7, #20]
 80015dc:	4413      	add	r3, r2
 80015de:	681b      	ldr	r3, [r3, #0]
 80015e0:	f423 6240 	bic.w	r2, r3, #3072	; 0xc00
 80015e4:	4908      	ldr	r1, [pc, #32]	; (8001608 <LL_DMA_SetMemorySize+0x48>)
 80015e6:	68bb      	ldr	r3, [r7, #8]
 80015e8:	440b      	add	r3, r1
 80015ea:	781b      	ldrb	r3, [r3, #0]
 80015ec:	4619      	mov	r1, r3
 80015ee:	697b      	ldr	r3, [r7, #20]
 80015f0:	440b      	add	r3, r1
 80015f2:	4619      	mov	r1, r3
 80015f4:	687b      	ldr	r3, [r7, #4]
 80015f6:	4313      	orrs	r3, r2
 80015f8:	600b      	str	r3, [r1, #0]
             MemoryOrM2MDstDataSize);
}
 80015fa:	bf00      	nop
 80015fc:	371c      	adds	r7, #28
 80015fe:	46bd      	mov	sp, r7
 8001600:	f85d 7b04 	ldr.w	r7, [sp], #4
 8001604:	4770      	bx	lr
 8001606:	bf00      	nop
 8001608:	08006668 	.word	0x08006668

0800160c <LL_DMA_SetChannelPriorityLevel>:
  *         @arg @ref LL_DMA_PRIORITY_HIGH
  *         @arg @ref LL_DMA_PRIORITY_VERYHIGH
  * @retval None
  */
__STATIC_INLINE void LL_DMA_SetChannelPriorityLevel(DMA_TypeDef *DMAx, uint32_t Channel, uint32_t Priority)
{
 800160c:	b480      	push	{r7}
 800160e:	b087      	sub	sp, #28
 8001610:	af00      	add	r7, sp, #0
 8001612:	60f8      	str	r0, [r7, #12]
 8001614:	60b9      	str	r1, [r7, #8]
 8001616:	607a      	str	r2, [r7, #4]
  uint32_t dma_base_addr = (uint32_t)DMAx;
 8001618:	68fb      	ldr	r3, [r7, #12]
 800161a:	617b      	str	r3, [r7, #20]
  MODIFY_REG(((DMA_Channel_TypeDef *)(dma_base_addr + CHANNEL_OFFSET_TAB[Channel]))->CCR, DMA_CCR_PL,
 800161c:	4a0d      	ldr	r2, [pc, #52]	; (8001654 <LL_DMA_SetChannelPriorityLevel+0x48>)
 800161e:	68bb      	ldr	r3, [r7, #8]
 8001620:	4413      	add	r3, r2
 8001622:	781b      	ldrb	r3, [r3, #0]
 8001624:	461a      	mov	r2, r3
 8001626:	697b      	ldr	r3, [r7, #20]
 8001628:	4413      	add	r3, r2
 800162a:	681b      	ldr	r3, [r3, #0]
 800162c:	f423 5240 	bic.w	r2, r3, #12288	; 0x3000
 8001630:	4908      	ldr	r1, [pc, #32]	; (8001654 <LL_DMA_SetChannelPriorityLevel+0x48>)
 8001632:	68bb      	ldr	r3, [r7, #8]
 8001634:	440b      	add	r3, r1
 8001636:	781b      	ldrb	r3, [r3, #0]
 8001638:	4619      	mov	r1, r3
 800163a:	697b      	ldr	r3, [r7, #20]
 800163c:	440b      	add	r3, r1
 800163e:	4619      	mov	r1, r3
 8001640:	687b      	ldr	r3, [r7, #4]
 8001642:	4313      	orrs	r3, r2
 8001644:	600b      	str	r3, [r1, #0]
             Priority);
}
 8001646:	bf00      	nop
 8001648:	371c      	adds	r7, #28
 800164a:	46bd      	mov	sp, r7
 800164c:	f85d 7b04 	ldr.w	r7, [sp], #4
 8001650:	4770      	bx	lr
 8001652:	bf00      	nop
 8001654:	08006668 	.word	0x08006668

08001658 <LL_DMA_SetDataLength>:
  *         @arg @ref LL_DMA_CHANNEL_7
  * @param  NbData Between Min_Data = 0 and Max_Data = 0x0000FFFF
  * @retval None
  */
__STATIC_INLINE void LL_DMA_SetDataLength(DMA_TypeDef *DMAx, uint32_t Channel, uint32_t NbData)
{
 8001658:	b480      	push	{r7}
 800165a:	b087      	sub	sp, #28
 800165c:	af00      	add	r7, sp, #0
 800165e:	60f8      	str	r0, [r7, #12]
 8001660:	60b9      	str	r1, [r7, #8]
 8001662:	607a      	str	r2, [r7, #4]
  uint32_t dma_base_addr = (uint32_t)DMAx;
 8001664:	68fb      	ldr	r3, [r7, #12]
 8001666:	617b      	str	r3, [r7, #20]
  MODIFY_REG(((DMA_Channel_TypeDef *)(dma_base_addr + CHANNEL_OFFSET_TAB[Channel]))->CNDTR,
 8001668:	4a0d      	ldr	r2, [pc, #52]	; (80016a0 <LL_DMA_SetDataLength+0x48>)
 800166a:	68bb      	ldr	r3, [r7, #8]
 800166c:	4413      	add	r3, r2
 800166e:	781b      	ldrb	r3, [r3, #0]
 8001670:	461a      	mov	r2, r3
 8001672:	697b      	ldr	r3, [r7, #20]
 8001674:	4413      	add	r3, r2
 8001676:	685b      	ldr	r3, [r3, #4]
 8001678:	0c1b      	lsrs	r3, r3, #16
 800167a:	041b      	lsls	r3, r3, #16
 800167c:	4908      	ldr	r1, [pc, #32]	; (80016a0 <LL_DMA_SetDataLength+0x48>)
 800167e:	68ba      	ldr	r2, [r7, #8]
 8001680:	440a      	add	r2, r1
 8001682:	7812      	ldrb	r2, [r2, #0]
 8001684:	4611      	mov	r1, r2
 8001686:	697a      	ldr	r2, [r7, #20]
 8001688:	440a      	add	r2, r1
 800168a:	4611      	mov	r1, r2
 800168c:	687a      	ldr	r2, [r7, #4]
 800168e:	4313      	orrs	r3, r2
 8001690:	604b      	str	r3, [r1, #4]
             DMA_CNDTR_NDT, NbData);
}
 8001692:	bf00      	nop
 8001694:	371c      	adds	r7, #28
 8001696:	46bd      	mov	sp, r7
 8001698:	f85d 7b04 	ldr.w	r7, [sp], #4
 800169c:	4770      	bx	lr
 800169e:	bf00      	nop
 80016a0:	08006668 	.word	0x08006668

080016a4 <LL_DMA_ConfigAddresses>:
  *         @arg @ref LL_DMA_DIRECTION_MEMORY_TO_MEMORY
  * @retval None
  */
__STATIC_INLINE void LL_DMA_ConfigAddresses(DMA_TypeDef *DMAx, uint32_t Channel, uint32_t SrcAddress,
                                            uint32_t DstAddress, uint32_t Direction)
{
 80016a4:	b480      	push	{r7}
 80016a6:	b087      	sub	sp, #28
 80016a8:	af00      	add	r7, sp, #0
 80016aa:	60f8      	str	r0, [r7, #12]
 80016ac:	60b9      	str	r1, [r7, #8]
 80016ae:	607a      	str	r2, [r7, #4]
 80016b0:	603b      	str	r3, [r7, #0]
  uint32_t dma_base_addr = (uint32_t)DMAx;
 80016b2:	68fb      	ldr	r3, [r7, #12]
 80016b4:	617b      	str	r3, [r7, #20]
  /* Direction Memory to Periph */
  if (Direction == LL_DMA_DIRECTION_MEMORY_TO_PERIPH)
 80016b6:	6a3b      	ldr	r3, [r7, #32]
 80016b8:	2b10      	cmp	r3, #16
 80016ba:	d114      	bne.n	80016e6 <LL_DMA_ConfigAddresses+0x42>
  {
    WRITE_REG(((DMA_Channel_TypeDef *)(dma_base_addr + CHANNEL_OFFSET_TAB[Channel]))->CMAR, SrcAddress);
 80016bc:	4a17      	ldr	r2, [pc, #92]	; (800171c <LL_DMA_ConfigAddresses+0x78>)
 80016be:	68bb      	ldr	r3, [r7, #8]
 80016c0:	4413      	add	r3, r2
 80016c2:	781b      	ldrb	r3, [r3, #0]
 80016c4:	461a      	mov	r2, r3
 80016c6:	697b      	ldr	r3, [r7, #20]
 80016c8:	4413      	add	r3, r2
 80016ca:	461a      	mov	r2, r3
 80016cc:	687b      	ldr	r3, [r7, #4]
 80016ce:	60d3      	str	r3, [r2, #12]
    WRITE_REG(((DMA_Channel_TypeDef *)(dma_base_addr + CHANNEL_OFFSET_TAB[Channel]))->CPAR, DstAddress);
 80016d0:	4a12      	ldr	r2, [pc, #72]	; (800171c <LL_DMA_ConfigAddresses+0x78>)
 80016d2:	68bb      	ldr	r3, [r7, #8]
 80016d4:	4413      	add	r3, r2
 80016d6:	781b      	ldrb	r3, [r3, #0]
 80016d8:	461a      	mov	r2, r3
 80016da:	697b      	ldr	r3, [r7, #20]
 80016dc:	4413      	add	r3, r2
 80016de:	461a      	mov	r2, r3
 80016e0:	683b      	ldr	r3, [r7, #0]
 80016e2:	6093      	str	r3, [r2, #8]
  else
  {
    WRITE_REG(((DMA_Channel_TypeDef *)(dma_base_addr + CHANNEL_OFFSET_TAB[Channel]))->CPAR, SrcAddress);
    WRITE_REG(((DMA_Channel_TypeDef *)(dma_base_addr + CHANNEL_OFFSET_TAB[Channel]))->CMAR, DstAddress);
  }
}
 80016e4:	e013      	b.n	800170e <LL_DMA_ConfigAddresses+0x6a>
    WRITE_REG(((DMA_Channel_TypeDef *)(dma_base_addr + CHANNEL_OFFSET_TAB[Channel]))->CPAR, SrcAddress);
 80016e6:	4a0d      	ldr	r2, [pc, #52]	; (800171c <LL_DMA_ConfigAddresses+0x78>)
 80016e8:	68bb      	ldr	r3, [r7, #8]
 80016ea:	4413      	add	r3, r2
 80016ec:	781b      	ldrb	r3, [r3, #0]
 80016ee:	461a      	mov	r2, r3
 80016f0:	697b      	ldr	r3, [r7, #20]
 80016f2:	4413      	add	r3, r2
 80016f4:	461a      	mov	r2, r3
 80016f6:	687b      	ldr	r3, [r7, #4]
 80016f8:	6093      	str	r3, [r2, #8]
    WRITE_REG(((DMA_Channel_TypeDef *)(dma_base_addr + CHANNEL_OFFSET_TAB[Channel]))->CMAR, DstAddress);
 80016fa:	4a08      	ldr	r2, [pc, #32]	; (800171c <LL_DMA_ConfigAddresses+0x78>)
 80016fc:	68bb      	ldr	r3, [r7, #8]
 80016fe:	4413      	add	r3, r2
 8001700:	781b      	ldrb	r3, [r3, #0]
 8001702:	461a      	mov	r2, r3
 8001704:	697b      	ldr	r3, [r7, #20]
 8001706:	4413      	add	r3, r2
 8001708:	461a      	mov	r2, r3
 800170a:	683b      	ldr	r3, [r7, #0]
 800170c:	60d3      	str	r3, [r2, #12]
}
 800170e:	bf00      	nop
 8001710:	371c      	adds	r7, #28
 8001712:	46bd      	mov	sp, r7
 8001714:	f85d 7b04 	ldr.w	r7, [sp], #4
 8001718:	4770      	bx	lr
 800171a:	bf00      	nop
 800171c:	08006668 	.word	0x08006668

08001720 <LL_DMA_SetPeriphRequest>:
  *         @arg @ref LL_DMA_REQUEST_6
  *         @arg @ref LL_DMA_REQUEST_7
  * @retval None
  */
__STATIC_INLINE void LL_DMA_SetPeriphRequest(DMA_TypeDef *DMAx, uint32_t Channel, uint32_t PeriphRequest)
{
 8001720:	b480      	push	{r7}
 8001722:	b089      	sub	sp, #36	; 0x24
 8001724:	af00      	add	r7, sp, #0
 8001726:	60f8      	str	r0, [r7, #12]
 8001728:	60b9      	str	r1, [r7, #8]
 800172a:	607a      	str	r2, [r7, #4]
  MODIFY_REG(((DMA_Request_TypeDef *)((uint32_t)((uint32_t)DMAx + DMA_CSELR_OFFSET)))->CSELR,
 800172c:	68fb      	ldr	r3, [r7, #12]
 800172e:	33a8      	adds	r3, #168	; 0xa8
 8001730:	681a      	ldr	r2, [r3, #0]
 8001732:	68bb      	ldr	r3, [r7, #8]
 8001734:	009b      	lsls	r3, r3, #2
 8001736:	210f      	movs	r1, #15
 8001738:	fa01 f303 	lsl.w	r3, r1, r3
 800173c:	43db      	mvns	r3, r3
 800173e:	401a      	ands	r2, r3
 8001740:	68bb      	ldr	r3, [r7, #8]
 8001742:	009b      	lsls	r3, r3, #2
 8001744:	210f      	movs	r1, #15
 8001746:	fa01 f303 	lsl.w	r3, r1, r3
 800174a:	61bb      	str	r3, [r7, #24]
   __ASM volatile ("rbit %0, %1" : "=r" (result) : "r" (value) );
 800174c:	69bb      	ldr	r3, [r7, #24]
 800174e:	fa93 f3a3 	rbit	r3, r3
 8001752:	617b      	str	r3, [r7, #20]
  return result;
 8001754:	697b      	ldr	r3, [r7, #20]
 8001756:	61fb      	str	r3, [r7, #28]
  if (value == 0U)
 8001758:	69fb      	ldr	r3, [r7, #28]
 800175a:	2b00      	cmp	r3, #0
 800175c:	d101      	bne.n	8001762 <LL_DMA_SetPeriphRequest+0x42>
    return 32U;
 800175e:	2320      	movs	r3, #32
 8001760:	e003      	b.n	800176a <LL_DMA_SetPeriphRequest+0x4a>
  return __builtin_clz(value);
 8001762:	69fb      	ldr	r3, [r7, #28]
 8001764:	fab3 f383 	clz	r3, r3
 8001768:	b2db      	uxtb	r3, r3
 800176a:	4619      	mov	r1, r3
 800176c:	687b      	ldr	r3, [r7, #4]
 800176e:	408b      	lsls	r3, r1
 8001770:	68f9      	ldr	r1, [r7, #12]
 8001772:	31a8      	adds	r1, #168	; 0xa8
 8001774:	4313      	orrs	r3, r2
 8001776:	600b      	str	r3, [r1, #0]
             DMA_CSELR_C1S << ((Channel) * 4U), PeriphRequest << DMA_POSITION_CSELR_CXS);
}
 8001778:	bf00      	nop
 800177a:	3724      	adds	r7, #36	; 0x24
 800177c:	46bd      	mov	sp, r7
 800177e:	f85d 7b04 	ldr.w	r7, [sp], #4
 8001782:	4770      	bx	lr

08001784 <LL_DMA_IsActiveFlag_TC6>:
  * @rmtoll ISR          TCIF6         LL_DMA_IsActiveFlag_TC6
  * @param  DMAx DMAx Instance
  * @retval State of bit (1 or 0).
  */
__STATIC_INLINE uint32_t LL_DMA_IsActiveFlag_TC6(DMA_TypeDef *DMAx)
{
 8001784:	b480      	push	{r7}
 8001786:	b083      	sub	sp, #12
 8001788:	af00      	add	r7, sp, #0
 800178a:	6078      	str	r0, [r7, #4]
  return ((READ_BIT(DMAx->ISR, DMA_ISR_TCIF6) == (DMA_ISR_TCIF6)) ? 1UL : 0UL);
 800178c:	687b      	ldr	r3, [r7, #4]
 800178e:	681b      	ldr	r3, [r3, #0]
 8001790:	f403 1300 	and.w	r3, r3, #2097152	; 0x200000
 8001794:	f5b3 1f00 	cmp.w	r3, #2097152	; 0x200000
 8001798:	d101      	bne.n	800179e <LL_DMA_IsActiveFlag_TC6+0x1a>
 800179a:	2301      	movs	r3, #1
 800179c:	e000      	b.n	80017a0 <LL_DMA_IsActiveFlag_TC6+0x1c>
 800179e:	2300      	movs	r3, #0
}
 80017a0:	4618      	mov	r0, r3
 80017a2:	370c      	adds	r7, #12
 80017a4:	46bd      	mov	sp, r7
 80017a6:	f85d 7b04 	ldr.w	r7, [sp], #4
 80017aa:	4770      	bx	lr

080017ac <LL_DMA_IsActiveFlag_TE6>:
  * @rmtoll ISR          TEIF6         LL_DMA_IsActiveFlag_TE6
  * @param  DMAx DMAx Instance
  * @retval State of bit (1 or 0).
  */
__STATIC_INLINE uint32_t LL_DMA_IsActiveFlag_TE6(DMA_TypeDef *DMAx)
{
 80017ac:	b480      	push	{r7}
 80017ae:	b083      	sub	sp, #12
 80017b0:	af00      	add	r7, sp, #0
 80017b2:	6078      	str	r0, [r7, #4]
  return ((READ_BIT(DMAx->ISR, DMA_ISR_TEIF6) == (DMA_ISR_TEIF6)) ? 1UL : 0UL);
 80017b4:	687b      	ldr	r3, [r7, #4]
 80017b6:	681b      	ldr	r3, [r3, #0]
 80017b8:	f403 0300 	and.w	r3, r3, #8388608	; 0x800000
 80017bc:	f5b3 0f00 	cmp.w	r3, #8388608	; 0x800000
 80017c0:	d101      	bne.n	80017c6 <LL_DMA_IsActiveFlag_TE6+0x1a>
 80017c2:	2301      	movs	r3, #1
 80017c4:	e000      	b.n	80017c8 <LL_DMA_IsActiveFlag_TE6+0x1c>
 80017c6:	2300      	movs	r3, #0
}
 80017c8:	4618      	mov	r0, r3
 80017ca:	370c      	adds	r7, #12
 80017cc:	46bd      	mov	sp, r7
 80017ce:	f85d 7b04 	ldr.w	r7, [sp], #4
 80017d2:	4770      	bx	lr

080017d4 <LL_DMA_ClearFlag_TC6>:
  * @rmtoll IFCR         CTCIF6        LL_DMA_ClearFlag_TC6
  * @param  DMAx DMAx Instance
  * @retval None
  */
__STATIC_INLINE void LL_DMA_ClearFlag_TC6(DMA_TypeDef *DMAx)
{
 80017d4:	b480      	push	{r7}
 80017d6:	b083      	sub	sp, #12
 80017d8:	af00      	add	r7, sp, #0
 80017da:	6078      	str	r0, [r7, #4]
  WRITE_REG(DMAx->IFCR, DMA_IFCR_CTCIF6);
 80017dc:	687b      	ldr	r3, [r7, #4]
 80017de:	f44f 1200 	mov.w	r2, #2097152	; 0x200000
 80017e2:	605a      	str	r2, [r3, #4]
}
 80017e4:	bf00      	nop
 80017e6:	370c      	adds	r7, #12
 80017e8:	46bd      	mov	sp, r7
 80017ea:	f85d 7b04 	ldr.w	r7, [sp], #4
 80017ee:	4770      	bx	lr

080017f0 <LL_DMA_EnableIT_TC>:
  *         @arg @ref LL_DMA_CHANNEL_6
  *         @arg @ref LL_DMA_CHANNEL_7
  * @retval None
  */
__STATIC_INLINE void LL_DMA_EnableIT_TC(DMA_TypeDef *DMAx, uint32_t Channel)
{
 80017f0:	b480      	push	{r7}
 80017f2:	b085      	sub	sp, #20
 80017f4:	af00      	add	r7, sp, #0
 80017f6:	6078      	str	r0, [r7, #4]
 80017f8:	6039      	str	r1, [r7, #0]
  uint32_t dma_base_addr = (uint32_t)DMAx;
 80017fa:	687b      	ldr	r3, [r7, #4]
 80017fc:	60fb      	str	r3, [r7, #12]
  SET_BIT(((DMA_Channel_TypeDef *)(dma_base_addr + CHANNEL_OFFSET_TAB[Channel]))->CCR, DMA_CCR_TCIE);
 80017fe:	4a0c      	ldr	r2, [pc, #48]	; (8001830 <LL_DMA_EnableIT_TC+0x40>)
 8001800:	683b      	ldr	r3, [r7, #0]
 8001802:	4413      	add	r3, r2
 8001804:	781b      	ldrb	r3, [r3, #0]
 8001806:	461a      	mov	r2, r3
 8001808:	68fb      	ldr	r3, [r7, #12]
 800180a:	4413      	add	r3, r2
 800180c:	681b      	ldr	r3, [r3, #0]
 800180e:	4908      	ldr	r1, [pc, #32]	; (8001830 <LL_DMA_EnableIT_TC+0x40>)
 8001810:	683a      	ldr	r2, [r7, #0]
 8001812:	440a      	add	r2, r1
 8001814:	7812      	ldrb	r2, [r2, #0]
 8001816:	4611      	mov	r1, r2
 8001818:	68fa      	ldr	r2, [r7, #12]
 800181a:	440a      	add	r2, r1
 800181c:	f043 0302 	orr.w	r3, r3, #2
 8001820:	6013      	str	r3, [r2, #0]
}
 8001822:	bf00      	nop
 8001824:	3714      	adds	r7, #20
 8001826:	46bd      	mov	sp, r7
 8001828:	f85d 7b04 	ldr.w	r7, [sp], #4
 800182c:	4770      	bx	lr
 800182e:	bf00      	nop
 8001830:	08006668 	.word	0x08006668

08001834 <LL_DMA_EnableIT_TE>:
  *         @arg @ref LL_DMA_CHANNEL_6
  *         @arg @ref LL_DMA_CHANNEL_7
  * @retval None
  */
__STATIC_INLINE void LL_DMA_EnableIT_TE(DMA_TypeDef *DMAx, uint32_t Channel)
{
 8001834:	b480      	push	{r7}
 8001836:	b085      	sub	sp, #20
 8001838:	af00      	add	r7, sp, #0
 800183a:	6078      	str	r0, [r7, #4]
 800183c:	6039      	str	r1, [r7, #0]
  uint32_t dma_base_addr = (uint32_t)DMAx;
 800183e:	687b      	ldr	r3, [r7, #4]
 8001840:	60fb      	str	r3, [r7, #12]
  SET_BIT(((DMA_Channel_TypeDef *)(dma_base_addr + CHANNEL_OFFSET_TAB[Channel]))->CCR, DMA_CCR_TEIE);
 8001842:	4a0c      	ldr	r2, [pc, #48]	; (8001874 <LL_DMA_EnableIT_TE+0x40>)
 8001844:	683b      	ldr	r3, [r7, #0]
 8001846:	4413      	add	r3, r2
 8001848:	781b      	ldrb	r3, [r3, #0]
 800184a:	461a      	mov	r2, r3
 800184c:	68fb      	ldr	r3, [r7, #12]
 800184e:	4413      	add	r3, r2
 8001850:	681b      	ldr	r3, [r3, #0]
 8001852:	4908      	ldr	r1, [pc, #32]	; (8001874 <LL_DMA_EnableIT_TE+0x40>)
 8001854:	683a      	ldr	r2, [r7, #0]
 8001856:	440a      	add	r2, r1
 8001858:	7812      	ldrb	r2, [r2, #0]
 800185a:	4611      	mov	r1, r2
 800185c:	68fa      	ldr	r2, [r7, #12]
 800185e:	440a      	add	r2, r1
 8001860:	f043 0308 	orr.w	r3, r3, #8
 8001864:	6013      	str	r3, [r2, #0]
}
 8001866:	bf00      	nop
 8001868:	3714      	adds	r7, #20
 800186a:	46bd      	mov	sp, r7
 800186c:	f85d 7b04 	ldr.w	r7, [sp], #4
 8001870:	4770      	bx	lr
 8001872:	bf00      	nop
 8001874:	08006668 	.word	0x08006668

08001878 <LL_DMA_DisableIT_TC>:
  *         @arg @ref LL_DMA_CHANNEL_6
  *         @arg @ref LL_DMA_CHANNEL_7
  * @retval None
  */
__STATIC_INLINE void LL_DMA_DisableIT_TC(DMA_TypeDef *DMAx, uint32_t Channel)
{
 8001878:	b480      	push	{r7}
 800187a:	b085      	sub	sp, #20
 800187c:	af00      	add	r7, sp, #0
 800187e:	6078      	str	r0, [r7, #4]
 8001880:	6039      	str	r1, [r7, #0]
  uint32_t dma_base_addr = (uint32_t)DMAx;
 8001882:	687b      	ldr	r3, [r7, #4]
 8001884:	60fb      	str	r3, [r7, #12]
  CLEAR_BIT(((DMA_Channel_TypeDef *)(dma_base_addr + CHANNEL_OFFSET_TAB[Channel]))->CCR, DMA_CCR_TCIE);
 8001886:	4a0c      	ldr	r2, [pc, #48]	; (80018b8 <LL_DMA_DisableIT_TC+0x40>)
 8001888:	683b      	ldr	r3, [r7, #0]
 800188a:	4413      	add	r3, r2
 800188c:	781b      	ldrb	r3, [r3, #0]
 800188e:	461a      	mov	r2, r3
 8001890:	68fb      	ldr	r3, [r7, #12]
 8001892:	4413      	add	r3, r2
 8001894:	681b      	ldr	r3, [r3, #0]
 8001896:	4908      	ldr	r1, [pc, #32]	; (80018b8 <LL_DMA_DisableIT_TC+0x40>)
 8001898:	683a      	ldr	r2, [r7, #0]
 800189a:	440a      	add	r2, r1
 800189c:	7812      	ldrb	r2, [r2, #0]
 800189e:	4611      	mov	r1, r2
 80018a0:	68fa      	ldr	r2, [r7, #12]
 80018a2:	440a      	add	r2, r1
 80018a4:	f023 0302 	bic.w	r3, r3, #2
 80018a8:	6013      	str	r3, [r2, #0]
}
 80018aa:	bf00      	nop
 80018ac:	3714      	adds	r7, #20
 80018ae:	46bd      	mov	sp, r7
 80018b0:	f85d 7b04 	ldr.w	r7, [sp], #4
 80018b4:	4770      	bx	lr
 80018b6:	bf00      	nop
 80018b8:	08006668 	.word	0x08006668

080018bc <LL_TIM_EnableCounter>:
  * @rmtoll CR1          CEN           LL_TIM_EnableCounter
  * @param  TIMx Timer instance
  * @retval None
  */
__STATIC_INLINE void LL_TIM_EnableCounter(TIM_TypeDef *TIMx)
{
 80018bc:	b480      	push	{r7}
 80018be:	b083      	sub	sp, #12
 80018c0:	af00      	add	r7, sp, #0
 80018c2:	6078      	str	r0, [r7, #4]
  SET_BIT(TIMx->CR1, TIM_CR1_CEN);
 80018c4:	687b      	ldr	r3, [r7, #4]
 80018c6:	681b      	ldr	r3, [r3, #0]
 80018c8:	f043 0201 	orr.w	r2, r3, #1
 80018cc:	687b      	ldr	r3, [r7, #4]
 80018ce:	601a      	str	r2, [r3, #0]
}
 80018d0:	bf00      	nop
 80018d2:	370c      	adds	r7, #12
 80018d4:	46bd      	mov	sp, r7
 80018d6:	f85d 7b04 	ldr.w	r7, [sp], #4
 80018da:	4770      	bx	lr

080018dc <LL_TIM_CC_EnableChannel>:
  *         @arg @ref LL_TIM_CHANNEL_CH5
  *         @arg @ref LL_TIM_CHANNEL_CH6
  * @retval None
  */
__STATIC_INLINE void LL_TIM_CC_EnableChannel(TIM_TypeDef *TIMx, uint32_t Channels)
{
 80018dc:	b480      	push	{r7}
 80018de:	b083      	sub	sp, #12
 80018e0:	af00      	add	r7, sp, #0
 80018e2:	6078      	str	r0, [r7, #4]
 80018e4:	6039      	str	r1, [r7, #0]
  SET_BIT(TIMx->CCER, Channels);
 80018e6:	687b      	ldr	r3, [r7, #4]
 80018e8:	6a1a      	ldr	r2, [r3, #32]
 80018ea:	683b      	ldr	r3, [r7, #0]
 80018ec:	431a      	orrs	r2, r3
 80018ee:	687b      	ldr	r3, [r7, #4]
 80018f0:	621a      	str	r2, [r3, #32]
}
 80018f2:	bf00      	nop
 80018f4:	370c      	adds	r7, #12
 80018f6:	46bd      	mov	sp, r7
 80018f8:	f85d 7b04 	ldr.w	r7, [sp], #4
 80018fc:	4770      	bx	lr

080018fe <LL_TIM_EnableDMAReq_CC1>:
  * @rmtoll DIER         CC1DE         LL_TIM_EnableDMAReq_CC1
  * @param  TIMx Timer instance
  * @retval None
  */
__STATIC_INLINE void LL_TIM_EnableDMAReq_CC1(TIM_TypeDef *TIMx)
{
 80018fe:	b480      	push	{r7}
 8001900:	b083      	sub	sp, #12
 8001902:	af00      	add	r7, sp, #0
 8001904:	6078      	str	r0, [r7, #4]
  SET_BIT(TIMx->DIER, TIM_DIER_CC1DE);
 8001906:	687b      	ldr	r3, [r7, #4]
 8001908:	68db      	ldr	r3, [r3, #12]
 800190a:	f443 7200 	orr.w	r2, r3, #512	; 0x200
 800190e:	687b      	ldr	r3, [r7, #4]
 8001910:	60da      	str	r2, [r3, #12]
}
 8001912:	bf00      	nop
 8001914:	370c      	adds	r7, #12
 8001916:	46bd      	mov	sp, r7
 8001918:	f85d 7b04 	ldr.w	r7, [sp], #4
 800191c:	4770      	bx	lr
	...

08001920 <enable_timer3>:
 *  Created on: Mar 14, 2024
 *      Author: patry
 */
#include "main.h"

void enable_timer3(){
 8001920:	b580      	push	{r7, lr}
 8001922:	af00      	add	r7, sp, #0
	LL_TIM_EnableDMAReq_CC1(TIM3);
 8001924:	4805      	ldr	r0, [pc, #20]	; (800193c <enable_timer3+0x1c>)
 8001926:	f7ff ffea 	bl	80018fe <LL_TIM_EnableDMAReq_CC1>
	LL_TIM_CC_EnableChannel(TIM3, LL_TIM_CHANNEL_CH1);
 800192a:	2101      	movs	r1, #1
 800192c:	4803      	ldr	r0, [pc, #12]	; (800193c <enable_timer3+0x1c>)
 800192e:	f7ff ffd5 	bl	80018dc <LL_TIM_CC_EnableChannel>
	LL_TIM_EnableCounter(TIM3);
 8001932:	4802      	ldr	r0, [pc, #8]	; (800193c <enable_timer3+0x1c>)
 8001934:	f7ff ffc2 	bl	80018bc <LL_TIM_EnableCounter>

}
 8001938:	bf00      	nop
 800193a:	bd80      	pop	{r7, pc}
 800193c:	40000400 	.word	0x40000400

08001940 <generate_signal>:


void generate_signal(uint8_t* data, uint32_t data_length){
 8001940:	b580      	push	{r7, lr}
 8001942:	b084      	sub	sp, #16
 8001944:	af02      	add	r7, sp, #8
 8001946:	6078      	str	r0, [r7, #4]
 8001948:	6039      	str	r1, [r7, #0]
	LL_DMA_ConfigAddresses(DMA1, LL_DMA_CHANNEL_6, (uint32_t)data, (uint32_t)&TIM3->CCR1, LL_DMA_DIRECTION_MEMORY_TO_PERIPH);
 800194a:	687a      	ldr	r2, [r7, #4]
 800194c:	2310      	movs	r3, #16
 800194e:	9300      	str	r3, [sp, #0]
 8001950:	4b0a      	ldr	r3, [pc, #40]	; (800197c <generate_signal+0x3c>)
 8001952:	2105      	movs	r1, #5
 8001954:	480a      	ldr	r0, [pc, #40]	; (8001980 <generate_signal+0x40>)
 8001956:	f7ff fea5 	bl	80016a4 <LL_DMA_ConfigAddresses>
	LL_DMA_SetDataLength(DMA1, LL_DMA_CHANNEL_6, data_length);
 800195a:	683a      	ldr	r2, [r7, #0]
 800195c:	2105      	movs	r1, #5
 800195e:	4808      	ldr	r0, [pc, #32]	; (8001980 <generate_signal+0x40>)
 8001960:	f7ff fe7a 	bl	8001658 <LL_DMA_SetDataLength>

	LL_DMA_EnableIT_TC(DMA1, LL_DMA_CHANNEL_6);
 8001964:	2105      	movs	r1, #5
 8001966:	4806      	ldr	r0, [pc, #24]	; (8001980 <generate_signal+0x40>)
 8001968:	f7ff ff42 	bl	80017f0 <LL_DMA_EnableIT_TC>
	LL_DMA_EnableChannel(DMA1, LL_DMA_CHANNEL_6);
 800196c:	2105      	movs	r1, #5
 800196e:	4804      	ldr	r0, [pc, #16]	; (8001980 <generate_signal+0x40>)
 8001970:	f7ff fd22 	bl	80013b8 <LL_DMA_EnableChannel>
}
 8001974:	bf00      	nop
 8001976:	3708      	adds	r7, #8
 8001978:	46bd      	mov	sp, r7
 800197a:	bd80      	pop	{r7, pc}
 800197c:	40000434 	.word	0x40000434
 8001980:	40020000 	.word	0x40020000

08001984 <dma_init>:


void dma_init(void){
 8001984:	b580      	push	{r7, lr}
 8001986:	af00      	add	r7, sp, #0
  LL_AHB1_GRP1_EnableClock(LL_AHB1_GRP1_PERIPH_DMA1);
 8001988:	2001      	movs	r0, #1
 800198a:	f7ff fcfd 	bl	8001388 <LL_AHB1_GRP1_EnableClock>
  NVIC_SetPriority(DMA1_Channel6_IRQn, NVIC_EncodePriority(NVIC_GetPriorityGrouping(),0, 0));
 800198e:	f7ff fc71 	bl	8001274 <__NVIC_GetPriorityGrouping>
 8001992:	4603      	mov	r3, r0
 8001994:	2200      	movs	r2, #0
 8001996:	2100      	movs	r1, #0
 8001998:	4618      	mov	r0, r3
 800199a:	f7ff fcc1 	bl	8001320 <NVIC_EncodePriority>
 800199e:	4603      	mov	r3, r0
 80019a0:	4619      	mov	r1, r3
 80019a2:	2010      	movs	r0, #16
 80019a4:	f7ff fc92 	bl	80012cc <__NVIC_SetPriority>
  NVIC_EnableIRQ(DMA1_Channel6_IRQn);
 80019a8:	2010      	movs	r0, #16
 80019aa:	f7ff fc71 	bl	8001290 <__NVIC_EnableIRQ>

  LL_DMA_SetPeriphRequest(DMA1, LL_DMA_CHANNEL_6, LL_DMA_REQUEST_5);
 80019ae:	2205      	movs	r2, #5
 80019b0:	2105      	movs	r1, #5
 80019b2:	4816      	ldr	r0, [pc, #88]	; (8001a0c <dma_init+0x88>)
 80019b4:	f7ff feb4 	bl	8001720 <LL_DMA_SetPeriphRequest>
	LL_DMA_SetDataTransferDirection(DMA1, LL_DMA_CHANNEL_6, LL_DMA_DIRECTION_MEMORY_TO_PERIPH);
 80019b8:	2210      	movs	r2, #16
 80019ba:	2105      	movs	r1, #5
 80019bc:	4813      	ldr	r0, [pc, #76]	; (8001a0c <dma_init+0x88>)
 80019be:	f7ff fd3f 	bl	8001440 <LL_DMA_SetDataTransferDirection>
	LL_DMA_SetChannelPriorityLevel(DMA1, LL_DMA_CHANNEL_6, LL_DMA_PRIORITY_LOW);
 80019c2:	2200      	movs	r2, #0
 80019c4:	2105      	movs	r1, #5
 80019c6:	4811      	ldr	r0, [pc, #68]	; (8001a0c <dma_init+0x88>)
 80019c8:	f7ff fe20 	bl	800160c <LL_DMA_SetChannelPriorityLevel>
	LL_DMA_SetMode(DMA1, LL_DMA_CHANNEL_6, LL_DMA_MODE_NORMAL);
 80019cc:	2200      	movs	r2, #0
 80019ce:	2105      	movs	r1, #5
 80019d0:	480e      	ldr	r0, [pc, #56]	; (8001a0c <dma_init+0x88>)
 80019d2:	f7ff fd5d 	bl	8001490 <LL_DMA_SetMode>
	LL_DMA_SetPeriphIncMode(DMA1, LL_DMA_CHANNEL_6, LL_DMA_PERIPH_NOINCREMENT);
 80019d6:	2200      	movs	r2, #0
 80019d8:	2105      	movs	r1, #5
 80019da:	480c      	ldr	r0, [pc, #48]	; (8001a0c <dma_init+0x88>)
 80019dc:	f7ff fd7e 	bl	80014dc <LL_DMA_SetPeriphIncMode>
	LL_DMA_SetMemoryIncMode(DMA1, LL_DMA_CHANNEL_6, LL_DMA_MEMORY_INCREMENT);
 80019e0:	2280      	movs	r2, #128	; 0x80
 80019e2:	2105      	movs	r1, #5
 80019e4:	4809      	ldr	r0, [pc, #36]	; (8001a0c <dma_init+0x88>)
 80019e6:	f7ff fd9f 	bl	8001528 <LL_DMA_SetMemoryIncMode>
	LL_DMA_SetPeriphSize(DMA1, LL_DMA_CHANNEL_6, LL_DMA_PDATAALIGN_HALFWORD);
 80019ea:	f44f 7280 	mov.w	r2, #256	; 0x100
 80019ee:	2105      	movs	r1, #5
 80019f0:	4806      	ldr	r0, [pc, #24]	; (8001a0c <dma_init+0x88>)
 80019f2:	f7ff fdbf 	bl	8001574 <LL_DMA_SetPeriphSize>
	LL_DMA_SetMemorySize(DMA1, LL_DMA_CHANNEL_6, LL_DMA_MDATAALIGN_BYTE);
 80019f6:	2200      	movs	r2, #0
 80019f8:	2105      	movs	r1, #5
 80019fa:	4804      	ldr	r0, [pc, #16]	; (8001a0c <dma_init+0x88>)
 80019fc:	f7ff fde0 	bl	80015c0 <LL_DMA_SetMemorySize>

	LL_DMA_EnableIT_TE(DMA1, LL_DMA_CHANNEL_6);
 8001a00:	2105      	movs	r1, #5
 8001a02:	4802      	ldr	r0, [pc, #8]	; (8001a0c <dma_init+0x88>)
 8001a04:	f7ff ff16 	bl	8001834 <LL_DMA_EnableIT_TE>

}
 8001a08:	bf00      	nop
 8001a0a:	bd80      	pop	{r7, pc}
 8001a0c:	40020000 	.word	0x40020000

08001a10 <DMA1_Channel6_IRQHandler>:

void DMA1_Channel6_IRQHandler(void){
 8001a10:	b580      	push	{r7, lr}
 8001a12:	af00      	add	r7, sp, #0
	if(LL_DMA_IsActiveFlag_TC6(DMA1) == 1){
 8001a14:	480b      	ldr	r0, [pc, #44]	; (8001a44 <DMA1_Channel6_IRQHandler+0x34>)
 8001a16:	f7ff feb5 	bl	8001784 <LL_DMA_IsActiveFlag_TC6>
 8001a1a:	4603      	mov	r3, r0
 8001a1c:	2b01      	cmp	r3, #1
 8001a1e:	d10b      	bne.n	8001a38 <DMA1_Channel6_IRQHandler+0x28>
		LL_DMA_ClearFlag_TC6(DMA1);
 8001a20:	4808      	ldr	r0, [pc, #32]	; (8001a44 <DMA1_Channel6_IRQHandler+0x34>)
 8001a22:	f7ff fed7 	bl	80017d4 <LL_DMA_ClearFlag_TC6>
		LL_DMA_DisableChannel(DMA1, LL_DMA_CHANNEL_6);
 8001a26:	2105      	movs	r1, #5
 8001a28:	4806      	ldr	r0, [pc, #24]	; (8001a44 <DMA1_Channel6_IRQHandler+0x34>)
 8001a2a:	f7ff fce7 	bl	80013fc <LL_DMA_DisableChannel>
		LL_DMA_DisableIT_TC(DMA1, LL_DMA_CHANNEL_6);
 8001a2e:	2105      	movs	r1, #5
 8001a30:	4804      	ldr	r0, [pc, #16]	; (8001a44 <DMA1_Channel6_IRQHandler+0x34>)
 8001a32:	f7ff ff21 	bl	8001878 <LL_DMA_DisableIT_TC>
	}
	else if(LL_DMA_IsActiveFlag_TE6(DMA1)){
		//nananana
	}

}
 8001a36:	e002      	b.n	8001a3e <DMA1_Channel6_IRQHandler+0x2e>
	else if(LL_DMA_IsActiveFlag_TE6(DMA1)){
 8001a38:	4802      	ldr	r0, [pc, #8]	; (8001a44 <DMA1_Channel6_IRQHandler+0x34>)
 8001a3a:	f7ff feb7 	bl	80017ac <LL_DMA_IsActiveFlag_TE6>
}
 8001a3e:	bf00      	nop
 8001a40:	bd80      	pop	{r7, pc}
 8001a42:	bf00      	nop
 8001a44:	40020000 	.word	0x40020000

08001a48 <WS2812_Send>:
//
#include "led_set.h"
//
//
void WS2812_Send (struct led_data *led, uint8_t brightness){
 8001a48:	b580      	push	{r7, lr}
 8001a4a:	b088      	sub	sp, #32
 8001a4c:	af00      	add	r7, sp, #0
 8001a4e:	6078      	str	r0, [r7, #4]
 8001a50:	460b      	mov	r3, r1
 8001a52:	70fb      	strb	r3, [r7, #3]
	uint32_t indx=0;
 8001a54:	2300      	movs	r3, #0
 8001a56:	61fb      	str	r3, [r7, #28]
	uint32_t color;
	Set_Brightness(led, brightness);
 8001a58:	78fb      	ldrb	r3, [r7, #3]
 8001a5a:	4619      	mov	r1, r3
 8001a5c:	6878      	ldr	r0, [r7, #4]
 8001a5e:	f000 f877 	bl	8001b50 <Set_Brightness>

	for (int i=0; i<50; i++){
 8001a62:	2300      	movs	r3, #0
 8001a64:	61bb      	str	r3, [r7, #24]
 8001a66:	e00b      	b.n	8001a80 <WS2812_Send+0x38>
		led->pwmData[indx] = 0;
 8001a68:	687b      	ldr	r3, [r7, #4]
 8001a6a:	69fa      	ldr	r2, [r7, #28]
 8001a6c:	3220      	adds	r2, #32
 8001a6e:	2100      	movs	r1, #0
 8001a70:	f823 1012 	strh.w	r1, [r3, r2, lsl #1]
		indx++;
 8001a74:	69fb      	ldr	r3, [r7, #28]
 8001a76:	3301      	adds	r3, #1
 8001a78:	61fb      	str	r3, [r7, #28]
	for (int i=0; i<50; i++){
 8001a7a:	69bb      	ldr	r3, [r7, #24]
 8001a7c:	3301      	adds	r3, #1
 8001a7e:	61bb      	str	r3, [r7, #24]
 8001a80:	69bb      	ldr	r3, [r7, #24]
 8001a82:	2b31      	cmp	r3, #49	; 0x31
 8001a84:	ddf0      	ble.n	8001a68 <WS2812_Send+0x20>
	}

	for (int i= 0; i<MAX_LED; i++){
 8001a86:	2300      	movs	r3, #0
 8001a88:	617b      	str	r3, [r7, #20]
 8001a8a:	e03e      	b.n	8001b0a <WS2812_Send+0xc2>
		color = ((led->LED_Mod[i*4 + 1]<<16) | (led->LED_Mod[i*4 + 2]<<8) | (led->LED_Mod[i*4 + 3]));
 8001a8c:	697b      	ldr	r3, [r7, #20]
 8001a8e:	009b      	lsls	r3, r3, #2
 8001a90:	3301      	adds	r3, #1
 8001a92:	687a      	ldr	r2, [r7, #4]
 8001a94:	4413      	add	r3, r2
 8001a96:	f893 3020 	ldrb.w	r3, [r3, #32]
 8001a9a:	041a      	lsls	r2, r3, #16
 8001a9c:	697b      	ldr	r3, [r7, #20]
 8001a9e:	009b      	lsls	r3, r3, #2
 8001aa0:	3302      	adds	r3, #2
 8001aa2:	6879      	ldr	r1, [r7, #4]
 8001aa4:	440b      	add	r3, r1
 8001aa6:	f893 3020 	ldrb.w	r3, [r3, #32]
 8001aaa:	021b      	lsls	r3, r3, #8
 8001aac:	4313      	orrs	r3, r2
 8001aae:	697a      	ldr	r2, [r7, #20]
 8001ab0:	0092      	lsls	r2, r2, #2
 8001ab2:	3203      	adds	r2, #3
 8001ab4:	6879      	ldr	r1, [r7, #4]
 8001ab6:	440a      	add	r2, r1
 8001ab8:	f892 2020 	ldrb.w	r2, [r2, #32]
 8001abc:	4313      	orrs	r3, r2
 8001abe:	60bb      	str	r3, [r7, #8]
		for (int i=23; i>=0; i--){
 8001ac0:	2317      	movs	r3, #23
 8001ac2:	613b      	str	r3, [r7, #16]
 8001ac4:	e01b      	b.n	8001afe <WS2812_Send+0xb6>
			if (color&(1<<i))
 8001ac6:	2201      	movs	r2, #1
 8001ac8:	693b      	ldr	r3, [r7, #16]
 8001aca:	fa02 f303 	lsl.w	r3, r2, r3
 8001ace:	461a      	mov	r2, r3
 8001ad0:	68bb      	ldr	r3, [r7, #8]
 8001ad2:	4013      	ands	r3, r2
 8001ad4:	2b00      	cmp	r3, #0
 8001ad6:	d006      	beq.n	8001ae6 <WS2812_Send+0x9e>
				led->pwmData[indx] = 27;  // 2/3 of 90
 8001ad8:	687b      	ldr	r3, [r7, #4]
 8001ada:	69fa      	ldr	r2, [r7, #28]
 8001adc:	3220      	adds	r2, #32
 8001ade:	211b      	movs	r1, #27
 8001ae0:	f823 1012 	strh.w	r1, [r3, r2, lsl #1]
 8001ae4:	e005      	b.n	8001af2 <WS2812_Send+0xaa>
		else
				led->pwmData[indx] = 13;  // 1/3 of 90
 8001ae6:	687b      	ldr	r3, [r7, #4]
 8001ae8:	69fa      	ldr	r2, [r7, #28]
 8001aea:	3220      	adds	r2, #32
 8001aec:	210d      	movs	r1, #13
 8001aee:	f823 1012 	strh.w	r1, [r3, r2, lsl #1]

			indx++;
 8001af2:	69fb      	ldr	r3, [r7, #28]
 8001af4:	3301      	adds	r3, #1
 8001af6:	61fb      	str	r3, [r7, #28]
		for (int i=23; i>=0; i--){
 8001af8:	693b      	ldr	r3, [r7, #16]
 8001afa:	3b01      	subs	r3, #1
 8001afc:	613b      	str	r3, [r7, #16]
 8001afe:	693b      	ldr	r3, [r7, #16]
 8001b00:	2b00      	cmp	r3, #0
 8001b02:	dae0      	bge.n	8001ac6 <WS2812_Send+0x7e>
	for (int i= 0; i<MAX_LED; i++){
 8001b04:	697b      	ldr	r3, [r7, #20]
 8001b06:	3301      	adds	r3, #1
 8001b08:	617b      	str	r3, [r7, #20]
 8001b0a:	697b      	ldr	r3, [r7, #20]
 8001b0c:	2b07      	cmp	r3, #7
 8001b0e:	ddbd      	ble.n	8001a8c <WS2812_Send+0x44>
		}
	}
for (int i=0; i<50; i++){
 8001b10:	2300      	movs	r3, #0
 8001b12:	60fb      	str	r3, [r7, #12]
 8001b14:	e00b      	b.n	8001b2e <WS2812_Send+0xe6>
		led->pwmData[indx] = 0;
 8001b16:	687b      	ldr	r3, [r7, #4]
 8001b18:	69fa      	ldr	r2, [r7, #28]
 8001b1a:	3220      	adds	r2, #32
 8001b1c:	2100      	movs	r1, #0
 8001b1e:	f823 1012 	strh.w	r1, [r3, r2, lsl #1]
		indx++;
 8001b22:	69fb      	ldr	r3, [r7, #28]
 8001b24:	3301      	adds	r3, #1
 8001b26:	61fb      	str	r3, [r7, #28]
for (int i=0; i<50; i++){
 8001b28:	68fb      	ldr	r3, [r7, #12]
 8001b2a:	3301      	adds	r3, #1
 8001b2c:	60fb      	str	r3, [r7, #12]
 8001b2e:	68fb      	ldr	r3, [r7, #12]
 8001b30:	2b31      	cmp	r3, #49	; 0x31
 8001b32:	ddf0      	ble.n	8001b16 <WS2812_Send+0xce>
	}

	generate_signal((uint8_t*)led->pwmData, sizeof(led->pwmData));
 8001b34:	687b      	ldr	r3, [r7, #4]
 8001b36:	3340      	adds	r3, #64	; 0x40
 8001b38:	f44f 7112 	mov.w	r1, #584	; 0x248
 8001b3c:	4618      	mov	r0, r3
 8001b3e:	f7ff feff 	bl	8001940 <generate_signal>
}
 8001b42:	bf00      	nop
 8001b44:	3720      	adds	r7, #32
 8001b46:	46bd      	mov	sp, r7
 8001b48:	bd80      	pop	{r7, pc}
 8001b4a:	0000      	movs	r0, r0
 8001b4c:	0000      	movs	r0, r0
	...

08001b50 <Set_Brightness>:

void Set_Brightness(struct led_data *led, uint8_t brightness){  // 0 - 45
 8001b50:	b5b0      	push	{r4, r5, r7, lr}
 8001b52:	b086      	sub	sp, #24
 8001b54:	af00      	add	r7, sp, #0
 8001b56:	6078      	str	r0, [r7, #4]
 8001b58:	460b      	mov	r3, r1
 8001b5a:	70fb      	strb	r3, [r7, #3]
	if (brightness > 45)
 8001b5c:	78fb      	ldrb	r3, [r7, #3]
 8001b5e:	2b2d      	cmp	r3, #45	; 0x2d
 8001b60:	d901      	bls.n	8001b66 <Set_Brightness+0x16>
		brightness = 45;
 8001b62:	232d      	movs	r3, #45	; 0x2d
 8001b64:	70fb      	strb	r3, [r7, #3]

	for (int i=0; i<MAX_LED; i++){
 8001b66:	2300      	movs	r3, #0
 8001b68:	617b      	str	r3, [r7, #20]
 8001b6a:	e062      	b.n	8001c32 <Set_Brightness+0xe2>
		led->LED_Mod[i*4 + 0] = led->LED_Data[i*4 + 0];
 8001b6c:	697b      	ldr	r3, [r7, #20]
 8001b6e:	009a      	lsls	r2, r3, #2
 8001b70:	697b      	ldr	r3, [r7, #20]
 8001b72:	009b      	lsls	r3, r3, #2
 8001b74:	6879      	ldr	r1, [r7, #4]
 8001b76:	5c89      	ldrb	r1, [r1, r2]
 8001b78:	687a      	ldr	r2, [r7, #4]
 8001b7a:	4413      	add	r3, r2
 8001b7c:	460a      	mov	r2, r1
 8001b7e:	f883 2020 	strb.w	r2, [r3, #32]
		for (int j=1; j<4; j++){
 8001b82:	2301      	movs	r3, #1
 8001b84:	613b      	str	r3, [r7, #16]
 8001b86:	e04e      	b.n	8001c26 <Set_Brightness+0xd6>
			float angle = 90-brightness;  // in degrees
 8001b88:	78fb      	ldrb	r3, [r7, #3]
 8001b8a:	f1c3 035a 	rsb	r3, r3, #90	; 0x5a
 8001b8e:	ee07 3a90 	vmov	s15, r3
 8001b92:	eef8 7ae7 	vcvt.f32.s32	s15, s15
 8001b96:	edc7 7a03 	vstr	s15, [r7, #12]
			angle = angle*PI / 180;  // in rad
 8001b9a:	68f8      	ldr	r0, [r7, #12]
 8001b9c:	f7fe fccc 	bl	8000538 <__aeabi_f2d>
 8001ba0:	a32a      	add	r3, pc, #168	; (adr r3, 8001c4c <Set_Brightness+0xfc>)
 8001ba2:	e9d3 2300 	ldrd	r2, r3, [r3]
 8001ba6:	f7fe fd1f 	bl	80005e8 <__aeabi_dmul>
 8001baa:	4602      	mov	r2, r0
 8001bac:	460b      	mov	r3, r1
 8001bae:	4610      	mov	r0, r2
 8001bb0:	4619      	mov	r1, r3
 8001bb2:	f04f 0200 	mov.w	r2, #0
 8001bb6:	4b24      	ldr	r3, [pc, #144]	; (8001c48 <Set_Brightness+0xf8>)
 8001bb8:	f7fe fe40 	bl	800083c <__aeabi_ddiv>
 8001bbc:	4602      	mov	r2, r0
 8001bbe:	460b      	mov	r3, r1
 8001bc0:	4610      	mov	r0, r2
 8001bc2:	4619      	mov	r1, r3
 8001bc4:	f7fe fff2 	bl	8000bac <__aeabi_d2f>
 8001bc8:	4603      	mov	r3, r0
 8001bca:	60fb      	str	r3, [r7, #12]
			led->LED_Mod[i*4 + j] = (led->LED_Data[i*4 + j])/(tan(angle));
 8001bcc:	697b      	ldr	r3, [r7, #20]
 8001bce:	009a      	lsls	r2, r3, #2
 8001bd0:	693b      	ldr	r3, [r7, #16]
 8001bd2:	4413      	add	r3, r2
 8001bd4:	687a      	ldr	r2, [r7, #4]
 8001bd6:	5cd3      	ldrb	r3, [r2, r3]
 8001bd8:	4618      	mov	r0, r3
 8001bda:	f7fe fc9b 	bl	8000514 <__aeabi_i2d>
 8001bde:	4604      	mov	r4, r0
 8001be0:	460d      	mov	r5, r1
 8001be2:	68f8      	ldr	r0, [r7, #12]
 8001be4:	f7fe fca8 	bl	8000538 <__aeabi_f2d>
 8001be8:	4602      	mov	r2, r0
 8001bea:	460b      	mov	r3, r1
 8001bec:	ec43 2b10 	vmov	d0, r2, r3
 8001bf0:	f003 fc86 	bl	8005500 <tan>
 8001bf4:	ec53 2b10 	vmov	r2, r3, d0
 8001bf8:	4620      	mov	r0, r4
 8001bfa:	4629      	mov	r1, r5
 8001bfc:	f7fe fe1e 	bl	800083c <__aeabi_ddiv>
 8001c00:	4602      	mov	r2, r0
 8001c02:	460b      	mov	r3, r1
 8001c04:	4610      	mov	r0, r2
 8001c06:	4619      	mov	r1, r3
 8001c08:	697b      	ldr	r3, [r7, #20]
 8001c0a:	009a      	lsls	r2, r3, #2
 8001c0c:	693b      	ldr	r3, [r7, #16]
 8001c0e:	18d4      	adds	r4, r2, r3
 8001c10:	f7fe ffac 	bl	8000b6c <__aeabi_d2uiz>
 8001c14:	4603      	mov	r3, r0
 8001c16:	b2da      	uxtb	r2, r3
 8001c18:	687b      	ldr	r3, [r7, #4]
 8001c1a:	4423      	add	r3, r4
 8001c1c:	f883 2020 	strb.w	r2, [r3, #32]
		for (int j=1; j<4; j++){
 8001c20:	693b      	ldr	r3, [r7, #16]
 8001c22:	3301      	adds	r3, #1
 8001c24:	613b      	str	r3, [r7, #16]
 8001c26:	693b      	ldr	r3, [r7, #16]
 8001c28:	2b03      	cmp	r3, #3
 8001c2a:	ddad      	ble.n	8001b88 <Set_Brightness+0x38>
	for (int i=0; i<MAX_LED; i++){
 8001c2c:	697b      	ldr	r3, [r7, #20]
 8001c2e:	3301      	adds	r3, #1
 8001c30:	617b      	str	r3, [r7, #20]
 8001c32:	697b      	ldr	r3, [r7, #20]
 8001c34:	2b07      	cmp	r3, #7
 8001c36:	dd99      	ble.n	8001b6c <Set_Brightness+0x1c>
		}
	}
}
 8001c38:	bf00      	nop
 8001c3a:	bf00      	nop
 8001c3c:	3718      	adds	r7, #24
 8001c3e:	46bd      	mov	sp, r7
 8001c40:	bdb0      	pop	{r4, r5, r7, pc}
 8001c42:	bf00      	nop
 8001c44:	f3af 8000 	nop.w
 8001c48:	40668000 	.word	0x40668000
 8001c4c:	53c8d4f1 	.word	0x53c8d4f1
 8001c50:	400921fb 	.word	0x400921fb

08001c54 <Set_LED>:


void Set_LED (struct led_data *led, int LEDnum, int Red, int Green, int Blue){
 8001c54:	b480      	push	{r7}
 8001c56:	b085      	sub	sp, #20
 8001c58:	af00      	add	r7, sp, #0
 8001c5a:	60f8      	str	r0, [r7, #12]
 8001c5c:	60b9      	str	r1, [r7, #8]
 8001c5e:	607a      	str	r2, [r7, #4]
 8001c60:	603b      	str	r3, [r7, #0]
	led->LED_Data[LEDnum*4 + 0] = LEDnum;
 8001c62:	68bb      	ldr	r3, [r7, #8]
 8001c64:	009b      	lsls	r3, r3, #2
 8001c66:	68ba      	ldr	r2, [r7, #8]
 8001c68:	b2d1      	uxtb	r1, r2
 8001c6a:	68fa      	ldr	r2, [r7, #12]
 8001c6c:	54d1      	strb	r1, [r2, r3]
	led->LED_Data[LEDnum*4 + 1] = Green;
 8001c6e:	68bb      	ldr	r3, [r7, #8]
 8001c70:	009b      	lsls	r3, r3, #2
 8001c72:	3301      	adds	r3, #1
 8001c74:	683a      	ldr	r2, [r7, #0]
 8001c76:	b2d1      	uxtb	r1, r2
 8001c78:	68fa      	ldr	r2, [r7, #12]
 8001c7a:	54d1      	strb	r1, [r2, r3]
	led->LED_Data[LEDnum*4 + 2] = Red;
 8001c7c:	68bb      	ldr	r3, [r7, #8]
 8001c7e:	009b      	lsls	r3, r3, #2
 8001c80:	3302      	adds	r3, #2
 8001c82:	687a      	ldr	r2, [r7, #4]
 8001c84:	b2d1      	uxtb	r1, r2
 8001c86:	68fa      	ldr	r2, [r7, #12]
 8001c88:	54d1      	strb	r1, [r2, r3]
	led->LED_Data[LEDnum*4 + 3] = Blue;
 8001c8a:	68bb      	ldr	r3, [r7, #8]
 8001c8c:	009b      	lsls	r3, r3, #2
 8001c8e:	3303      	adds	r3, #3
 8001c90:	69ba      	ldr	r2, [r7, #24]
 8001c92:	b2d1      	uxtb	r1, r2
 8001c94:	68fa      	ldr	r2, [r7, #12]
 8001c96:	54d1      	strb	r1, [r2, r3]
}
 8001c98:	bf00      	nop
 8001c9a:	3714      	adds	r7, #20
 8001c9c:	46bd      	mov	sp, r7
 8001c9e:	f85d 7b04 	ldr.w	r7, [sp], #4
 8001ca2:	4770      	bx	lr

08001ca4 <Reset_LED>:


void Reset_LED (struct led_data *led){
 8001ca4:	b580      	push	{r7, lr}
 8001ca6:	b084      	sub	sp, #16
 8001ca8:	af00      	add	r7, sp, #0
 8001caa:	6078      	str	r0, [r7, #4]
	for (int i=0; i<MAX_LED; i++){
 8001cac:	2300      	movs	r3, #0
 8001cae:	60fb      	str	r3, [r7, #12]
 8001cb0:	e01a      	b.n	8001ce8 <Reset_LED+0x44>
		led->LED_Data[i*4 + 0] = i;
 8001cb2:	68fb      	ldr	r3, [r7, #12]
 8001cb4:	009b      	lsls	r3, r3, #2
 8001cb6:	68fa      	ldr	r2, [r7, #12]
 8001cb8:	b2d1      	uxtb	r1, r2
 8001cba:	687a      	ldr	r2, [r7, #4]
 8001cbc:	54d1      	strb	r1, [r2, r3]
		led->LED_Data[i*4 + 1] = 0;
 8001cbe:	68fb      	ldr	r3, [r7, #12]
 8001cc0:	009b      	lsls	r3, r3, #2
 8001cc2:	3301      	adds	r3, #1
 8001cc4:	687a      	ldr	r2, [r7, #4]
 8001cc6:	2100      	movs	r1, #0
 8001cc8:	54d1      	strb	r1, [r2, r3]
		led->LED_Data[i*4 + 2] = 0;
 8001cca:	68fb      	ldr	r3, [r7, #12]
 8001ccc:	009b      	lsls	r3, r3, #2
 8001cce:	3302      	adds	r3, #2
 8001cd0:	687a      	ldr	r2, [r7, #4]
 8001cd2:	2100      	movs	r1, #0
 8001cd4:	54d1      	strb	r1, [r2, r3]
		led->LED_Data[i*4 + 3] = 0;
 8001cd6:	68fb      	ldr	r3, [r7, #12]
 8001cd8:	009b      	lsls	r3, r3, #2
 8001cda:	3303      	adds	r3, #3
 8001cdc:	687a      	ldr	r2, [r7, #4]
 8001cde:	2100      	movs	r1, #0
 8001ce0:	54d1      	strb	r1, [r2, r3]
	for (int i=0; i<MAX_LED; i++){
 8001ce2:	68fb      	ldr	r3, [r7, #12]
 8001ce4:	3301      	adds	r3, #1
 8001ce6:	60fb      	str	r3, [r7, #12]
 8001ce8:	68fb      	ldr	r3, [r7, #12]
 8001cea:	2b07      	cmp	r3, #7
 8001cec:	dde1      	ble.n	8001cb2 <Reset_LED+0xe>
	}
	WS2812_Send(led, 0);
 8001cee:	2100      	movs	r1, #0
 8001cf0:	6878      	ldr	r0, [r7, #4]
 8001cf2:	f7ff fea9 	bl	8001a48 <WS2812_Send>
}
 8001cf6:	bf00      	nop
 8001cf8:	3710      	adds	r7, #16
 8001cfa:	46bd      	mov	sp, r7
 8001cfc:	bd80      	pop	{r7, pc}
	...

08001d00 <__NVIC_SetPriorityGrouping>:
{
 8001d00:	b480      	push	{r7}
 8001d02:	b085      	sub	sp, #20
 8001d04:	af00      	add	r7, sp, #0
 8001d06:	6078      	str	r0, [r7, #4]
  uint32_t PriorityGroupTmp = (PriorityGroup & (uint32_t)0x07UL);             /* only values 0..7 are used          */
 8001d08:	687b      	ldr	r3, [r7, #4]
 8001d0a:	f003 0307 	and.w	r3, r3, #7
 8001d0e:	60fb      	str	r3, [r7, #12]
  reg_value  =  SCB->AIRCR;                                                   /* read old register configuration    */
 8001d10:	4b0c      	ldr	r3, [pc, #48]	; (8001d44 <__NVIC_SetPriorityGrouping+0x44>)
 8001d12:	68db      	ldr	r3, [r3, #12]
 8001d14:	60bb      	str	r3, [r7, #8]
  reg_value &= ~((uint32_t)(SCB_AIRCR_VECTKEY_Msk | SCB_AIRCR_PRIGROUP_Msk)); /* clear bits to change               */
 8001d16:	68ba      	ldr	r2, [r7, #8]
 8001d18:	f64f 03ff 	movw	r3, #63743	; 0xf8ff
 8001d1c:	4013      	ands	r3, r2
 8001d1e:	60bb      	str	r3, [r7, #8]
                (PriorityGroupTmp << SCB_AIRCR_PRIGROUP_Pos)  );              /* Insert write key and priority group */
 8001d20:	68fb      	ldr	r3, [r7, #12]
 8001d22:	021a      	lsls	r2, r3, #8
                ((uint32_t)0x5FAUL << SCB_AIRCR_VECTKEY_Pos) |
 8001d24:	68bb      	ldr	r3, [r7, #8]
 8001d26:	4313      	orrs	r3, r2
  reg_value  =  (reg_value                                   |
 8001d28:	f043 63bf 	orr.w	r3, r3, #100139008	; 0x5f80000
 8001d2c:	f443 3300 	orr.w	r3, r3, #131072	; 0x20000
 8001d30:	60bb      	str	r3, [r7, #8]
  SCB->AIRCR =  reg_value;
 8001d32:	4a04      	ldr	r2, [pc, #16]	; (8001d44 <__NVIC_SetPriorityGrouping+0x44>)
 8001d34:	68bb      	ldr	r3, [r7, #8]
 8001d36:	60d3      	str	r3, [r2, #12]
}
 8001d38:	bf00      	nop
 8001d3a:	3714      	adds	r7, #20
 8001d3c:	46bd      	mov	sp, r7
 8001d3e:	f85d 7b04 	ldr.w	r7, [sp], #4
 8001d42:	4770      	bx	lr
 8001d44:	e000ed00 	.word	0xe000ed00

08001d48 <__NVIC_GetPriorityGrouping>:
{
 8001d48:	b480      	push	{r7}
 8001d4a:	af00      	add	r7, sp, #0
  return ((uint32_t)((SCB->AIRCR & SCB_AIRCR_PRIGROUP_Msk) >> SCB_AIRCR_PRIGROUP_Pos));
 8001d4c:	4b04      	ldr	r3, [pc, #16]	; (8001d60 <__NVIC_GetPriorityGrouping+0x18>)
 8001d4e:	68db      	ldr	r3, [r3, #12]
 8001d50:	0a1b      	lsrs	r3, r3, #8
 8001d52:	f003 0307 	and.w	r3, r3, #7
}
 8001d56:	4618      	mov	r0, r3
 8001d58:	46bd      	mov	sp, r7
 8001d5a:	f85d 7b04 	ldr.w	r7, [sp], #4
 8001d5e:	4770      	bx	lr
 8001d60:	e000ed00 	.word	0xe000ed00

08001d64 <__NVIC_EnableIRQ>:
{
 8001d64:	b480      	push	{r7}
 8001d66:	b083      	sub	sp, #12
 8001d68:	af00      	add	r7, sp, #0
 8001d6a:	4603      	mov	r3, r0
 8001d6c:	71fb      	strb	r3, [r7, #7]
  if ((int32_t)(IRQn) >= 0)
 8001d6e:	f997 3007 	ldrsb.w	r3, [r7, #7]
 8001d72:	2b00      	cmp	r3, #0
 8001d74:	db0b      	blt.n	8001d8e <__NVIC_EnableIRQ+0x2a>
    NVIC->ISER[(((uint32_t)IRQn) >> 5UL)] = (uint32_t)(1UL << (((uint32_t)IRQn) & 0x1FUL));
 8001d76:	79fb      	ldrb	r3, [r7, #7]
 8001d78:	f003 021f 	and.w	r2, r3, #31
 8001d7c:	4907      	ldr	r1, [pc, #28]	; (8001d9c <__NVIC_EnableIRQ+0x38>)
 8001d7e:	f997 3007 	ldrsb.w	r3, [r7, #7]
 8001d82:	095b      	lsrs	r3, r3, #5
 8001d84:	2001      	movs	r0, #1
 8001d86:	fa00 f202 	lsl.w	r2, r0, r2
 8001d8a:	f841 2023 	str.w	r2, [r1, r3, lsl #2]
}
 8001d8e:	bf00      	nop
 8001d90:	370c      	adds	r7, #12
 8001d92:	46bd      	mov	sp, r7
 8001d94:	f85d 7b04 	ldr.w	r7, [sp], #4
 8001d98:	4770      	bx	lr
 8001d9a:	bf00      	nop
 8001d9c:	e000e100 	.word	0xe000e100

08001da0 <__NVIC_SetPriority>:
{
 8001da0:	b480      	push	{r7}
 8001da2:	b083      	sub	sp, #12
 8001da4:	af00      	add	r7, sp, #0
 8001da6:	4603      	mov	r3, r0
 8001da8:	6039      	str	r1, [r7, #0]
 8001daa:	71fb      	strb	r3, [r7, #7]
  if ((int32_t)(IRQn) >= 0)
 8001dac:	f997 3007 	ldrsb.w	r3, [r7, #7]
 8001db0:	2b00      	cmp	r3, #0
 8001db2:	db0a      	blt.n	8001dca <__NVIC_SetPriority+0x2a>
    NVIC->IP[((uint32_t)IRQn)]               = (uint8_t)((priority << (8U - __NVIC_PRIO_BITS)) & (uint32_t)0xFFUL);
 8001db4:	683b      	ldr	r3, [r7, #0]
 8001db6:	b2da      	uxtb	r2, r3
 8001db8:	490c      	ldr	r1, [pc, #48]	; (8001dec <__NVIC_SetPriority+0x4c>)
 8001dba:	f997 3007 	ldrsb.w	r3, [r7, #7]
 8001dbe:	0112      	lsls	r2, r2, #4
 8001dc0:	b2d2      	uxtb	r2, r2
 8001dc2:	440b      	add	r3, r1
 8001dc4:	f883 2300 	strb.w	r2, [r3, #768]	; 0x300
}
 8001dc8:	e00a      	b.n	8001de0 <__NVIC_SetPriority+0x40>
    SCB->SHP[(((uint32_t)IRQn) & 0xFUL)-4UL] = (uint8_t)((priority << (8U - __NVIC_PRIO_BITS)) & (uint32_t)0xFFUL);
 8001dca:	683b      	ldr	r3, [r7, #0]
 8001dcc:	b2da      	uxtb	r2, r3
 8001dce:	4908      	ldr	r1, [pc, #32]	; (8001df0 <__NVIC_SetPriority+0x50>)
 8001dd0:	79fb      	ldrb	r3, [r7, #7]
 8001dd2:	f003 030f 	and.w	r3, r3, #15
 8001dd6:	3b04      	subs	r3, #4
 8001dd8:	0112      	lsls	r2, r2, #4
 8001dda:	b2d2      	uxtb	r2, r2
 8001ddc:	440b      	add	r3, r1
 8001dde:	761a      	strb	r2, [r3, #24]
}
 8001de0:	bf00      	nop
 8001de2:	370c      	adds	r7, #12
 8001de4:	46bd      	mov	sp, r7
 8001de6:	f85d 7b04 	ldr.w	r7, [sp], #4
 8001dea:	4770      	bx	lr
 8001dec:	e000e100 	.word	0xe000e100
 8001df0:	e000ed00 	.word	0xe000ed00

08001df4 <NVIC_EncodePriority>:
{
 8001df4:	b480      	push	{r7}
 8001df6:	b089      	sub	sp, #36	; 0x24
 8001df8:	af00      	add	r7, sp, #0
 8001dfa:	60f8      	str	r0, [r7, #12]
 8001dfc:	60b9      	str	r1, [r7, #8]
 8001dfe:	607a      	str	r2, [r7, #4]
  uint32_t PriorityGroupTmp = (PriorityGroup & (uint32_t)0x07UL);   /* only values 0..7 are used          */
 8001e00:	68fb      	ldr	r3, [r7, #12]
 8001e02:	f003 0307 	and.w	r3, r3, #7
 8001e06:	61fb      	str	r3, [r7, #28]
  PreemptPriorityBits = ((7UL - PriorityGroupTmp) > (uint32_t)(__NVIC_PRIO_BITS)) ? (uint32_t)(__NVIC_PRIO_BITS) : (uint32_t)(7UL - PriorityGroupTmp);
 8001e08:	69fb      	ldr	r3, [r7, #28]
 8001e0a:	f1c3 0307 	rsb	r3, r3, #7
 8001e0e:	2b04      	cmp	r3, #4
 8001e10:	bf28      	it	cs
 8001e12:	2304      	movcs	r3, #4
 8001e14:	61bb      	str	r3, [r7, #24]
  SubPriorityBits     = ((PriorityGroupTmp + (uint32_t)(__NVIC_PRIO_BITS)) < (uint32_t)7UL) ? (uint32_t)0UL : (uint32_t)((PriorityGroupTmp - 7UL) + (uint32_t)(__NVIC_PRIO_BITS));
 8001e16:	69fb      	ldr	r3, [r7, #28]
 8001e18:	3304      	adds	r3, #4
 8001e1a:	2b06      	cmp	r3, #6
 8001e1c:	d902      	bls.n	8001e24 <NVIC_EncodePriority+0x30>
 8001e1e:	69fb      	ldr	r3, [r7, #28]
 8001e20:	3b03      	subs	r3, #3
 8001e22:	e000      	b.n	8001e26 <NVIC_EncodePriority+0x32>
 8001e24:	2300      	movs	r3, #0
 8001e26:	617b      	str	r3, [r7, #20]
           ((PreemptPriority & (uint32_t)((1UL << (PreemptPriorityBits)) - 1UL)) << SubPriorityBits) |
 8001e28:	f04f 32ff 	mov.w	r2, #4294967295
 8001e2c:	69bb      	ldr	r3, [r7, #24]
 8001e2e:	fa02 f303 	lsl.w	r3, r2, r3
 8001e32:	43da      	mvns	r2, r3
 8001e34:	68bb      	ldr	r3, [r7, #8]
 8001e36:	401a      	ands	r2, r3
 8001e38:	697b      	ldr	r3, [r7, #20]
 8001e3a:	409a      	lsls	r2, r3
           ((SubPriority     & (uint32_t)((1UL << (SubPriorityBits    )) - 1UL)))
 8001e3c:	f04f 31ff 	mov.w	r1, #4294967295
 8001e40:	697b      	ldr	r3, [r7, #20]
 8001e42:	fa01 f303 	lsl.w	r3, r1, r3
 8001e46:	43d9      	mvns	r1, r3
 8001e48:	687b      	ldr	r3, [r7, #4]
 8001e4a:	400b      	ands	r3, r1
           ((PreemptPriority & (uint32_t)((1UL << (PreemptPriorityBits)) - 1UL)) << SubPriorityBits) |
 8001e4c:	4313      	orrs	r3, r2
}
 8001e4e:	4618      	mov	r0, r3
 8001e50:	3724      	adds	r7, #36	; 0x24
 8001e52:	46bd      	mov	sp, r7
 8001e54:	f85d 7b04 	ldr.w	r7, [sp], #4
 8001e58:	4770      	bx	lr
	...

08001e5c <LL_RCC_MSI_Enable>:
{
 8001e5c:	b480      	push	{r7}
 8001e5e:	af00      	add	r7, sp, #0
  SET_BIT(RCC->CR, RCC_CR_MSION);
 8001e60:	4b05      	ldr	r3, [pc, #20]	; (8001e78 <LL_RCC_MSI_Enable+0x1c>)
 8001e62:	681b      	ldr	r3, [r3, #0]
 8001e64:	4a04      	ldr	r2, [pc, #16]	; (8001e78 <LL_RCC_MSI_Enable+0x1c>)
 8001e66:	f043 0301 	orr.w	r3, r3, #1
 8001e6a:	6013      	str	r3, [r2, #0]
}
 8001e6c:	bf00      	nop
 8001e6e:	46bd      	mov	sp, r7
 8001e70:	f85d 7b04 	ldr.w	r7, [sp], #4
 8001e74:	4770      	bx	lr
 8001e76:	bf00      	nop
 8001e78:	40021000 	.word	0x40021000

08001e7c <LL_RCC_MSI_IsReady>:
{
 8001e7c:	b480      	push	{r7}
 8001e7e:	af00      	add	r7, sp, #0
  return ((READ_BIT(RCC->CR, RCC_CR_MSIRDY) == RCC_CR_MSIRDY) ? 1UL : 0UL);
 8001e80:	4b06      	ldr	r3, [pc, #24]	; (8001e9c <LL_RCC_MSI_IsReady+0x20>)
 8001e82:	681b      	ldr	r3, [r3, #0]
 8001e84:	f003 0302 	and.w	r3, r3, #2
 8001e88:	2b02      	cmp	r3, #2
 8001e8a:	d101      	bne.n	8001e90 <LL_RCC_MSI_IsReady+0x14>
 8001e8c:	2301      	movs	r3, #1
 8001e8e:	e000      	b.n	8001e92 <LL_RCC_MSI_IsReady+0x16>
 8001e90:	2300      	movs	r3, #0
}
 8001e92:	4618      	mov	r0, r3
 8001e94:	46bd      	mov	sp, r7
 8001e96:	f85d 7b04 	ldr.w	r7, [sp], #4
 8001e9a:	4770      	bx	lr
 8001e9c:	40021000 	.word	0x40021000

08001ea0 <LL_RCC_MSI_EnableRangeSelection>:
{
 8001ea0:	b480      	push	{r7}
 8001ea2:	af00      	add	r7, sp, #0
  SET_BIT(RCC->CR, RCC_CR_MSIRGSEL);
 8001ea4:	4b05      	ldr	r3, [pc, #20]	; (8001ebc <LL_RCC_MSI_EnableRangeSelection+0x1c>)
 8001ea6:	681b      	ldr	r3, [r3, #0]
 8001ea8:	4a04      	ldr	r2, [pc, #16]	; (8001ebc <LL_RCC_MSI_EnableRangeSelection+0x1c>)
 8001eaa:	f043 0308 	orr.w	r3, r3, #8
 8001eae:	6013      	str	r3, [r2, #0]
}
 8001eb0:	bf00      	nop
 8001eb2:	46bd      	mov	sp, r7
 8001eb4:	f85d 7b04 	ldr.w	r7, [sp], #4
 8001eb8:	4770      	bx	lr
 8001eba:	bf00      	nop
 8001ebc:	40021000 	.word	0x40021000

08001ec0 <LL_RCC_MSI_SetRange>:
{
 8001ec0:	b480      	push	{r7}
 8001ec2:	b083      	sub	sp, #12
 8001ec4:	af00      	add	r7, sp, #0
 8001ec6:	6078      	str	r0, [r7, #4]
  MODIFY_REG(RCC->CR, RCC_CR_MSIRANGE, Range);
 8001ec8:	4b06      	ldr	r3, [pc, #24]	; (8001ee4 <LL_RCC_MSI_SetRange+0x24>)
 8001eca:	681b      	ldr	r3, [r3, #0]
 8001ecc:	f023 02f0 	bic.w	r2, r3, #240	; 0xf0
 8001ed0:	4904      	ldr	r1, [pc, #16]	; (8001ee4 <LL_RCC_MSI_SetRange+0x24>)
 8001ed2:	687b      	ldr	r3, [r7, #4]
 8001ed4:	4313      	orrs	r3, r2
 8001ed6:	600b      	str	r3, [r1, #0]
}
 8001ed8:	bf00      	nop
 8001eda:	370c      	adds	r7, #12
 8001edc:	46bd      	mov	sp, r7
 8001ede:	f85d 7b04 	ldr.w	r7, [sp], #4
 8001ee2:	4770      	bx	lr
 8001ee4:	40021000 	.word	0x40021000

08001ee8 <LL_RCC_MSI_SetCalibTrimming>:
{
 8001ee8:	b480      	push	{r7}
 8001eea:	b083      	sub	sp, #12
 8001eec:	af00      	add	r7, sp, #0
 8001eee:	6078      	str	r0, [r7, #4]
  MODIFY_REG(RCC->ICSCR, RCC_ICSCR_MSITRIM, Value << RCC_ICSCR_MSITRIM_Pos);
 8001ef0:	4b07      	ldr	r3, [pc, #28]	; (8001f10 <LL_RCC_MSI_SetCalibTrimming+0x28>)
 8001ef2:	685b      	ldr	r3, [r3, #4]
 8001ef4:	f423 427f 	bic.w	r2, r3, #65280	; 0xff00
 8001ef8:	687b      	ldr	r3, [r7, #4]
 8001efa:	021b      	lsls	r3, r3, #8
 8001efc:	4904      	ldr	r1, [pc, #16]	; (8001f10 <LL_RCC_MSI_SetCalibTrimming+0x28>)
 8001efe:	4313      	orrs	r3, r2
 8001f00:	604b      	str	r3, [r1, #4]
}
 8001f02:	bf00      	nop
 8001f04:	370c      	adds	r7, #12
 8001f06:	46bd      	mov	sp, r7
 8001f08:	f85d 7b04 	ldr.w	r7, [sp], #4
 8001f0c:	4770      	bx	lr
 8001f0e:	bf00      	nop
 8001f10:	40021000 	.word	0x40021000

08001f14 <LL_RCC_SetSysClkSource>:
{
 8001f14:	b480      	push	{r7}
 8001f16:	b083      	sub	sp, #12
 8001f18:	af00      	add	r7, sp, #0
 8001f1a:	6078      	str	r0, [r7, #4]
  MODIFY_REG(RCC->CFGR, RCC_CFGR_SW, Source);
 8001f1c:	4b06      	ldr	r3, [pc, #24]	; (8001f38 <LL_RCC_SetSysClkSource+0x24>)
 8001f1e:	689b      	ldr	r3, [r3, #8]
 8001f20:	f023 0203 	bic.w	r2, r3, #3
 8001f24:	4904      	ldr	r1, [pc, #16]	; (8001f38 <LL_RCC_SetSysClkSource+0x24>)
 8001f26:	687b      	ldr	r3, [r7, #4]
 8001f28:	4313      	orrs	r3, r2
 8001f2a:	608b      	str	r3, [r1, #8]
}
 8001f2c:	bf00      	nop
 8001f2e:	370c      	adds	r7, #12
 8001f30:	46bd      	mov	sp, r7
 8001f32:	f85d 7b04 	ldr.w	r7, [sp], #4
 8001f36:	4770      	bx	lr
 8001f38:	40021000 	.word	0x40021000

08001f3c <LL_RCC_GetSysClkSource>:
{
 8001f3c:	b480      	push	{r7}
 8001f3e:	af00      	add	r7, sp, #0
  return (uint32_t)(READ_BIT(RCC->CFGR, RCC_CFGR_SWS));
 8001f40:	4b04      	ldr	r3, [pc, #16]	; (8001f54 <LL_RCC_GetSysClkSource+0x18>)
 8001f42:	689b      	ldr	r3, [r3, #8]
 8001f44:	f003 030c 	and.w	r3, r3, #12
}
 8001f48:	4618      	mov	r0, r3
 8001f4a:	46bd      	mov	sp, r7
 8001f4c:	f85d 7b04 	ldr.w	r7, [sp], #4
 8001f50:	4770      	bx	lr
 8001f52:	bf00      	nop
 8001f54:	40021000 	.word	0x40021000

08001f58 <LL_RCC_SetAHBPrescaler>:
{
 8001f58:	b480      	push	{r7}
 8001f5a:	b083      	sub	sp, #12
 8001f5c:	af00      	add	r7, sp, #0
 8001f5e:	6078      	str	r0, [r7, #4]
  MODIFY_REG(RCC->CFGR, RCC_CFGR_HPRE, Prescaler);
 8001f60:	4b06      	ldr	r3, [pc, #24]	; (8001f7c <LL_RCC_SetAHBPrescaler+0x24>)
 8001f62:	689b      	ldr	r3, [r3, #8]
 8001f64:	f023 02f0 	bic.w	r2, r3, #240	; 0xf0
 8001f68:	4904      	ldr	r1, [pc, #16]	; (8001f7c <LL_RCC_SetAHBPrescaler+0x24>)
 8001f6a:	687b      	ldr	r3, [r7, #4]
 8001f6c:	4313      	orrs	r3, r2
 8001f6e:	608b      	str	r3, [r1, #8]
}
 8001f70:	bf00      	nop
 8001f72:	370c      	adds	r7, #12
 8001f74:	46bd      	mov	sp, r7
 8001f76:	f85d 7b04 	ldr.w	r7, [sp], #4
 8001f7a:	4770      	bx	lr
 8001f7c:	40021000 	.word	0x40021000

08001f80 <LL_RCC_SetAPB1Prescaler>:
{
 8001f80:	b480      	push	{r7}
 8001f82:	b083      	sub	sp, #12
 8001f84:	af00      	add	r7, sp, #0
 8001f86:	6078      	str	r0, [r7, #4]
  MODIFY_REG(RCC->CFGR, RCC_CFGR_PPRE1, Prescaler);
 8001f88:	4b06      	ldr	r3, [pc, #24]	; (8001fa4 <LL_RCC_SetAPB1Prescaler+0x24>)
 8001f8a:	689b      	ldr	r3, [r3, #8]
 8001f8c:	f423 62e0 	bic.w	r2, r3, #1792	; 0x700
 8001f90:	4904      	ldr	r1, [pc, #16]	; (8001fa4 <LL_RCC_SetAPB1Prescaler+0x24>)
 8001f92:	687b      	ldr	r3, [r7, #4]
 8001f94:	4313      	orrs	r3, r2
 8001f96:	608b      	str	r3, [r1, #8]
}
 8001f98:	bf00      	nop
 8001f9a:	370c      	adds	r7, #12
 8001f9c:	46bd      	mov	sp, r7
 8001f9e:	f85d 7b04 	ldr.w	r7, [sp], #4
 8001fa2:	4770      	bx	lr
 8001fa4:	40021000 	.word	0x40021000

08001fa8 <LL_RCC_SetAPB2Prescaler>:
{
 8001fa8:	b480      	push	{r7}
 8001faa:	b083      	sub	sp, #12
 8001fac:	af00      	add	r7, sp, #0
 8001fae:	6078      	str	r0, [r7, #4]
  MODIFY_REG(RCC->CFGR, RCC_CFGR_PPRE2, Prescaler);
 8001fb0:	4b06      	ldr	r3, [pc, #24]	; (8001fcc <LL_RCC_SetAPB2Prescaler+0x24>)
 8001fb2:	689b      	ldr	r3, [r3, #8]
 8001fb4:	f423 5260 	bic.w	r2, r3, #14336	; 0x3800
 8001fb8:	4904      	ldr	r1, [pc, #16]	; (8001fcc <LL_RCC_SetAPB2Prescaler+0x24>)
 8001fba:	687b      	ldr	r3, [r7, #4]
 8001fbc:	4313      	orrs	r3, r2
 8001fbe:	608b      	str	r3, [r1, #8]
}
 8001fc0:	bf00      	nop
 8001fc2:	370c      	adds	r7, #12
 8001fc4:	46bd      	mov	sp, r7
 8001fc6:	f85d 7b04 	ldr.w	r7, [sp], #4
 8001fca:	4770      	bx	lr
 8001fcc:	40021000 	.word	0x40021000

08001fd0 <LL_RCC_PLL_Enable>:
  * @brief  Enable PLL
  * @rmtoll CR           PLLON         LL_RCC_PLL_Enable
  * @retval None
  */
__STATIC_INLINE void LL_RCC_PLL_Enable(void)
{
 8001fd0:	b480      	push	{r7}
 8001fd2:	af00      	add	r7, sp, #0
  SET_BIT(RCC->CR, RCC_CR_PLLON);
 8001fd4:	4b05      	ldr	r3, [pc, #20]	; (8001fec <LL_RCC_PLL_Enable+0x1c>)
 8001fd6:	681b      	ldr	r3, [r3, #0]
 8001fd8:	4a04      	ldr	r2, [pc, #16]	; (8001fec <LL_RCC_PLL_Enable+0x1c>)
 8001fda:	f043 7380 	orr.w	r3, r3, #16777216	; 0x1000000
 8001fde:	6013      	str	r3, [r2, #0]
}
 8001fe0:	bf00      	nop
 8001fe2:	46bd      	mov	sp, r7
 8001fe4:	f85d 7b04 	ldr.w	r7, [sp], #4
 8001fe8:	4770      	bx	lr
 8001fea:	bf00      	nop
 8001fec:	40021000 	.word	0x40021000

08001ff0 <LL_RCC_PLL_IsReady>:
  * @brief  Check if PLL Ready
  * @rmtoll CR           PLLRDY        LL_RCC_PLL_IsReady
  * @retval State of bit (1 or 0).
  */
__STATIC_INLINE uint32_t LL_RCC_PLL_IsReady(void)
{
 8001ff0:	b480      	push	{r7}
 8001ff2:	af00      	add	r7, sp, #0
  return ((READ_BIT(RCC->CR, RCC_CR_PLLRDY) == RCC_CR_PLLRDY) ? 1UL : 0UL);
 8001ff4:	4b07      	ldr	r3, [pc, #28]	; (8002014 <LL_RCC_PLL_IsReady+0x24>)
 8001ff6:	681b      	ldr	r3, [r3, #0]
 8001ff8:	f003 7300 	and.w	r3, r3, #33554432	; 0x2000000
 8001ffc:	f1b3 7f00 	cmp.w	r3, #33554432	; 0x2000000
 8002000:	d101      	bne.n	8002006 <LL_RCC_PLL_IsReady+0x16>
 8002002:	2301      	movs	r3, #1
 8002004:	e000      	b.n	8002008 <LL_RCC_PLL_IsReady+0x18>
 8002006:	2300      	movs	r3, #0
}
 8002008:	4618      	mov	r0, r3
 800200a:	46bd      	mov	sp, r7
 800200c:	f85d 7b04 	ldr.w	r7, [sp], #4
 8002010:	4770      	bx	lr
 8002012:	bf00      	nop
 8002014:	40021000 	.word	0x40021000

08002018 <LL_RCC_PLL_ConfigDomain_SYS>:
  *         @arg @ref LL_RCC_PLLR_DIV_6
  *         @arg @ref LL_RCC_PLLR_DIV_8
  * @retval None
  */
__STATIC_INLINE void LL_RCC_PLL_ConfigDomain_SYS(uint32_t Source, uint32_t PLLM, uint32_t PLLN, uint32_t PLLR)
{
 8002018:	b480      	push	{r7}
 800201a:	b085      	sub	sp, #20
 800201c:	af00      	add	r7, sp, #0
 800201e:	60f8      	str	r0, [r7, #12]
 8002020:	60b9      	str	r1, [r7, #8]
 8002022:	607a      	str	r2, [r7, #4]
 8002024:	603b      	str	r3, [r7, #0]
  MODIFY_REG(RCC->PLLCFGR, RCC_PLLCFGR_PLLSRC | RCC_PLLCFGR_PLLM | RCC_PLLCFGR_PLLN | RCC_PLLCFGR_PLLR,
 8002026:	4b0a      	ldr	r3, [pc, #40]	; (8002050 <LL_RCC_PLL_ConfigDomain_SYS+0x38>)
 8002028:	68da      	ldr	r2, [r3, #12]
 800202a:	4b0a      	ldr	r3, [pc, #40]	; (8002054 <LL_RCC_PLL_ConfigDomain_SYS+0x3c>)
 800202c:	4013      	ands	r3, r2
 800202e:	68f9      	ldr	r1, [r7, #12]
 8002030:	68ba      	ldr	r2, [r7, #8]
 8002032:	4311      	orrs	r1, r2
 8002034:	687a      	ldr	r2, [r7, #4]
 8002036:	0212      	lsls	r2, r2, #8
 8002038:	4311      	orrs	r1, r2
 800203a:	683a      	ldr	r2, [r7, #0]
 800203c:	430a      	orrs	r2, r1
 800203e:	4904      	ldr	r1, [pc, #16]	; (8002050 <LL_RCC_PLL_ConfigDomain_SYS+0x38>)
 8002040:	4313      	orrs	r3, r2
 8002042:	60cb      	str	r3, [r1, #12]
             Source | PLLM | (PLLN << RCC_PLLCFGR_PLLN_Pos) | PLLR);
}
 8002044:	bf00      	nop
 8002046:	3714      	adds	r7, #20
 8002048:	46bd      	mov	sp, r7
 800204a:	f85d 7b04 	ldr.w	r7, [sp], #4
 800204e:	4770      	bx	lr
 8002050:	40021000 	.word	0x40021000
 8002054:	f9ff808c 	.word	0xf9ff808c

08002058 <LL_RCC_PLL_EnableDomain_SYS>:
  * @brief  Enable PLL output mapped on SYSCLK domain
  * @rmtoll PLLCFGR      PLLREN        LL_RCC_PLL_EnableDomain_SYS
  * @retval None
  */
__STATIC_INLINE void LL_RCC_PLL_EnableDomain_SYS(void)
{
 8002058:	b480      	push	{r7}
 800205a:	af00      	add	r7, sp, #0
  SET_BIT(RCC->PLLCFGR, RCC_PLLCFGR_PLLREN);
 800205c:	4b05      	ldr	r3, [pc, #20]	; (8002074 <LL_RCC_PLL_EnableDomain_SYS+0x1c>)
 800205e:	68db      	ldr	r3, [r3, #12]
 8002060:	4a04      	ldr	r2, [pc, #16]	; (8002074 <LL_RCC_PLL_EnableDomain_SYS+0x1c>)
 8002062:	f043 7380 	orr.w	r3, r3, #16777216	; 0x1000000
 8002066:	60d3      	str	r3, [r2, #12]
}
 8002068:	bf00      	nop
 800206a:	46bd      	mov	sp, r7
 800206c:	f85d 7b04 	ldr.w	r7, [sp], #4
 8002070:	4770      	bx	lr
 8002072:	bf00      	nop
 8002074:	40021000 	.word	0x40021000

08002078 <LL_AHB2_GRP1_EnableClock>:
{
 8002078:	b480      	push	{r7}
 800207a:	b085      	sub	sp, #20
 800207c:	af00      	add	r7, sp, #0
 800207e:	6078      	str	r0, [r7, #4]
  SET_BIT(RCC->AHB2ENR, Periphs);
 8002080:	4b08      	ldr	r3, [pc, #32]	; (80020a4 <LL_AHB2_GRP1_EnableClock+0x2c>)
 8002082:	6cda      	ldr	r2, [r3, #76]	; 0x4c
 8002084:	4907      	ldr	r1, [pc, #28]	; (80020a4 <LL_AHB2_GRP1_EnableClock+0x2c>)
 8002086:	687b      	ldr	r3, [r7, #4]
 8002088:	4313      	orrs	r3, r2
 800208a:	64cb      	str	r3, [r1, #76]	; 0x4c
  tmpreg = READ_BIT(RCC->AHB2ENR, Periphs);
 800208c:	4b05      	ldr	r3, [pc, #20]	; (80020a4 <LL_AHB2_GRP1_EnableClock+0x2c>)
 800208e:	6cda      	ldr	r2, [r3, #76]	; 0x4c
 8002090:	687b      	ldr	r3, [r7, #4]
 8002092:	4013      	ands	r3, r2
 8002094:	60fb      	str	r3, [r7, #12]
  (void)tmpreg;
 8002096:	68fb      	ldr	r3, [r7, #12]
}
 8002098:	bf00      	nop
 800209a:	3714      	adds	r7, #20
 800209c:	46bd      	mov	sp, r7
 800209e:	f85d 7b04 	ldr.w	r7, [sp], #4
 80020a2:	4770      	bx	lr
 80020a4:	40021000 	.word	0x40021000

080020a8 <LL_APB1_GRP1_EnableClock>:
{
 80020a8:	b480      	push	{r7}
 80020aa:	b085      	sub	sp, #20
 80020ac:	af00      	add	r7, sp, #0
 80020ae:	6078      	str	r0, [r7, #4]
  SET_BIT(RCC->APB1ENR1, Periphs);
 80020b0:	4b08      	ldr	r3, [pc, #32]	; (80020d4 <LL_APB1_GRP1_EnableClock+0x2c>)
 80020b2:	6d9a      	ldr	r2, [r3, #88]	; 0x58
 80020b4:	4907      	ldr	r1, [pc, #28]	; (80020d4 <LL_APB1_GRP1_EnableClock+0x2c>)
 80020b6:	687b      	ldr	r3, [r7, #4]
 80020b8:	4313      	orrs	r3, r2
 80020ba:	658b      	str	r3, [r1, #88]	; 0x58
  tmpreg = READ_BIT(RCC->APB1ENR1, Periphs);
 80020bc:	4b05      	ldr	r3, [pc, #20]	; (80020d4 <LL_APB1_GRP1_EnableClock+0x2c>)
 80020be:	6d9a      	ldr	r2, [r3, #88]	; 0x58
 80020c0:	687b      	ldr	r3, [r7, #4]
 80020c2:	4013      	ands	r3, r2
 80020c4:	60fb      	str	r3, [r7, #12]
  (void)tmpreg;
 80020c6:	68fb      	ldr	r3, [r7, #12]
}
 80020c8:	bf00      	nop
 80020ca:	3714      	adds	r7, #20
 80020cc:	46bd      	mov	sp, r7
 80020ce:	f85d 7b04 	ldr.w	r7, [sp], #4
 80020d2:	4770      	bx	lr
 80020d4:	40021000 	.word	0x40021000

080020d8 <LL_APB2_GRP1_EnableClock>:
{
 80020d8:	b480      	push	{r7}
 80020da:	b085      	sub	sp, #20
 80020dc:	af00      	add	r7, sp, #0
 80020de:	6078      	str	r0, [r7, #4]
  SET_BIT(RCC->APB2ENR, Periphs);
 80020e0:	4b08      	ldr	r3, [pc, #32]	; (8002104 <LL_APB2_GRP1_EnableClock+0x2c>)
 80020e2:	6e1a      	ldr	r2, [r3, #96]	; 0x60
 80020e4:	4907      	ldr	r1, [pc, #28]	; (8002104 <LL_APB2_GRP1_EnableClock+0x2c>)
 80020e6:	687b      	ldr	r3, [r7, #4]
 80020e8:	4313      	orrs	r3, r2
 80020ea:	660b      	str	r3, [r1, #96]	; 0x60
  tmpreg = READ_BIT(RCC->APB2ENR, Periphs);
 80020ec:	4b05      	ldr	r3, [pc, #20]	; (8002104 <LL_APB2_GRP1_EnableClock+0x2c>)
 80020ee:	6e1a      	ldr	r2, [r3, #96]	; 0x60
 80020f0:	687b      	ldr	r3, [r7, #4]
 80020f2:	4013      	ands	r3, r2
 80020f4:	60fb      	str	r3, [r7, #12]
  (void)tmpreg;
 80020f6:	68fb      	ldr	r3, [r7, #12]
}
 80020f8:	bf00      	nop
 80020fa:	3714      	adds	r7, #20
 80020fc:	46bd      	mov	sp, r7
 80020fe:	f85d 7b04 	ldr.w	r7, [sp], #4
 8002102:	4770      	bx	lr
 8002104:	40021000 	.word	0x40021000

08002108 <LL_FLASH_SetLatency>:
  *
  *         (*) value not defined in all devices.
  * @retval None
  */
__STATIC_INLINE void LL_FLASH_SetLatency(uint32_t Latency)
{
 8002108:	b480      	push	{r7}
 800210a:	b083      	sub	sp, #12
 800210c:	af00      	add	r7, sp, #0
 800210e:	6078      	str	r0, [r7, #4]
  MODIFY_REG(FLASH->ACR, FLASH_ACR_LATENCY, Latency);
 8002110:	4b06      	ldr	r3, [pc, #24]	; (800212c <LL_FLASH_SetLatency+0x24>)
 8002112:	681b      	ldr	r3, [r3, #0]
 8002114:	f023 0207 	bic.w	r2, r3, #7
 8002118:	4904      	ldr	r1, [pc, #16]	; (800212c <LL_FLASH_SetLatency+0x24>)
 800211a:	687b      	ldr	r3, [r7, #4]
 800211c:	4313      	orrs	r3, r2
 800211e:	600b      	str	r3, [r1, #0]
}
 8002120:	bf00      	nop
 8002122:	370c      	adds	r7, #12
 8002124:	46bd      	mov	sp, r7
 8002126:	f85d 7b04 	ldr.w	r7, [sp], #4
 800212a:	4770      	bx	lr
 800212c:	40022000 	.word	0x40022000

08002130 <LL_FLASH_GetLatency>:
  *         @arg @ref LL_FLASH_LATENCY_15 (*)
  *
  *         (*) value not defined in all devices.
  */
__STATIC_INLINE uint32_t LL_FLASH_GetLatency(void)
{
 8002130:	b480      	push	{r7}
 8002132:	af00      	add	r7, sp, #0
  return (uint32_t)(READ_BIT(FLASH->ACR, FLASH_ACR_LATENCY));
 8002134:	4b04      	ldr	r3, [pc, #16]	; (8002148 <LL_FLASH_GetLatency+0x18>)
 8002136:	681b      	ldr	r3, [r3, #0]
 8002138:	f003 0307 	and.w	r3, r3, #7
}
 800213c:	4618      	mov	r0, r3
 800213e:	46bd      	mov	sp, r7
 8002140:	f85d 7b04 	ldr.w	r7, [sp], #4
 8002144:	4770      	bx	lr
 8002146:	bf00      	nop
 8002148:	40022000 	.word	0x40022000

0800214c <LL_PWR_SetRegulVoltageScaling>:
  *         @arg @ref LL_PWR_REGU_VOLTAGE_SCALE1
  *         @arg @ref LL_PWR_REGU_VOLTAGE_SCALE2
  * @retval None
  */
__STATIC_INLINE void LL_PWR_SetRegulVoltageScaling(uint32_t VoltageScaling)
{
 800214c:	b480      	push	{r7}
 800214e:	b083      	sub	sp, #12
 8002150:	af00      	add	r7, sp, #0
 8002152:	6078      	str	r0, [r7, #4]
  MODIFY_REG(PWR->CR1, PWR_CR1_VOS, VoltageScaling);
 8002154:	4b06      	ldr	r3, [pc, #24]	; (8002170 <LL_PWR_SetRegulVoltageScaling+0x24>)
 8002156:	681b      	ldr	r3, [r3, #0]
 8002158:	f423 62c0 	bic.w	r2, r3, #1536	; 0x600
 800215c:	4904      	ldr	r1, [pc, #16]	; (8002170 <LL_PWR_SetRegulVoltageScaling+0x24>)
 800215e:	687b      	ldr	r3, [r7, #4]
 8002160:	4313      	orrs	r3, r2
 8002162:	600b      	str	r3, [r1, #0]
}
 8002164:	bf00      	nop
 8002166:	370c      	adds	r7, #12
 8002168:	46bd      	mov	sp, r7
 800216a:	f85d 7b04 	ldr.w	r7, [sp], #4
 800216e:	4770      	bx	lr
 8002170:	40007000 	.word	0x40007000

08002174 <LL_PWR_IsActiveFlag_VOS>:
  * @brief  Indicate whether the regulator is ready in the selected voltage range or if its output voltage is still changing to the required voltage level
  * @rmtoll SR2          VOSF          LL_PWR_IsActiveFlag_VOS
  * @retval State of bit (1 or 0).
  */
__STATIC_INLINE uint32_t LL_PWR_IsActiveFlag_VOS(void)
{
 8002174:	b480      	push	{r7}
 8002176:	af00      	add	r7, sp, #0
  return ((READ_BIT(PWR->SR2, PWR_SR2_VOSF) == (PWR_SR2_VOSF)) ? 1UL : 0UL);
 8002178:	4b07      	ldr	r3, [pc, #28]	; (8002198 <LL_PWR_IsActiveFlag_VOS+0x24>)
 800217a:	695b      	ldr	r3, [r3, #20]
 800217c:	f403 6380 	and.w	r3, r3, #1024	; 0x400
 8002180:	f5b3 6f80 	cmp.w	r3, #1024	; 0x400
 8002184:	d101      	bne.n	800218a <LL_PWR_IsActiveFlag_VOS+0x16>
 8002186:	2301      	movs	r3, #1
 8002188:	e000      	b.n	800218c <LL_PWR_IsActiveFlag_VOS+0x18>
 800218a:	2300      	movs	r3, #0
}
 800218c:	4618      	mov	r0, r3
 800218e:	46bd      	mov	sp, r7
 8002190:	f85d 7b04 	ldr.w	r7, [sp], #4
 8002194:	4770      	bx	lr
 8002196:	bf00      	nop
 8002198:	40007000 	.word	0x40007000

0800219c <LL_TIM_EnableCounter>:
{
 800219c:	b480      	push	{r7}
 800219e:	b083      	sub	sp, #12
 80021a0:	af00      	add	r7, sp, #0
 80021a2:	6078      	str	r0, [r7, #4]
  SET_BIT(TIMx->CR1, TIM_CR1_CEN);
 80021a4:	687b      	ldr	r3, [r7, #4]
 80021a6:	681b      	ldr	r3, [r3, #0]
 80021a8:	f043 0201 	orr.w	r2, r3, #1
 80021ac:	687b      	ldr	r3, [r7, #4]
 80021ae:	601a      	str	r2, [r3, #0]
}
 80021b0:	bf00      	nop
 80021b2:	370c      	adds	r7, #12
 80021b4:	46bd      	mov	sp, r7
 80021b6:	f85d 7b04 	ldr.w	r7, [sp], #4
 80021ba:	4770      	bx	lr

080021bc <LL_TIM_SetCounterMode>:
{
 80021bc:	b480      	push	{r7}
 80021be:	b083      	sub	sp, #12
 80021c0:	af00      	add	r7, sp, #0
 80021c2:	6078      	str	r0, [r7, #4]
 80021c4:	6039      	str	r1, [r7, #0]
  MODIFY_REG(TIMx->CR1, (TIM_CR1_DIR | TIM_CR1_CMS), CounterMode);
 80021c6:	687b      	ldr	r3, [r7, #4]
 80021c8:	681b      	ldr	r3, [r3, #0]
 80021ca:	f023 0270 	bic.w	r2, r3, #112	; 0x70
 80021ce:	683b      	ldr	r3, [r7, #0]
 80021d0:	431a      	orrs	r2, r3
 80021d2:	687b      	ldr	r3, [r7, #4]
 80021d4:	601a      	str	r2, [r3, #0]
}
 80021d6:	bf00      	nop
 80021d8:	370c      	adds	r7, #12
 80021da:	46bd      	mov	sp, r7
 80021dc:	f85d 7b04 	ldr.w	r7, [sp], #4
 80021e0:	4770      	bx	lr

080021e2 <LL_TIM_DisableARRPreload>:
{
 80021e2:	b480      	push	{r7}
 80021e4:	b083      	sub	sp, #12
 80021e6:	af00      	add	r7, sp, #0
 80021e8:	6078      	str	r0, [r7, #4]
  CLEAR_BIT(TIMx->CR1, TIM_CR1_ARPE);
 80021ea:	687b      	ldr	r3, [r7, #4]
 80021ec:	681b      	ldr	r3, [r3, #0]
 80021ee:	f023 0280 	bic.w	r2, r3, #128	; 0x80
 80021f2:	687b      	ldr	r3, [r7, #4]
 80021f4:	601a      	str	r2, [r3, #0]
}
 80021f6:	bf00      	nop
 80021f8:	370c      	adds	r7, #12
 80021fa:	46bd      	mov	sp, r7
 80021fc:	f85d 7b04 	ldr.w	r7, [sp], #4
 8002200:	4770      	bx	lr

08002202 <LL_TIM_SetAutoReload>:
{
 8002202:	b480      	push	{r7}
 8002204:	b083      	sub	sp, #12
 8002206:	af00      	add	r7, sp, #0
 8002208:	6078      	str	r0, [r7, #4]
 800220a:	6039      	str	r1, [r7, #0]
  WRITE_REG(TIMx->ARR, AutoReload);
 800220c:	687b      	ldr	r3, [r7, #4]
 800220e:	683a      	ldr	r2, [r7, #0]
 8002210:	62da      	str	r2, [r3, #44]	; 0x2c
}
 8002212:	bf00      	nop
 8002214:	370c      	adds	r7, #12
 8002216:	46bd      	mov	sp, r7
 8002218:	f85d 7b04 	ldr.w	r7, [sp], #4
 800221c:	4770      	bx	lr
	...

08002220 <LL_TIM_OC_DisableFast>:
{
 8002220:	b480      	push	{r7}
 8002222:	b085      	sub	sp, #20
 8002224:	af00      	add	r7, sp, #0
 8002226:	6078      	str	r0, [r7, #4]
 8002228:	6039      	str	r1, [r7, #0]
  uint8_t iChannel = TIM_GET_CHANNEL_INDEX(Channel);
 800222a:	683b      	ldr	r3, [r7, #0]
 800222c:	2b01      	cmp	r3, #1
 800222e:	d028      	beq.n	8002282 <LL_TIM_OC_DisableFast+0x62>
 8002230:	683b      	ldr	r3, [r7, #0]
 8002232:	2b04      	cmp	r3, #4
 8002234:	d023      	beq.n	800227e <LL_TIM_OC_DisableFast+0x5e>
 8002236:	683b      	ldr	r3, [r7, #0]
 8002238:	2b10      	cmp	r3, #16
 800223a:	d01e      	beq.n	800227a <LL_TIM_OC_DisableFast+0x5a>
 800223c:	683b      	ldr	r3, [r7, #0]
 800223e:	2b40      	cmp	r3, #64	; 0x40
 8002240:	d019      	beq.n	8002276 <LL_TIM_OC_DisableFast+0x56>
 8002242:	683b      	ldr	r3, [r7, #0]
 8002244:	f5b3 7f80 	cmp.w	r3, #256	; 0x100
 8002248:	d013      	beq.n	8002272 <LL_TIM_OC_DisableFast+0x52>
 800224a:	683b      	ldr	r3, [r7, #0]
 800224c:	f5b3 6f80 	cmp.w	r3, #1024	; 0x400
 8002250:	d00d      	beq.n	800226e <LL_TIM_OC_DisableFast+0x4e>
 8002252:	683b      	ldr	r3, [r7, #0]
 8002254:	f5b3 5f80 	cmp.w	r3, #4096	; 0x1000
 8002258:	d007      	beq.n	800226a <LL_TIM_OC_DisableFast+0x4a>
 800225a:	683b      	ldr	r3, [r7, #0]
 800225c:	f5b3 3f80 	cmp.w	r3, #65536	; 0x10000
 8002260:	d101      	bne.n	8002266 <LL_TIM_OC_DisableFast+0x46>
 8002262:	2307      	movs	r3, #7
 8002264:	e00e      	b.n	8002284 <LL_TIM_OC_DisableFast+0x64>
 8002266:	2308      	movs	r3, #8
 8002268:	e00c      	b.n	8002284 <LL_TIM_OC_DisableFast+0x64>
 800226a:	2306      	movs	r3, #6
 800226c:	e00a      	b.n	8002284 <LL_TIM_OC_DisableFast+0x64>
 800226e:	2305      	movs	r3, #5
 8002270:	e008      	b.n	8002284 <LL_TIM_OC_DisableFast+0x64>
 8002272:	2304      	movs	r3, #4
 8002274:	e006      	b.n	8002284 <LL_TIM_OC_DisableFast+0x64>
 8002276:	2303      	movs	r3, #3
 8002278:	e004      	b.n	8002284 <LL_TIM_OC_DisableFast+0x64>
 800227a:	2302      	movs	r3, #2
 800227c:	e002      	b.n	8002284 <LL_TIM_OC_DisableFast+0x64>
 800227e:	2301      	movs	r3, #1
 8002280:	e000      	b.n	8002284 <LL_TIM_OC_DisableFast+0x64>
 8002282:	2300      	movs	r3, #0
 8002284:	73fb      	strb	r3, [r7, #15]
  __IO uint32_t *pReg = (__IO uint32_t *)((uint32_t)((uint32_t)(&TIMx->CCMR1) + OFFSET_TAB_CCMRx[iChannel]));
 8002286:	687b      	ldr	r3, [r7, #4]
 8002288:	3318      	adds	r3, #24
 800228a:	4619      	mov	r1, r3
 800228c:	7bfb      	ldrb	r3, [r7, #15]
 800228e:	4a0b      	ldr	r2, [pc, #44]	; (80022bc <LL_TIM_OC_DisableFast+0x9c>)
 8002290:	5cd3      	ldrb	r3, [r2, r3]
 8002292:	440b      	add	r3, r1
 8002294:	60bb      	str	r3, [r7, #8]
  CLEAR_BIT(*pReg, (TIM_CCMR1_OC1FE << SHIFT_TAB_OCxx[iChannel]));
 8002296:	68bb      	ldr	r3, [r7, #8]
 8002298:	681a      	ldr	r2, [r3, #0]
 800229a:	7bfb      	ldrb	r3, [r7, #15]
 800229c:	4908      	ldr	r1, [pc, #32]	; (80022c0 <LL_TIM_OC_DisableFast+0xa0>)
 800229e:	5ccb      	ldrb	r3, [r1, r3]
 80022a0:	4619      	mov	r1, r3
 80022a2:	2304      	movs	r3, #4
 80022a4:	408b      	lsls	r3, r1
 80022a6:	43db      	mvns	r3, r3
 80022a8:	401a      	ands	r2, r3
 80022aa:	68bb      	ldr	r3, [r7, #8]
 80022ac:	601a      	str	r2, [r3, #0]
}
 80022ae:	bf00      	nop
 80022b0:	3714      	adds	r7, #20
 80022b2:	46bd      	mov	sp, r7
 80022b4:	f85d 7b04 	ldr.w	r7, [sp], #4
 80022b8:	4770      	bx	lr
 80022ba:	bf00      	nop
 80022bc:	08006670 	.word	0x08006670
 80022c0:	0800667c 	.word	0x0800667c

080022c4 <LL_TIM_OC_EnablePreload>:
{
 80022c4:	b480      	push	{r7}
 80022c6:	b085      	sub	sp, #20
 80022c8:	af00      	add	r7, sp, #0
 80022ca:	6078      	str	r0, [r7, #4]
 80022cc:	6039      	str	r1, [r7, #0]
  uint8_t iChannel = TIM_GET_CHANNEL_INDEX(Channel);
 80022ce:	683b      	ldr	r3, [r7, #0]
 80022d0:	2b01      	cmp	r3, #1
 80022d2:	d028      	beq.n	8002326 <LL_TIM_OC_EnablePreload+0x62>
 80022d4:	683b      	ldr	r3, [r7, #0]
 80022d6:	2b04      	cmp	r3, #4
 80022d8:	d023      	beq.n	8002322 <LL_TIM_OC_EnablePreload+0x5e>
 80022da:	683b      	ldr	r3, [r7, #0]
 80022dc:	2b10      	cmp	r3, #16
 80022de:	d01e      	beq.n	800231e <LL_TIM_OC_EnablePreload+0x5a>
 80022e0:	683b      	ldr	r3, [r7, #0]
 80022e2:	2b40      	cmp	r3, #64	; 0x40
 80022e4:	d019      	beq.n	800231a <LL_TIM_OC_EnablePreload+0x56>
 80022e6:	683b      	ldr	r3, [r7, #0]
 80022e8:	f5b3 7f80 	cmp.w	r3, #256	; 0x100
 80022ec:	d013      	beq.n	8002316 <LL_TIM_OC_EnablePreload+0x52>
 80022ee:	683b      	ldr	r3, [r7, #0]
 80022f0:	f5b3 6f80 	cmp.w	r3, #1024	; 0x400
 80022f4:	d00d      	beq.n	8002312 <LL_TIM_OC_EnablePreload+0x4e>
 80022f6:	683b      	ldr	r3, [r7, #0]
 80022f8:	f5b3 5f80 	cmp.w	r3, #4096	; 0x1000
 80022fc:	d007      	beq.n	800230e <LL_TIM_OC_EnablePreload+0x4a>
 80022fe:	683b      	ldr	r3, [r7, #0]
 8002300:	f5b3 3f80 	cmp.w	r3, #65536	; 0x10000
 8002304:	d101      	bne.n	800230a <LL_TIM_OC_EnablePreload+0x46>
 8002306:	2307      	movs	r3, #7
 8002308:	e00e      	b.n	8002328 <LL_TIM_OC_EnablePreload+0x64>
 800230a:	2308      	movs	r3, #8
 800230c:	e00c      	b.n	8002328 <LL_TIM_OC_EnablePreload+0x64>
 800230e:	2306      	movs	r3, #6
 8002310:	e00a      	b.n	8002328 <LL_TIM_OC_EnablePreload+0x64>
 8002312:	2305      	movs	r3, #5
 8002314:	e008      	b.n	8002328 <LL_TIM_OC_EnablePreload+0x64>
 8002316:	2304      	movs	r3, #4
 8002318:	e006      	b.n	8002328 <LL_TIM_OC_EnablePreload+0x64>
 800231a:	2303      	movs	r3, #3
 800231c:	e004      	b.n	8002328 <LL_TIM_OC_EnablePreload+0x64>
 800231e:	2302      	movs	r3, #2
 8002320:	e002      	b.n	8002328 <LL_TIM_OC_EnablePreload+0x64>
 8002322:	2301      	movs	r3, #1
 8002324:	e000      	b.n	8002328 <LL_TIM_OC_EnablePreload+0x64>
 8002326:	2300      	movs	r3, #0
 8002328:	73fb      	strb	r3, [r7, #15]
  __IO uint32_t *pReg = (__IO uint32_t *)((uint32_t)((uint32_t)(&TIMx->CCMR1) + OFFSET_TAB_CCMRx[iChannel]));
 800232a:	687b      	ldr	r3, [r7, #4]
 800232c:	3318      	adds	r3, #24
 800232e:	4619      	mov	r1, r3
 8002330:	7bfb      	ldrb	r3, [r7, #15]
 8002332:	4a0a      	ldr	r2, [pc, #40]	; (800235c <LL_TIM_OC_EnablePreload+0x98>)
 8002334:	5cd3      	ldrb	r3, [r2, r3]
 8002336:	440b      	add	r3, r1
 8002338:	60bb      	str	r3, [r7, #8]
  SET_BIT(*pReg, (TIM_CCMR1_OC1PE << SHIFT_TAB_OCxx[iChannel]));
 800233a:	68bb      	ldr	r3, [r7, #8]
 800233c:	681a      	ldr	r2, [r3, #0]
 800233e:	7bfb      	ldrb	r3, [r7, #15]
 8002340:	4907      	ldr	r1, [pc, #28]	; (8002360 <LL_TIM_OC_EnablePreload+0x9c>)
 8002342:	5ccb      	ldrb	r3, [r1, r3]
 8002344:	4619      	mov	r1, r3
 8002346:	2308      	movs	r3, #8
 8002348:	408b      	lsls	r3, r1
 800234a:	431a      	orrs	r2, r3
 800234c:	68bb      	ldr	r3, [r7, #8]
 800234e:	601a      	str	r2, [r3, #0]
}
 8002350:	bf00      	nop
 8002352:	3714      	adds	r7, #20
 8002354:	46bd      	mov	sp, r7
 8002356:	f85d 7b04 	ldr.w	r7, [sp], #4
 800235a:	4770      	bx	lr
 800235c:	08006670 	.word	0x08006670
 8002360:	0800667c 	.word	0x0800667c

08002364 <LL_TIM_DisableExternalClock>:
{
 8002364:	b480      	push	{r7}
 8002366:	b083      	sub	sp, #12
 8002368:	af00      	add	r7, sp, #0
 800236a:	6078      	str	r0, [r7, #4]
  CLEAR_BIT(TIMx->SMCR, TIM_SMCR_ECE);
 800236c:	687b      	ldr	r3, [r7, #4]
 800236e:	689b      	ldr	r3, [r3, #8]
 8002370:	f423 4280 	bic.w	r2, r3, #16384	; 0x4000
 8002374:	687b      	ldr	r3, [r7, #4]
 8002376:	609a      	str	r2, [r3, #8]
}
 8002378:	bf00      	nop
 800237a:	370c      	adds	r7, #12
 800237c:	46bd      	mov	sp, r7
 800237e:	f85d 7b04 	ldr.w	r7, [sp], #4
 8002382:	4770      	bx	lr

08002384 <LL_TIM_SetClockSource>:
{
 8002384:	b480      	push	{r7}
 8002386:	b083      	sub	sp, #12
 8002388:	af00      	add	r7, sp, #0
 800238a:	6078      	str	r0, [r7, #4]
 800238c:	6039      	str	r1, [r7, #0]
  MODIFY_REG(TIMx->SMCR, TIM_SMCR_SMS | TIM_SMCR_ECE, ClockSource);
 800238e:	687b      	ldr	r3, [r7, #4]
 8002390:	689b      	ldr	r3, [r3, #8]
 8002392:	f423 33a0 	bic.w	r3, r3, #81920	; 0x14000
 8002396:	f023 0307 	bic.w	r3, r3, #7
 800239a:	683a      	ldr	r2, [r7, #0]
 800239c:	431a      	orrs	r2, r3
 800239e:	687b      	ldr	r3, [r7, #4]
 80023a0:	609a      	str	r2, [r3, #8]
}
 80023a2:	bf00      	nop
 80023a4:	370c      	adds	r7, #12
 80023a6:	46bd      	mov	sp, r7
 80023a8:	f85d 7b04 	ldr.w	r7, [sp], #4
 80023ac:	4770      	bx	lr

080023ae <LL_TIM_SetTriggerOutput>:
{
 80023ae:	b480      	push	{r7}
 80023b0:	b083      	sub	sp, #12
 80023b2:	af00      	add	r7, sp, #0
 80023b4:	6078      	str	r0, [r7, #4]
 80023b6:	6039      	str	r1, [r7, #0]
  MODIFY_REG(TIMx->CR2, TIM_CR2_MMS, TimerSynchronization);
 80023b8:	687b      	ldr	r3, [r7, #4]
 80023ba:	685b      	ldr	r3, [r3, #4]
 80023bc:	f023 0270 	bic.w	r2, r3, #112	; 0x70
 80023c0:	683b      	ldr	r3, [r7, #0]
 80023c2:	431a      	orrs	r2, r3
 80023c4:	687b      	ldr	r3, [r7, #4]
 80023c6:	605a      	str	r2, [r3, #4]
}
 80023c8:	bf00      	nop
 80023ca:	370c      	adds	r7, #12
 80023cc:	46bd      	mov	sp, r7
 80023ce:	f85d 7b04 	ldr.w	r7, [sp], #4
 80023d2:	4770      	bx	lr

080023d4 <LL_TIM_DisableMasterSlaveMode>:
{
 80023d4:	b480      	push	{r7}
 80023d6:	b083      	sub	sp, #12
 80023d8:	af00      	add	r7, sp, #0
 80023da:	6078      	str	r0, [r7, #4]
  CLEAR_BIT(TIMx->SMCR, TIM_SMCR_MSM);
 80023dc:	687b      	ldr	r3, [r7, #4]
 80023de:	689b      	ldr	r3, [r3, #8]
 80023e0:	f023 0280 	bic.w	r2, r3, #128	; 0x80
 80023e4:	687b      	ldr	r3, [r7, #4]
 80023e6:	609a      	str	r2, [r3, #8]
}
 80023e8:	bf00      	nop
 80023ea:	370c      	adds	r7, #12
 80023ec:	46bd      	mov	sp, r7
 80023ee:	f85d 7b04 	ldr.w	r7, [sp], #4
 80023f2:	4770      	bx	lr

080023f4 <LL_TIM_ConfigETR>:
{
 80023f4:	b480      	push	{r7}
 80023f6:	b085      	sub	sp, #20
 80023f8:	af00      	add	r7, sp, #0
 80023fa:	60f8      	str	r0, [r7, #12]
 80023fc:	60b9      	str	r1, [r7, #8]
 80023fe:	607a      	str	r2, [r7, #4]
 8002400:	603b      	str	r3, [r7, #0]
  MODIFY_REG(TIMx->SMCR, TIM_SMCR_ETP | TIM_SMCR_ETPS | TIM_SMCR_ETF, ETRPolarity | ETRPrescaler | ETRFilter);
 8002402:	68fb      	ldr	r3, [r7, #12]
 8002404:	689b      	ldr	r3, [r3, #8]
 8002406:	f423 423f 	bic.w	r2, r3, #48896	; 0xbf00
 800240a:	68b9      	ldr	r1, [r7, #8]
 800240c:	687b      	ldr	r3, [r7, #4]
 800240e:	4319      	orrs	r1, r3
 8002410:	683b      	ldr	r3, [r7, #0]
 8002412:	430b      	orrs	r3, r1
 8002414:	431a      	orrs	r2, r3
 8002416:	68fb      	ldr	r3, [r7, #12]
 8002418:	609a      	str	r2, [r3, #8]
}
 800241a:	bf00      	nop
 800241c:	3714      	adds	r7, #20
 800241e:	46bd      	mov	sp, r7
 8002420:	f85d 7b04 	ldr.w	r7, [sp], #4
 8002424:	4770      	bx	lr

08002426 <LL_TIM_SetOCRefClearInputSource>:
{
 8002426:	b480      	push	{r7}
 8002428:	b083      	sub	sp, #12
 800242a:	af00      	add	r7, sp, #0
 800242c:	6078      	str	r0, [r7, #4]
 800242e:	6039      	str	r1, [r7, #0]
  MODIFY_REG(TIMx->SMCR, TIM_SMCR_OCCS, OCRefClearInputSource);
 8002430:	687b      	ldr	r3, [r7, #4]
 8002432:	689b      	ldr	r3, [r3, #8]
 8002434:	f023 0208 	bic.w	r2, r3, #8
 8002438:	683b      	ldr	r3, [r7, #0]
 800243a:	431a      	orrs	r2, r3
 800243c:	687b      	ldr	r3, [r7, #4]
 800243e:	609a      	str	r2, [r3, #8]
}
 8002440:	bf00      	nop
 8002442:	370c      	adds	r7, #12
 8002444:	46bd      	mov	sp, r7
 8002446:	f85d 7b04 	ldr.w	r7, [sp], #4
 800244a:	4770      	bx	lr

0800244c <LL_TIM_ClearFlag_UPDATE>:
{
 800244c:	b480      	push	{r7}
 800244e:	b083      	sub	sp, #12
 8002450:	af00      	add	r7, sp, #0
 8002452:	6078      	str	r0, [r7, #4]
  WRITE_REG(TIMx->SR, ~(TIM_SR_UIF));
 8002454:	687b      	ldr	r3, [r7, #4]
 8002456:	f06f 0201 	mvn.w	r2, #1
 800245a:	611a      	str	r2, [r3, #16]
}
 800245c:	bf00      	nop
 800245e:	370c      	adds	r7, #12
 8002460:	46bd      	mov	sp, r7
 8002462:	f85d 7b04 	ldr.w	r7, [sp], #4
 8002466:	4770      	bx	lr

08002468 <LL_TIM_IsActiveFlag_UPDATE>:
{
 8002468:	b480      	push	{r7}
 800246a:	b083      	sub	sp, #12
 800246c:	af00      	add	r7, sp, #0
 800246e:	6078      	str	r0, [r7, #4]
  return ((READ_BIT(TIMx->SR, TIM_SR_UIF) == (TIM_SR_UIF)) ? 1UL : 0UL);
 8002470:	687b      	ldr	r3, [r7, #4]
 8002472:	691b      	ldr	r3, [r3, #16]
 8002474:	f003 0301 	and.w	r3, r3, #1
 8002478:	2b01      	cmp	r3, #1
 800247a:	d101      	bne.n	8002480 <LL_TIM_IsActiveFlag_UPDATE+0x18>
 800247c:	2301      	movs	r3, #1
 800247e:	e000      	b.n	8002482 <LL_TIM_IsActiveFlag_UPDATE+0x1a>
 8002480:	2300      	movs	r3, #0
}
 8002482:	4618      	mov	r0, r3
 8002484:	370c      	adds	r7, #12
 8002486:	46bd      	mov	sp, r7
 8002488:	f85d 7b04 	ldr.w	r7, [sp], #4
 800248c:	4770      	bx	lr

0800248e <LL_TIM_EnableIT_UPDATE>:
{
 800248e:	b480      	push	{r7}
 8002490:	b083      	sub	sp, #12
 8002492:	af00      	add	r7, sp, #0
 8002494:	6078      	str	r0, [r7, #4]
  SET_BIT(TIMx->DIER, TIM_DIER_UIE);
 8002496:	687b      	ldr	r3, [r7, #4]
 8002498:	68db      	ldr	r3, [r3, #12]
 800249a:	f043 0201 	orr.w	r2, r3, #1
 800249e:	687b      	ldr	r3, [r7, #4]
 80024a0:	60da      	str	r2, [r3, #12]
}
 80024a2:	bf00      	nop
 80024a4:	370c      	adds	r7, #12
 80024a6:	46bd      	mov	sp, r7
 80024a8:	f85d 7b04 	ldr.w	r7, [sp], #4
 80024ac:	4770      	bx	lr

080024ae <LL_TIM_GenerateEvent_UPDATE>:
  * @rmtoll EGR          UG            LL_TIM_GenerateEvent_UPDATE
  * @param  TIMx Timer instance
  * @retval None
  */
__STATIC_INLINE void LL_TIM_GenerateEvent_UPDATE(TIM_TypeDef *TIMx)
{
 80024ae:	b480      	push	{r7}
 80024b0:	b083      	sub	sp, #12
 80024b2:	af00      	add	r7, sp, #0
 80024b4:	6078      	str	r0, [r7, #4]
  SET_BIT(TIMx->EGR, TIM_EGR_UG);
 80024b6:	687b      	ldr	r3, [r7, #4]
 80024b8:	695b      	ldr	r3, [r3, #20]
 80024ba:	f043 0201 	orr.w	r2, r3, #1
 80024be:	687b      	ldr	r3, [r7, #4]
 80024c0:	615a      	str	r2, [r3, #20]
}
 80024c2:	bf00      	nop
 80024c4:	370c      	adds	r7, #12
 80024c6:	46bd      	mov	sp, r7
 80024c8:	f85d 7b04 	ldr.w	r7, [sp], #4
 80024cc:	4770      	bx	lr

080024ce <LL_GPIO_ResetOutputPin>:
  *         @arg @ref LL_GPIO_PIN_15
  *         @arg @ref LL_GPIO_PIN_ALL
  * @retval None
  */
__STATIC_INLINE void LL_GPIO_ResetOutputPin(GPIO_TypeDef *GPIOx, uint32_t PinMask)
{
 80024ce:	b480      	push	{r7}
 80024d0:	b083      	sub	sp, #12
 80024d2:	af00      	add	r7, sp, #0
 80024d4:	6078      	str	r0, [r7, #4]
 80024d6:	6039      	str	r1, [r7, #0]
  WRITE_REG(GPIOx->BRR, PinMask);
 80024d8:	687b      	ldr	r3, [r7, #4]
 80024da:	683a      	ldr	r2, [r7, #0]
 80024dc:	629a      	str	r2, [r3, #40]	; 0x28
}
 80024de:	bf00      	nop
 80024e0:	370c      	adds	r7, #12
 80024e2:	46bd      	mov	sp, r7
 80024e4:	f85d 7b04 	ldr.w	r7, [sp], #4
 80024e8:	4770      	bx	lr

080024ea <LL_GPIO_TogglePin>:
  *         @arg @ref LL_GPIO_PIN_15
  *         @arg @ref LL_GPIO_PIN_ALL
  * @retval None
  */
__STATIC_INLINE void LL_GPIO_TogglePin(GPIO_TypeDef *GPIOx, uint32_t PinMask)
{
 80024ea:	b480      	push	{r7}
 80024ec:	b085      	sub	sp, #20
 80024ee:	af00      	add	r7, sp, #0
 80024f0:	6078      	str	r0, [r7, #4]
 80024f2:	6039      	str	r1, [r7, #0]
  uint32_t odr = READ_REG(GPIOx->ODR);
 80024f4:	687b      	ldr	r3, [r7, #4]
 80024f6:	695b      	ldr	r3, [r3, #20]
 80024f8:	60fb      	str	r3, [r7, #12]
  WRITE_REG(GPIOx->BSRR, ((odr & PinMask) << 16u) | (~odr & PinMask));
 80024fa:	68fa      	ldr	r2, [r7, #12]
 80024fc:	683b      	ldr	r3, [r7, #0]
 80024fe:	4013      	ands	r3, r2
 8002500:	041a      	lsls	r2, r3, #16
 8002502:	68fb      	ldr	r3, [r7, #12]
 8002504:	43d9      	mvns	r1, r3
 8002506:	683b      	ldr	r3, [r7, #0]
 8002508:	400b      	ands	r3, r1
 800250a:	431a      	orrs	r2, r3
 800250c:	687b      	ldr	r3, [r7, #4]
 800250e:	619a      	str	r2, [r3, #24]
}
 8002510:	bf00      	nop
 8002512:	3714      	adds	r7, #20
 8002514:	46bd      	mov	sp, r7
 8002516:	f85d 7b04 	ldr.w	r7, [sp], #4
 800251a:	4770      	bx	lr

0800251c <main>:
/**
  * @brief  The application entry point.
  * @retval int
  */
int main(void)
{
 800251c:	b580      	push	{r7, lr}
 800251e:	f5ad 7d24 	sub.w	sp, sp, #656	; 0x290
 8002522:	af00      	add	r7, sp, #0
  /* USER CODE BEGIN 1 */
  int* Buzz_Check = 0, Buzz = 0;
 8002524:	2300      	movs	r3, #0
 8002526:	f8c7 328c 	str.w	r3, [r7, #652]	; 0x28c
 800252a:	2300      	movs	r3, #0
 800252c:	f8c7 3288 	str.w	r3, [r7, #648]	; 0x288
  /* USER CODE END 1 */

  /* MCU Configuration--------------------------------------------------------*/

  /* Reset of all peripherals, Initializes the Flash interface and the Systick. */
  LL_APB2_GRP1_EnableClock(LL_APB2_GRP1_PERIPH_SYSCFG);
 8002530:	2001      	movs	r0, #1
 8002532:	f7ff fdd1 	bl	80020d8 <LL_APB2_GRP1_EnableClock>
  LL_APB1_GRP1_EnableClock(LL_APB1_GRP1_PERIPH_PWR);
 8002536:	f04f 5080 	mov.w	r0, #268435456	; 0x10000000
 800253a:	f7ff fdb5 	bl	80020a8 <LL_APB1_GRP1_EnableClock>

  /* System interrupt init*/
  NVIC_SetPriorityGrouping(NVIC_PRIORITYGROUP_4);
 800253e:	2003      	movs	r0, #3
 8002540:	f7ff fbde 	bl	8001d00 <__NVIC_SetPriorityGrouping>

  /* SysTick_IRQn interrupt configuration */
  NVIC_SetPriority(SysTick_IRQn, NVIC_EncodePriority(NVIC_GetPriorityGrouping(),15, 0));
 8002544:	f7ff fc00 	bl	8001d48 <__NVIC_GetPriorityGrouping>
 8002548:	4603      	mov	r3, r0
 800254a:	2200      	movs	r2, #0
 800254c:	210f      	movs	r1, #15
 800254e:	4618      	mov	r0, r3
 8002550:	f7ff fc50 	bl	8001df4 <NVIC_EncodePriority>
 8002554:	4603      	mov	r3, r0
 8002556:	4619      	mov	r1, r3
 8002558:	f04f 30ff 	mov.w	r0, #4294967295
 800255c:	f7ff fc20 	bl	8001da0 <__NVIC_SetPriority>
  /* USER CODE BEGIN Init */

  /* USER CODE END Init */

  /* Configure the system clock */
  SystemClock_Config();
 8002560:	f000 f832 	bl	80025c8 <SystemClock_Config>
  /* USER CO_DE BEGIN SysInit */

  /* USER CODE END SysInit */

  /* Initialize all configured peripherals */
  MX_GPIO_Init();
 8002564:	f000 f974 	bl	8002850 <MX_GPIO_Init>
  MX_TIM6_Init();
 8002568:	f000 f8fc 	bl	8002764 <MX_TIM6_Init>
  MX_TIM3_Init();
 800256c:	f000 f87e 	bl	800266c <MX_TIM3_Init>
  MX_TIM7_Init();
 8002570:	f000 f92c 	bl	80027cc <MX_TIM7_Init>
  /* USER CODE BEGIN 2 */
  	  time = START_TIME;
 8002574:	4b12      	ldr	r3, [pc, #72]	; (80025c0 <main+0xa4>)
 8002576:	220f      	movs	r2, #15
 8002578:	601a      	str	r2, [r3, #0]
  	  dma_init();
 800257a:	f7ff fa03 	bl	8001984 <dma_init>
  	  enable_timer3();
 800257e:	f7ff f9cf 	bl	8001920 <enable_timer3>
  	  TM1637_gpio_init();
 8002582:	f000 fd49 	bl	8003018 <TM1637_gpio_init>
  	  TM1637_Init();
 8002586:	f000 fbfb 	bl	8002d80 <TM1637_Init>
  	  TM1637_SetBrightness(8);
 800258a:	2008      	movs	r0, #8
 800258c:	f000 fcb6 	bl	8002efc <TM1637_SetBrightness>
  	  usart1_init();
 8002590:	f7fe fdf2 	bl	8001178 <usart1_init>
  while (1)
  {
    /* USER CODE END WHILE */

    /* USER CODE BEGIN 3 */
  	Buzz_Buzz_Up(Buzz_Check);
 8002594:	f8d7 028c 	ldr.w	r0, [r7, #652]	; 0x28c
 8002598:	f000 fac6 	bl	8002b28 <Buzz_Buzz_Up>
  	Buzz_Buzz(500, 2, Buzz, Buzz_Check);
 800259c:	f8d7 2288 	ldr.w	r2, [r7, #648]	; 0x288
 80025a0:	f8d7 328c 	ldr.w	r3, [r7, #652]	; 0x28c
 80025a4:	2102      	movs	r1, #2
 80025a6:	f44f 70fa 	mov.w	r0, #500	; 0x1f4
 80025aa:	f000 fa69 	bl	8002a80 <Buzz_Buzz>
  	if(data.flag == 0)
 80025ae:	4b05      	ldr	r3, [pc, #20]	; (80025c4 <main+0xa8>)
 80025b0:	791b      	ldrb	r3, [r3, #4]
 80025b2:	2b00      	cmp	r3, #0
 80025b4:	d1ee      	bne.n	8002594 <main+0x78>
  	{
  		AutomaticLedMode(&ledData);
 80025b6:	463b      	mov	r3, r7
 80025b8:	4618      	mov	r0, r3
 80025ba:	f000 f9a9 	bl	8002910 <AutomaticLedMode>
  	Buzz_Buzz_Up(Buzz_Check);
 80025be:	e7e9      	b.n	8002594 <main+0x78>
 80025c0:	200000bc 	.word	0x200000bc
 80025c4:	200000b4 	.word	0x200000b4

080025c8 <SystemClock_Config>:
/**
  * @brief System Clock Configuration
  * @retval None
  */
void SystemClock_Config(void)
{
 80025c8:	b580      	push	{r7, lr}
 80025ca:	af00      	add	r7, sp, #0
  LL_FLASH_SetLatency(LL_FLASH_LATENCY_1);
 80025cc:	2001      	movs	r0, #1
 80025ce:	f7ff fd9b 	bl	8002108 <LL_FLASH_SetLatency>
  while(LL_FLASH_GetLatency()!= LL_FLASH_LATENCY_1)
 80025d2:	bf00      	nop
 80025d4:	f7ff fdac 	bl	8002130 <LL_FLASH_GetLatency>
 80025d8:	4603      	mov	r3, r0
 80025da:	2b01      	cmp	r3, #1
 80025dc:	d1fa      	bne.n	80025d4 <SystemClock_Config+0xc>
  {
  }
  LL_PWR_SetRegulVoltageScaling(LL_PWR_REGU_VOLTAGE_SCALE1);
 80025de:	f44f 7000 	mov.w	r0, #512	; 0x200
 80025e2:	f7ff fdb3 	bl	800214c <LL_PWR_SetRegulVoltageScaling>
  while (LL_PWR_IsActiveFlag_VOS() != 0)
 80025e6:	bf00      	nop
 80025e8:	f7ff fdc4 	bl	8002174 <LL_PWR_IsActiveFlag_VOS>
 80025ec:	4603      	mov	r3, r0
 80025ee:	2b00      	cmp	r3, #0
 80025f0:	d1fa      	bne.n	80025e8 <SystemClock_Config+0x20>
  {
  }
  LL_RCC_MSI_Enable();
 80025f2:	f7ff fc33 	bl	8001e5c <LL_RCC_MSI_Enable>

   /* Wait till MSI is ready */
  while(LL_RCC_MSI_IsReady() != 1)
 80025f6:	bf00      	nop
 80025f8:	f7ff fc40 	bl	8001e7c <LL_RCC_MSI_IsReady>
 80025fc:	4603      	mov	r3, r0
 80025fe:	2b01      	cmp	r3, #1
 8002600:	d1fa      	bne.n	80025f8 <SystemClock_Config+0x30>
  {

  }
  LL_RCC_MSI_EnableRangeSelection();
 8002602:	f7ff fc4d 	bl	8001ea0 <LL_RCC_MSI_EnableRangeSelection>
  LL_RCC_MSI_SetRange(LL_RCC_MSIRANGE_6);
 8002606:	2060      	movs	r0, #96	; 0x60
 8002608:	f7ff fc5a 	bl	8001ec0 <LL_RCC_MSI_SetRange>
  LL_RCC_MSI_SetCalibTrimming(0);
 800260c:	2000      	movs	r0, #0
 800260e:	f7ff fc6b 	bl	8001ee8 <LL_RCC_MSI_SetCalibTrimming>
  LL_RCC_PLL_ConfigDomain_SYS(LL_RCC_PLLSOURCE_MSI, LL_RCC_PLLM_DIV_1, 16, LL_RCC_PLLR_DIV_2);
 8002612:	2300      	movs	r3, #0
 8002614:	2210      	movs	r2, #16
 8002616:	2100      	movs	r1, #0
 8002618:	2001      	movs	r0, #1
 800261a:	f7ff fcfd 	bl	8002018 <LL_RCC_PLL_ConfigDomain_SYS>
  LL_RCC_PLL_EnableDomain_SYS();
 800261e:	f7ff fd1b 	bl	8002058 <LL_RCC_PLL_EnableDomain_SYS>
  LL_RCC_PLL_Enable();
 8002622:	f7ff fcd5 	bl	8001fd0 <LL_RCC_PLL_Enable>

   /* Wait till PLL is ready */
  while(LL_RCC_PLL_IsReady() != 1)
 8002626:	bf00      	nop
 8002628:	f7ff fce2 	bl	8001ff0 <LL_RCC_PLL_IsReady>
 800262c:	4603      	mov	r3, r0
 800262e:	2b01      	cmp	r3, #1
 8002630:	d1fa      	bne.n	8002628 <SystemClock_Config+0x60>
  {

  }
  LL_RCC_SetSysClkSource(LL_RCC_SYS_CLKSOURCE_PLL);
 8002632:	2003      	movs	r0, #3
 8002634:	f7ff fc6e 	bl	8001f14 <LL_RCC_SetSysClkSource>

   /* Wait till System clock is ready */
  while(LL_RCC_GetSysClkSource() != LL_RCC_SYS_CLKSOURCE_STATUS_PLL)
 8002638:	bf00      	nop
 800263a:	f7ff fc7f 	bl	8001f3c <LL_RCC_GetSysClkSource>
 800263e:	4603      	mov	r3, r0
 8002640:	2b0c      	cmp	r3, #12
 8002642:	d1fa      	bne.n	800263a <SystemClock_Config+0x72>
  {

  }
  LL_RCC_SetAHBPrescaler(LL_RCC_SYSCLK_DIV_1);
 8002644:	2000      	movs	r0, #0
 8002646:	f7ff fc87 	bl	8001f58 <LL_RCC_SetAHBPrescaler>
  LL_RCC_SetAPB1Prescaler(LL_RCC_APB1_DIV_1);
 800264a:	2000      	movs	r0, #0
 800264c:	f7ff fc98 	bl	8001f80 <LL_RCC_SetAPB1Prescaler>
  LL_RCC_SetAPB2Prescaler(LL_RCC_APB2_DIV_2);
 8002650:	f44f 5000 	mov.w	r0, #8192	; 0x2000
 8002654:	f7ff fca8 	bl	8001fa8 <LL_RCC_SetAPB2Prescaler>

  LL_Init1msTick(32000000);
 8002658:	4803      	ldr	r0, [pc, #12]	; (8002668 <SystemClock_Config+0xa0>)
 800265a:	f001 fff9 	bl	8004650 <LL_Init1msTick>

  LL_SetSystemCoreClock(32000000);
 800265e:	4802      	ldr	r0, [pc, #8]	; (8002668 <SystemClock_Config+0xa0>)
 8002660:	f002 f804 	bl	800466c <LL_SetSystemCoreClock>
}
 8002664:	bf00      	nop
 8002666:	bd80      	pop	{r7, pc}
 8002668:	01e84800 	.word	0x01e84800

0800266c <MX_TIM3_Init>:
  * @brief TIM3 Initialization Function
  * @param None
  * @retval None
  */
static void MX_TIM3_Init(void)
{
 800266c:	b580      	push	{r7, lr}
 800266e:	b094      	sub	sp, #80	; 0x50
 8002670:	af00      	add	r7, sp, #0

  /* USER CODE BEGIN TIM3_Init 0 */

  /* USER CODE END TIM3_Init 0 */

  LL_TIM_InitTypeDef TIM_InitStruct = {0};
 8002672:	f107 033c 	add.w	r3, r7, #60	; 0x3c
 8002676:	2200      	movs	r2, #0
 8002678:	601a      	str	r2, [r3, #0]
 800267a:	605a      	str	r2, [r3, #4]
 800267c:	609a      	str	r2, [r3, #8]
 800267e:	60da      	str	r2, [r3, #12]
 8002680:	611a      	str	r2, [r3, #16]
  LL_TIM_OC_InitTypeDef TIM_OC_InitStruct = {0};
 8002682:	f107 031c 	add.w	r3, r7, #28
 8002686:	2220      	movs	r2, #32
 8002688:	2100      	movs	r1, #0
 800268a:	4618      	mov	r0, r3
 800268c:	f002 f915 	bl	80048ba <memset>

  LL_GPIO_InitTypeDef GPIO_InitStruct = {0};
 8002690:	1d3b      	adds	r3, r7, #4
 8002692:	2200      	movs	r2, #0
 8002694:	601a      	str	r2, [r3, #0]
 8002696:	605a      	str	r2, [r3, #4]
 8002698:	609a      	str	r2, [r3, #8]
 800269a:	60da      	str	r2, [r3, #12]
 800269c:	611a      	str	r2, [r3, #16]
 800269e:	615a      	str	r2, [r3, #20]

  /* Peripheral clock enable */
  LL_APB1_GRP1_EnableClock(LL_APB1_GRP1_PERIPH_TIM3);
 80026a0:	2002      	movs	r0, #2
 80026a2:	f7ff fd01 	bl	80020a8 <LL_APB1_GRP1_EnableClock>

  /* USER CODE BEGIN TIM3_Init 1 */

  /* USER CODE END TIM3_Init 1 */
  TIM_InitStruct.Prescaler = 0;
 80026a6:	2300      	movs	r3, #0
 80026a8:	87bb      	strh	r3, [r7, #60]	; 0x3c
  TIM_InitStruct.CounterMode = LL_TIM_COUNTERMODE_UP;
 80026aa:	2300      	movs	r3, #0
 80026ac:	643b      	str	r3, [r7, #64]	; 0x40
  TIM_InitStruct.Autoreload = 32-LL_TIM_IC_FILTER_FDIV1_N2;
 80026ae:	4b2b      	ldr	r3, [pc, #172]	; (800275c <MX_TIM3_Init+0xf0>)
 80026b0:	647b      	str	r3, [r7, #68]	; 0x44
  TIM_InitStruct.ClockDivision = LL_TIM_CLOCKDIVISION_DIV1;
 80026b2:	2300      	movs	r3, #0
 80026b4:	64bb      	str	r3, [r7, #72]	; 0x48
  LL_TIM_Init(TIM3, &TIM_InitStruct);
 80026b6:	f107 033c 	add.w	r3, r7, #60	; 0x3c
 80026ba:	4619      	mov	r1, r3
 80026bc:	4828      	ldr	r0, [pc, #160]	; (8002760 <MX_TIM3_Init+0xf4>)
 80026be:	f001 fb11 	bl	8003ce4 <LL_TIM_Init>
  LL_TIM_DisableARRPreload(TIM3);
 80026c2:	4827      	ldr	r0, [pc, #156]	; (8002760 <MX_TIM3_Init+0xf4>)
 80026c4:	f7ff fd8d 	bl	80021e2 <LL_TIM_DisableARRPreload>
  LL_TIM_SetClockSource(TIM3, LL_TIM_CLOCKSOURCE_INTERNAL);
 80026c8:	2100      	movs	r1, #0
 80026ca:	4825      	ldr	r0, [pc, #148]	; (8002760 <MX_TIM3_Init+0xf4>)
 80026cc:	f7ff fe5a 	bl	8002384 <LL_TIM_SetClockSource>
  LL_TIM_OC_EnablePreload(TIM3, LL_TIM_CHANNEL_CH1);
 80026d0:	2101      	movs	r1, #1
 80026d2:	4823      	ldr	r0, [pc, #140]	; (8002760 <MX_TIM3_Init+0xf4>)
 80026d4:	f7ff fdf6 	bl	80022c4 <LL_TIM_OC_EnablePreload>
  TIM_OC_InitStruct.OCMode = LL_TIM_OCMODE_PWM1;
 80026d8:	2360      	movs	r3, #96	; 0x60
 80026da:	61fb      	str	r3, [r7, #28]
  TIM_OC_InitStruct.OCState = LL_TIM_OCSTATE_DISABLE;
 80026dc:	2300      	movs	r3, #0
 80026de:	623b      	str	r3, [r7, #32]
  TIM_OC_InitStruct.OCNState = LL_TIM_OCSTATE_DISABLE;
 80026e0:	2300      	movs	r3, #0
 80026e2:	627b      	str	r3, [r7, #36]	; 0x24
  TIM_OC_InitStruct.CompareValue = 0;
 80026e4:	2300      	movs	r3, #0
 80026e6:	62bb      	str	r3, [r7, #40]	; 0x28
  TIM_OC_InitStruct.OCPolarity = LL_TIM_OCPOLARITY_HIGH;
 80026e8:	2300      	movs	r3, #0
 80026ea:	62fb      	str	r3, [r7, #44]	; 0x2c
  LL_TIM_OC_Init(TIM3, LL_TIM_CHANNEL_CH1, &TIM_OC_InitStruct);
 80026ec:	f107 031c 	add.w	r3, r7, #28
 80026f0:	461a      	mov	r2, r3
 80026f2:	2101      	movs	r1, #1
 80026f4:	481a      	ldr	r0, [pc, #104]	; (8002760 <MX_TIM3_Init+0xf4>)
 80026f6:	f001 fb89 	bl	8003e0c <LL_TIM_OC_Init>
  LL_TIM_OC_DisableFast(TIM3, LL_TIM_CHANNEL_CH1);
 80026fa:	2101      	movs	r1, #1
 80026fc:	4818      	ldr	r0, [pc, #96]	; (8002760 <MX_TIM3_Init+0xf4>)
 80026fe:	f7ff fd8f 	bl	8002220 <LL_TIM_OC_DisableFast>
  LL_TIM_SetOCRefClearInputSource(TIM3, LL_TIM_OCREF_CLR_INT_NC);
 8002702:	2100      	movs	r1, #0
 8002704:	4816      	ldr	r0, [pc, #88]	; (8002760 <MX_TIM3_Init+0xf4>)
 8002706:	f7ff fe8e 	bl	8002426 <LL_TIM_SetOCRefClearInputSource>
  LL_TIM_DisableExternalClock(TIM3);
 800270a:	4815      	ldr	r0, [pc, #84]	; (8002760 <MX_TIM3_Init+0xf4>)
 800270c:	f7ff fe2a 	bl	8002364 <LL_TIM_DisableExternalClock>
  LL_TIM_ConfigETR(TIM3, LL_TIM_ETR_POLARITY_NONINVERTED, LL_TIM_ETR_PRESCALER_DIV1, LL_TIM_ETR_FILTER_FDIV1);
 8002710:	2300      	movs	r3, #0
 8002712:	2200      	movs	r2, #0
 8002714:	2100      	movs	r1, #0
 8002716:	4812      	ldr	r0, [pc, #72]	; (8002760 <MX_TIM3_Init+0xf4>)
 8002718:	f7ff fe6c 	bl	80023f4 <LL_TIM_ConfigETR>
  LL_TIM_SetTriggerOutput(TIM3, LL_TIM_TRGO_RESET);
 800271c:	2100      	movs	r1, #0
 800271e:	4810      	ldr	r0, [pc, #64]	; (8002760 <MX_TIM3_Init+0xf4>)
 8002720:	f7ff fe45 	bl	80023ae <LL_TIM_SetTriggerOutput>
  LL_TIM_DisableMasterSlaveMode(TIM3);
 8002724:	480e      	ldr	r0, [pc, #56]	; (8002760 <MX_TIM3_Init+0xf4>)
 8002726:	f7ff fe55 	bl	80023d4 <LL_TIM_DisableMasterSlaveMode>
  /* USER CODE BEGIN TIM3_Init 2 */

  /* USER CODE END TIM3_Init 2 */
  LL_AHB2_GRP1_EnableClock(LL_AHB2_GRP1_PERIPH_GPIOA);
 800272a:	2001      	movs	r0, #1
 800272c:	f7ff fca4 	bl	8002078 <LL_AHB2_GRP1_EnableClock>
  /**TIM3 GPIO Configuration
  PA6   ------> TIM3_CH1
  */
  GPIO_InitStruct.Pin = LL_GPIO_PIN_6;
 8002730:	2340      	movs	r3, #64	; 0x40
 8002732:	607b      	str	r3, [r7, #4]
  GPIO_InitStruct.Mode = LL_GPIO_MODE_ALTERNATE;
 8002734:	2302      	movs	r3, #2
 8002736:	60bb      	str	r3, [r7, #8]
  GPIO_InitStruct.Speed = LL_GPIO_SPEED_FREQ_LOW;
 8002738:	2300      	movs	r3, #0
 800273a:	60fb      	str	r3, [r7, #12]
  GPIO_InitStruct.OutputType = LL_GPIO_OUTPUT_PUSHPULL;
 800273c:	2300      	movs	r3, #0
 800273e:	613b      	str	r3, [r7, #16]
  GPIO_InitStruct.Pull = LL_GPIO_PULL_NO;
 8002740:	2300      	movs	r3, #0
 8002742:	617b      	str	r3, [r7, #20]
  GPIO_InitStruct.Alternate = LL_GPIO_AF_2;
 8002744:	2302      	movs	r3, #2
 8002746:	61bb      	str	r3, [r7, #24]
  LL_GPIO_Init(GPIOA, &GPIO_InitStruct);
 8002748:	1d3b      	adds	r3, r7, #4
 800274a:	4619      	mov	r1, r3
 800274c:	f04f 4090 	mov.w	r0, #1207959552	; 0x48000000
 8002750:	f000 fe0c 	bl	800336c <LL_GPIO_Init>

}
 8002754:	bf00      	nop
 8002756:	3750      	adds	r7, #80	; 0x50
 8002758:	46bd      	mov	sp, r7
 800275a:	bd80      	pop	{r7, pc}
 800275c:	fff00020 	.word	0xfff00020
 8002760:	40000400 	.word	0x40000400

08002764 <MX_TIM6_Init>:
  * @brief TIM6 Initialization Function
  * @param None
  * @retval None
  */
static void MX_TIM6_Init(void)
{
 8002764:	b580      	push	{r7, lr}
 8002766:	b086      	sub	sp, #24
 8002768:	af00      	add	r7, sp, #0

  /* USER CODE BEGIN TIM6_Init 0 */

  /* USER CODE END TIM6_Init 0 */

  LL_TIM_InitTypeDef TIM_InitStruct = {0};
 800276a:	1d3b      	adds	r3, r7, #4
 800276c:	2200      	movs	r2, #0
 800276e:	601a      	str	r2, [r3, #0]
 8002770:	605a      	str	r2, [r3, #4]
 8002772:	609a      	str	r2, [r3, #8]
 8002774:	60da      	str	r2, [r3, #12]
 8002776:	611a      	str	r2, [r3, #16]

  /* Peripheral clock enable */
  LL_APB1_GRP1_EnableClock(LL_APB1_GRP1_PERIPH_TIM6);
 8002778:	2010      	movs	r0, #16
 800277a:	f7ff fc95 	bl	80020a8 <LL_APB1_GRP1_EnableClock>

  /* USER CODE BEGIN TIM6_Init 1 */

  /* USER CODE END TIM6_Init 1 */
  TIM_InitStruct.Prescaler = 31;
 800277e:	231f      	movs	r3, #31
 8002780:	80bb      	strh	r3, [r7, #4]
  TIM_InitStruct.CounterMode = LL_TIM_COUNTERMODE_UP;
 8002782:	2300      	movs	r3, #0
 8002784:	60bb      	str	r3, [r7, #8]
  TIM_InitStruct.Autoreload = 65535;
 8002786:	f64f 73ff 	movw	r3, #65535	; 0xffff
 800278a:	60fb      	str	r3, [r7, #12]
  LL_TIM_Init(TIM6, &TIM_InitStruct);
 800278c:	1d3b      	adds	r3, r7, #4
 800278e:	4619      	mov	r1, r3
 8002790:	480d      	ldr	r0, [pc, #52]	; (80027c8 <MX_TIM6_Init+0x64>)
 8002792:	f001 faa7 	bl	8003ce4 <LL_TIM_Init>
  LL_TIM_DisableARRPreload(TIM6);
 8002796:	480c      	ldr	r0, [pc, #48]	; (80027c8 <MX_TIM6_Init+0x64>)
 8002798:	f7ff fd23 	bl	80021e2 <LL_TIM_DisableARRPreload>
  LL_TIM_SetTriggerOutput(TIM6, LL_TIM_TRGO_RESET);
 800279c:	2100      	movs	r1, #0
 800279e:	480a      	ldr	r0, [pc, #40]	; (80027c8 <MX_TIM6_Init+0x64>)
 80027a0:	f7ff fe05 	bl	80023ae <LL_TIM_SetTriggerOutput>
  LL_TIM_DisableMasterSlaveMode(TIM6);
 80027a4:	4808      	ldr	r0, [pc, #32]	; (80027c8 <MX_TIM6_Init+0x64>)
 80027a6:	f7ff fe15 	bl	80023d4 <LL_TIM_DisableMasterSlaveMode>
  /* USER CODE BEGIN TIM6_Init 2 */
 // LL_TIM_SetClockSource(TIM6, LL_TIM_CLOCKSOURCE_INTERNAL);
  LL_TIM_SetCounterMode(TIM6, LL_TIM_COUNTERMODE_UP);
 80027aa:	2100      	movs	r1, #0
 80027ac:	4806      	ldr	r0, [pc, #24]	; (80027c8 <MX_TIM6_Init+0x64>)
 80027ae:	f7ff fd05 	bl	80021bc <LL_TIM_SetCounterMode>
  LL_TIM_ClearFlag_UPDATE(TIM6);
 80027b2:	4805      	ldr	r0, [pc, #20]	; (80027c8 <MX_TIM6_Init+0x64>)
 80027b4:	f7ff fe4a 	bl	800244c <LL_TIM_ClearFlag_UPDATE>
  LL_TIM_EnableCounter(TIM6);
 80027b8:	4803      	ldr	r0, [pc, #12]	; (80027c8 <MX_TIM6_Init+0x64>)
 80027ba:	f7ff fcef 	bl	800219c <LL_TIM_EnableCounter>

  /* USER CODE END TIM6_Init 2 */

}
 80027be:	bf00      	nop
 80027c0:	3718      	adds	r7, #24
 80027c2:	46bd      	mov	sp, r7
 80027c4:	bd80      	pop	{r7, pc}
 80027c6:	bf00      	nop
 80027c8:	40001000 	.word	0x40001000

080027cc <MX_TIM7_Init>:
  * @brief TIM7 Initialization Function
  * @param None
  * @retval None
  */
static void MX_TIM7_Init(void)
{
 80027cc:	b580      	push	{r7, lr}
 80027ce:	b086      	sub	sp, #24
 80027d0:	af00      	add	r7, sp, #0

  /* USER CODE BEGIN TIM7_Init 0 */

  /* USER CODE END TIM7_Init 0 */

  LL_TIM_InitTypeDef TIM_InitStruct = {0};
 80027d2:	1d3b      	adds	r3, r7, #4
 80027d4:	2200      	movs	r2, #0
 80027d6:	601a      	str	r2, [r3, #0]
 80027d8:	605a      	str	r2, [r3, #4]
 80027da:	609a      	str	r2, [r3, #8]
 80027dc:	60da      	str	r2, [r3, #12]
 80027de:	611a      	str	r2, [r3, #16]

  /* Peripheral clock enable */
  LL_APB1_GRP1_EnableClock(LL_APB1_GRP1_PERIPH_TIM7);
 80027e0:	2020      	movs	r0, #32
 80027e2:	f7ff fc61 	bl	80020a8 <LL_APB1_GRP1_EnableClock>

  /* USER CODE BEGIN TIM7_Init 1 */

  /* USER CODE END TIM7_Init 1 */
  TIM_InitStruct.Prescaler = 32000-LL_TIM_IC_FILTER_FDIV1_N2;
 80027e6:	f44f 43fa 	mov.w	r3, #32000	; 0x7d00
 80027ea:	80bb      	strh	r3, [r7, #4]
  TIM_InitStruct.CounterMode = LL_TIM_COUNTERMODE_UP;
 80027ec:	2300      	movs	r3, #0
 80027ee:	60bb      	str	r3, [r7, #8]
  TIM_InitStruct.Autoreload = 1000-LL_TIM_IC_FILTER_FDIV1_N2;
 80027f0:	4b15      	ldr	r3, [pc, #84]	; (8002848 <MX_TIM7_Init+0x7c>)
 80027f2:	60fb      	str	r3, [r7, #12]
  LL_TIM_Init(TIM7, &TIM_InitStruct);
 80027f4:	1d3b      	adds	r3, r7, #4
 80027f6:	4619      	mov	r1, r3
 80027f8:	4814      	ldr	r0, [pc, #80]	; (800284c <MX_TIM7_Init+0x80>)
 80027fa:	f001 fa73 	bl	8003ce4 <LL_TIM_Init>
  LL_TIM_DisableARRPreload(TIM7);
 80027fe:	4813      	ldr	r0, [pc, #76]	; (800284c <MX_TIM7_Init+0x80>)
 8002800:	f7ff fcef 	bl	80021e2 <LL_TIM_DisableARRPreload>
  LL_TIM_SetTriggerOutput(TIM7, LL_TIM_TRGO_RESET);
 8002804:	2100      	movs	r1, #0
 8002806:	4811      	ldr	r0, [pc, #68]	; (800284c <MX_TIM7_Init+0x80>)
 8002808:	f7ff fdd1 	bl	80023ae <LL_TIM_SetTriggerOutput>
  LL_TIM_DisableMasterSlaveMode(TIM7);
 800280c:	480f      	ldr	r0, [pc, #60]	; (800284c <MX_TIM7_Init+0x80>)
 800280e:	f7ff fde1 	bl	80023d4 <LL_TIM_DisableMasterSlaveMode>
  /* USER CODE BEGIN TIM7_Init 2 */

  LL_TIM_SetCounterMode(TIM7, LL_TIM_COUNTERMODE_UP);
 8002812:	2100      	movs	r1, #0
 8002814:	480d      	ldr	r0, [pc, #52]	; (800284c <MX_TIM7_Init+0x80>)
 8002816:	f7ff fcd1 	bl	80021bc <LL_TIM_SetCounterMode>
  LL_TIM_GenerateEvent_UPDATE(TIM7);
 800281a:	480c      	ldr	r0, [pc, #48]	; (800284c <MX_TIM7_Init+0x80>)
 800281c:	f7ff fe47 	bl	80024ae <LL_TIM_GenerateEvent_UPDATE>
  LL_TIM_ClearFlag_UPDATE(TIM7);
 8002820:	480a      	ldr	r0, [pc, #40]	; (800284c <MX_TIM7_Init+0x80>)
 8002822:	f7ff fe13 	bl	800244c <LL_TIM_ClearFlag_UPDATE>
  NVIC_SetPriority(TIM7_IRQn, 0);
 8002826:	2100      	movs	r1, #0
 8002828:	2037      	movs	r0, #55	; 0x37
 800282a:	f7ff fab9 	bl	8001da0 <__NVIC_SetPriority>
  NVIC_EnableIRQ(TIM7_IRQn);
 800282e:	2037      	movs	r0, #55	; 0x37
 8002830:	f7ff fa98 	bl	8001d64 <__NVIC_EnableIRQ>
  LL_TIM_EnableIT_UPDATE(TIM7);
 8002834:	4805      	ldr	r0, [pc, #20]	; (800284c <MX_TIM7_Init+0x80>)
 8002836:	f7ff fe2a 	bl	800248e <LL_TIM_EnableIT_UPDATE>
  LL_TIM_EnableCounter(TIM7);
 800283a:	4804      	ldr	r0, [pc, #16]	; (800284c <MX_TIM7_Init+0x80>)
 800283c:	f7ff fcae 	bl	800219c <LL_TIM_EnableCounter>
  /* USER CODE END TIM7_Init 2 */

}
 8002840:	bf00      	nop
 8002842:	3718      	adds	r7, #24
 8002844:	46bd      	mov	sp, r7
 8002846:	bd80      	pop	{r7, pc}
 8002848:	fff003e8 	.word	0xfff003e8
 800284c:	40001400 	.word	0x40001400

08002850 <MX_GPIO_Init>:
  * @brief GPIO Initialization Function
  * @param None
  * @retval None
  */
static void MX_GPIO_Init(void)
{
 8002850:	b580      	push	{r7, lr}
 8002852:	b086      	sub	sp, #24
 8002854:	af00      	add	r7, sp, #0
  LL_GPIO_InitTypeDef GPIO_InitStruct = {0};
 8002856:	463b      	mov	r3, r7
 8002858:	2200      	movs	r2, #0
 800285a:	601a      	str	r2, [r3, #0]
 800285c:	605a      	str	r2, [r3, #4]
 800285e:	609a      	str	r2, [r3, #8]
 8002860:	60da      	str	r2, [r3, #12]
 8002862:	611a      	str	r2, [r3, #16]
 8002864:	615a      	str	r2, [r3, #20]
/* USER CODE BEGIN MX_GPIO_Init_1 */
/* USER CODE END MX_GPIO_Init_1 */

  /* GPIO Ports Clock Enable */
  LL_AHB2_GRP1_EnableClock(LL_AHB2_GRP1_PERIPH_GPIOH);
 8002866:	2080      	movs	r0, #128	; 0x80
 8002868:	f7ff fc06 	bl	8002078 <LL_AHB2_GRP1_EnableClock>
  LL_AHB2_GRP1_EnableClock(LL_AHB2_GRP1_PERIPH_GPIOA);
 800286c:	2001      	movs	r0, #1
 800286e:	f7ff fc03 	bl	8002078 <LL_AHB2_GRP1_EnableClock>
  LL_AHB2_GRP1_EnableClock(LL_AHB2_GRP1_PERIPH_GPIOB);
 8002872:	2002      	movs	r0, #2
 8002874:	f7ff fc00 	bl	8002078 <LL_AHB2_GRP1_EnableClock>

  /**/
  LL_GPIO_ResetOutputPin(GPIOA, test_Pin|Buzz_Buzz_Pin);
 8002878:	f44f 7108 	mov.w	r1, #544	; 0x220
 800287c:	f04f 4090 	mov.w	r0, #1207959552	; 0x48000000
 8002880:	f7ff fe25 	bl	80024ce <LL_GPIO_ResetOutputPin>

  /**/
  LL_GPIO_ResetOutputPin(Led_GPIO_Port, Led_Pin);
 8002884:	2140      	movs	r1, #64	; 0x40
 8002886:	4813      	ldr	r0, [pc, #76]	; (80028d4 <MX_GPIO_Init+0x84>)
 8002888:	f7ff fe21 	bl	80024ce <LL_GPIO_ResetOutputPin>

  /**/
  GPIO_InitStruct.Pin = test_Pin|Buzz_Buzz_Pin;
 800288c:	f44f 7308 	mov.w	r3, #544	; 0x220
 8002890:	603b      	str	r3, [r7, #0]
  GPIO_InitStruct.Mode = LL_GPIO_MODE_OUTPUT;
 8002892:	2301      	movs	r3, #1
 8002894:	607b      	str	r3, [r7, #4]
  GPIO_InitStruct.Speed = LL_GPIO_SPEED_FREQ_LOW;
 8002896:	2300      	movs	r3, #0
 8002898:	60bb      	str	r3, [r7, #8]
  GPIO_InitStruct.OutputType = LL_GPIO_OUTPUT_PUSHPULL;
 800289a:	2300      	movs	r3, #0
 800289c:	60fb      	str	r3, [r7, #12]
  GPIO_InitStruct.Pull = LL_GPIO_PULL_NO;
 800289e:	2300      	movs	r3, #0
 80028a0:	613b      	str	r3, [r7, #16]
  LL_GPIO_Init(GPIOA, &GPIO_InitStruct);
 80028a2:	463b      	mov	r3, r7
 80028a4:	4619      	mov	r1, r3
 80028a6:	f04f 4090 	mov.w	r0, #1207959552	; 0x48000000
 80028aa:	f000 fd5f 	bl	800336c <LL_GPIO_Init>

  /**/
  GPIO_InitStruct.Pin = Led_Pin;
 80028ae:	2340      	movs	r3, #64	; 0x40
 80028b0:	603b      	str	r3, [r7, #0]
  GPIO_InitStruct.Mode = LL_GPIO_MODE_OUTPUT;
 80028b2:	2301      	movs	r3, #1
 80028b4:	607b      	str	r3, [r7, #4]
  GPIO_InitStruct.Speed = LL_GPIO_SPEED_FREQ_LOW;
 80028b6:	2300      	movs	r3, #0
 80028b8:	60bb      	str	r3, [r7, #8]
  GPIO_InitStruct.OutputType = LL_GPIO_OUTPUT_PUSHPULL;
 80028ba:	2300      	movs	r3, #0
 80028bc:	60fb      	str	r3, [r7, #12]
  GPIO_InitStruct.Pull = LL_GPIO_PULL_NO;
 80028be:	2300      	movs	r3, #0
 80028c0:	613b      	str	r3, [r7, #16]
  LL_GPIO_Init(Led_GPIO_Port, &GPIO_InitStruct);
 80028c2:	463b      	mov	r3, r7
 80028c4:	4619      	mov	r1, r3
 80028c6:	4803      	ldr	r0, [pc, #12]	; (80028d4 <MX_GPIO_Init+0x84>)
 80028c8:	f000 fd50 	bl	800336c <LL_GPIO_Init>

/* USER CODE BEGIN MX_GPIO_Init_2 */
/* USER CODE END MX_GPIO_Init_2 */
}
 80028cc:	bf00      	nop
 80028ce:	3718      	adds	r7, #24
 80028d0:	46bd      	mov	sp, r7
 80028d2:	bd80      	pop	{r7, pc}
 80028d4:	48000400 	.word	0x48000400

080028d8 <Damian_Marudzi>:

/* USER CODE BEGIN 4 */

void Damian_Marudzi(uint32_t czas)
{
 80028d8:	b580      	push	{r7, lr}
 80028da:	b082      	sub	sp, #8
 80028dc:	af00      	add	r7, sp, #0
 80028de:	6078      	str	r0, [r7, #4]
	LL_TIM_GenerateEvent_UPDATE(TIM6);
 80028e0:	480a      	ldr	r0, [pc, #40]	; (800290c <Damian_Marudzi+0x34>)
 80028e2:	f7ff fde4 	bl	80024ae <LL_TIM_GenerateEvent_UPDATE>
	LL_TIM_ClearFlag_UPDATE(TIM6);
 80028e6:	4809      	ldr	r0, [pc, #36]	; (800290c <Damian_Marudzi+0x34>)
 80028e8:	f7ff fdb0 	bl	800244c <LL_TIM_ClearFlag_UPDATE>
	LL_TIM_SetAutoReload(TIM6, czas);
 80028ec:	6879      	ldr	r1, [r7, #4]
 80028ee:	4807      	ldr	r0, [pc, #28]	; (800290c <Damian_Marudzi+0x34>)
 80028f0:	f7ff fc87 	bl	8002202 <LL_TIM_SetAutoReload>
	while(LL_TIM_IsActiveFlag_UPDATE(TIM6) == 0);
 80028f4:	bf00      	nop
 80028f6:	4805      	ldr	r0, [pc, #20]	; (800290c <Damian_Marudzi+0x34>)
 80028f8:	f7ff fdb6 	bl	8002468 <LL_TIM_IsActiveFlag_UPDATE>
 80028fc:	4603      	mov	r3, r0
 80028fe:	2b00      	cmp	r3, #0
 8002900:	d0f9      	beq.n	80028f6 <Damian_Marudzi+0x1e>
}
 8002902:	bf00      	nop
 8002904:	bf00      	nop
 8002906:	3708      	adds	r7, #8
 8002908:	46bd      	mov	sp, r7
 800290a:	bd80      	pop	{r7, pc}
 800290c:	40001000 	.word	0x40001000

08002910 <AutomaticLedMode>:
			}
		break;
	}
}
void AutomaticLedMode(struct led_data* data)
{
 8002910:	b580      	push	{r7, lr}
 8002912:	b086      	sub	sp, #24
 8002914:	af02      	add	r7, sp, #8
 8002916:	6078      	str	r0, [r7, #4]
	Reset_LED(data);
 8002918:	6878      	ldr	r0, [r7, #4]
 800291a:	f7ff f9c3 	bl	8001ca4 <Reset_LED>
	for(int i=0; i< MAX_LED; i++)
 800291e:	2300      	movs	r3, #0
 8002920:	60fb      	str	r3, [r7, #12]
 8002922:	e01d      	b.n	8002960 <AutomaticLedMode+0x50>
	{
		if(i!=0)
 8002924:	68fb      	ldr	r3, [r7, #12]
 8002926:	2b00      	cmp	r3, #0
 8002928:	d008      	beq.n	800293c <AutomaticLedMode+0x2c>
		{
			Set_LED(data,i-1, 0, 0, 0);
 800292a:	68fb      	ldr	r3, [r7, #12]
 800292c:	1e59      	subs	r1, r3, #1
 800292e:	2300      	movs	r3, #0
 8002930:	9300      	str	r3, [sp, #0]
 8002932:	2300      	movs	r3, #0
 8002934:	2200      	movs	r2, #0
 8002936:	6878      	ldr	r0, [r7, #4]
 8002938:	f7ff f98c 	bl	8001c54 <Set_LED>
		}
		Set_LED(data,i, 0, 0, 255);
 800293c:	23ff      	movs	r3, #255	; 0xff
 800293e:	9300      	str	r3, [sp, #0]
 8002940:	2300      	movs	r3, #0
 8002942:	2200      	movs	r2, #0
 8002944:	68f9      	ldr	r1, [r7, #12]
 8002946:	6878      	ldr	r0, [r7, #4]
 8002948:	f7ff f984 	bl	8001c54 <Set_LED>
		WS2812_Send(data,STANDARD_BRIGHTNESS);
 800294c:	2102      	movs	r1, #2
 800294e:	6878      	ldr	r0, [r7, #4]
 8002950:	f7ff f87a 	bl	8001a48 <WS2812_Send>
		Damian_Marudzi(50000000);
 8002954:	4806      	ldr	r0, [pc, #24]	; (8002970 <AutomaticLedMode+0x60>)
 8002956:	f7ff ffbf 	bl	80028d8 <Damian_Marudzi>
	for(int i=0; i< MAX_LED; i++)
 800295a:	68fb      	ldr	r3, [r7, #12]
 800295c:	3301      	adds	r3, #1
 800295e:	60fb      	str	r3, [r7, #12]
 8002960:	68fb      	ldr	r3, [r7, #12]
 8002962:	2b07      	cmp	r3, #7
 8002964:	ddde      	ble.n	8002924 <AutomaticLedMode+0x14>
	}
}
 8002966:	bf00      	nop
 8002968:	bf00      	nop
 800296a:	3710      	adds	r7, #16
 800296c:	46bd      	mov	sp, r7
 800296e:	bd80      	pop	{r7, pc}
 8002970:	02faf080 	.word	0x02faf080

08002974 <TIM7_IRQHandler>:
void TIM7_IRQHandler(void)
{
 8002974:	b580      	push	{r7, lr}
 8002976:	af00      	add	r7, sp, #0
	if(LL_TIM_IsActiveFlag_UPDATE(TIM7) == 1)
 8002978:	480f      	ldr	r0, [pc, #60]	; (80029b8 <TIM7_IRQHandler+0x44>)
 800297a:	f7ff fd75 	bl	8002468 <LL_TIM_IsActiveFlag_UPDATE>
 800297e:	4603      	mov	r3, r0
 8002980:	2b01      	cmp	r3, #1
 8002982:	d117      	bne.n	80029b4 <TIM7_IRQHandler+0x40>
	{
		LL_GPIO_TogglePin(test_GPIO_Port, test_Pin);
 8002984:	2120      	movs	r1, #32
 8002986:	f04f 4090 	mov.w	r0, #1207959552	; 0x48000000
 800298a:	f7ff fdae 	bl	80024ea <LL_GPIO_TogglePin>
		LL_TIM_ClearFlag_UPDATE(TIM7);
 800298e:	480a      	ldr	r0, [pc, #40]	; (80029b8 <TIM7_IRQHandler+0x44>)
 8002990:	f7ff fd5c 	bl	800244c <LL_TIM_ClearFlag_UPDATE>
		if(time>= DISPLAY_BLINK_TIME*-2)
 8002994:	4b09      	ldr	r3, [pc, #36]	; (80029bc <TIM7_IRQHandler+0x48>)
 8002996:	681b      	ldr	r3, [r3, #0]
 8002998:	f113 0f06 	cmn.w	r3, #6
 800299c:	db07      	blt.n	80029ae <TIM7_IRQHandler+0x3a>
		{
			UpdateDisplay();
 800299e:	f000 f80f 	bl	80029c0 <UpdateDisplay>
			time--;
 80029a2:	4b06      	ldr	r3, [pc, #24]	; (80029bc <TIM7_IRQHandler+0x48>)
 80029a4:	681b      	ldr	r3, [r3, #0]
 80029a6:	3b01      	subs	r3, #1
 80029a8:	4a04      	ldr	r2, [pc, #16]	; (80029bc <TIM7_IRQHandler+0x48>)
 80029aa:	6013      	str	r3, [r2, #0]
		{
			TM1637_SetBrightness(0);
		}

	}
}
 80029ac:	e002      	b.n	80029b4 <TIM7_IRQHandler+0x40>
			TM1637_SetBrightness(0);
 80029ae:	2000      	movs	r0, #0
 80029b0:	f000 faa4 	bl	8002efc <TM1637_SetBrightness>
}
 80029b4:	bf00      	nop
 80029b6:	bd80      	pop	{r7, pc}
 80029b8:	40001400 	.word	0x40001400
 80029bc:	200000bc 	.word	0x200000bc

080029c0 <UpdateDisplay>:

void UpdateDisplay()
{
 80029c0:	b5b0      	push	{r4, r5, r7, lr}
 80029c2:	b082      	sub	sp, #8
 80029c4:	af00      	add	r7, sp, #0
	uint32_t displayData = 0;
 80029c6:	2300      	movs	r3, #0
 80029c8:	607b      	str	r3, [r7, #4]
	if(time<0 && time>= DISPLAY_BLINK_TIME*-2)
 80029ca:	4b2a      	ldr	r3, [pc, #168]	; (8002a74 <UpdateDisplay+0xb4>)
 80029cc:	681b      	ldr	r3, [r3, #0]
 80029ce:	2b00      	cmp	r3, #0
 80029d0:	da13      	bge.n	80029fa <UpdateDisplay+0x3a>
 80029d2:	4b28      	ldr	r3, [pc, #160]	; (8002a74 <UpdateDisplay+0xb4>)
 80029d4:	681b      	ldr	r3, [r3, #0]
 80029d6:	f113 0f06 	cmn.w	r3, #6
 80029da:	db0e      	blt.n	80029fa <UpdateDisplay+0x3a>
	{
		if(time%2!=0)
 80029dc:	4b25      	ldr	r3, [pc, #148]	; (8002a74 <UpdateDisplay+0xb4>)
 80029de:	681b      	ldr	r3, [r3, #0]
 80029e0:	f003 0301 	and.w	r3, r3, #1
 80029e4:	2b00      	cmp	r3, #0
 80029e6:	d002      	beq.n	80029ee <UpdateDisplay+0x2e>
		{
			dziala();
 80029e8:	f000 fa40 	bl	8002e6c <dziala>
		}
		else
		{
			TM1637_DisplayDecimal(displayData,1);
		}
	  	return;
 80029ec:	e03e      	b.n	8002a6c <UpdateDisplay+0xac>
			TM1637_DisplayDecimal(displayData,1);
 80029ee:	687b      	ldr	r3, [r7, #4]
 80029f0:	2101      	movs	r1, #1
 80029f2:	4618      	mov	r0, r3
 80029f4:	f000 f9cc 	bl	8002d90 <TM1637_DisplayDecimal>
	  	return;
 80029f8:	e038      	b.n	8002a6c <UpdateDisplay+0xac>
	}
	displayData = floor(time/60)*100+time%60;
 80029fa:	4b1e      	ldr	r3, [pc, #120]	; (8002a74 <UpdateDisplay+0xb4>)
 80029fc:	681b      	ldr	r3, [r3, #0]
 80029fe:	4a1e      	ldr	r2, [pc, #120]	; (8002a78 <UpdateDisplay+0xb8>)
 8002a00:	fb82 1203 	smull	r1, r2, r2, r3
 8002a04:	441a      	add	r2, r3
 8002a06:	1152      	asrs	r2, r2, #5
 8002a08:	17db      	asrs	r3, r3, #31
 8002a0a:	1ad3      	subs	r3, r2, r3
 8002a0c:	4618      	mov	r0, r3
 8002a0e:	f7fd fd81 	bl	8000514 <__aeabi_i2d>
 8002a12:	f04f 0200 	mov.w	r2, #0
 8002a16:	4b19      	ldr	r3, [pc, #100]	; (8002a7c <UpdateDisplay+0xbc>)
 8002a18:	f7fd fde6 	bl	80005e8 <__aeabi_dmul>
 8002a1c:	4602      	mov	r2, r0
 8002a1e:	460b      	mov	r3, r1
 8002a20:	4614      	mov	r4, r2
 8002a22:	461d      	mov	r5, r3
 8002a24:	4b13      	ldr	r3, [pc, #76]	; (8002a74 <UpdateDisplay+0xb4>)
 8002a26:	681a      	ldr	r2, [r3, #0]
 8002a28:	4b13      	ldr	r3, [pc, #76]	; (8002a78 <UpdateDisplay+0xb8>)
 8002a2a:	fb83 1302 	smull	r1, r3, r3, r2
 8002a2e:	4413      	add	r3, r2
 8002a30:	1159      	asrs	r1, r3, #5
 8002a32:	17d3      	asrs	r3, r2, #31
 8002a34:	1ac9      	subs	r1, r1, r3
 8002a36:	460b      	mov	r3, r1
 8002a38:	011b      	lsls	r3, r3, #4
 8002a3a:	1a5b      	subs	r3, r3, r1
 8002a3c:	009b      	lsls	r3, r3, #2
 8002a3e:	1ad1      	subs	r1, r2, r3
 8002a40:	4608      	mov	r0, r1
 8002a42:	f7fd fd67 	bl	8000514 <__aeabi_i2d>
 8002a46:	4602      	mov	r2, r0
 8002a48:	460b      	mov	r3, r1
 8002a4a:	4620      	mov	r0, r4
 8002a4c:	4629      	mov	r1, r5
 8002a4e:	f7fd fc15 	bl	800027c <__adddf3>
 8002a52:	4602      	mov	r2, r0
 8002a54:	460b      	mov	r3, r1
 8002a56:	4610      	mov	r0, r2
 8002a58:	4619      	mov	r1, r3
 8002a5a:	f7fe f887 	bl	8000b6c <__aeabi_d2uiz>
 8002a5e:	4603      	mov	r3, r0
 8002a60:	607b      	str	r3, [r7, #4]
	TM1637_DisplayDecimal(displayData,1);
 8002a62:	687b      	ldr	r3, [r7, #4]
 8002a64:	2101      	movs	r1, #1
 8002a66:	4618      	mov	r0, r3
 8002a68:	f000 f992 	bl	8002d90 <TM1637_DisplayDecimal>
}
 8002a6c:	3708      	adds	r7, #8
 8002a6e:	46bd      	mov	sp, r7
 8002a70:	bdb0      	pop	{r4, r5, r7, pc}
 8002a72:	bf00      	nop
 8002a74:	200000bc 	.word	0x200000bc
 8002a78:	88888889 	.word	0x88888889
 8002a7c:	40590000 	.word	0x40590000

08002a80 <Buzz_Buzz>:

void Buzz_Buzz(int czas, int ile, int* Buzz, int* Buzz_Check)
{
 8002a80:	b590      	push	{r4, r7, lr}
 8002a82:	b085      	sub	sp, #20
 8002a84:	af00      	add	r7, sp, #0
 8002a86:	60f8      	str	r0, [r7, #12]
 8002a88:	60b9      	str	r1, [r7, #8]
 8002a8a:	607a      	str	r2, [r7, #4]
 8002a8c:	603b      	str	r3, [r7, #0]
	if((*Buzz == 0) & (*Buzz_Check == 1)){
 8002a8e:	687b      	ldr	r3, [r7, #4]
 8002a90:	681b      	ldr	r3, [r3, #0]
 8002a92:	2b00      	cmp	r3, #0
 8002a94:	bf0c      	ite	eq
 8002a96:	2301      	moveq	r3, #1
 8002a98:	2300      	movne	r3, #0
 8002a9a:	b2da      	uxtb	r2, r3
 8002a9c:	683b      	ldr	r3, [r7, #0]
 8002a9e:	681b      	ldr	r3, [r3, #0]
 8002aa0:	2b01      	cmp	r3, #1
 8002aa2:	bf0c      	ite	eq
 8002aa4:	2301      	moveq	r3, #1
 8002aa6:	2300      	movne	r3, #0
 8002aa8:	b2db      	uxtb	r3, r3
 8002aaa:	4013      	ands	r3, r2
 8002aac:	b2db      	uxtb	r3, r3
 8002aae:	2b00      	cmp	r3, #0
 8002ab0:	d00c      	beq.n	8002acc <Buzz_Buzz+0x4c>
		*Buzz = ile*2;
 8002ab2:	687b      	ldr	r3, [r7, #4]
 8002ab4:	68ba      	ldr	r2, [r7, #8]
 8002ab6:	0052      	lsls	r2, r2, #1
 8002ab8:	601a      	str	r2, [r3, #0]
		LL_TIM_SetAutoReload(TIM6, czas/2 - 1);
 8002aba:	68fb      	ldr	r3, [r7, #12]
 8002abc:	0fda      	lsrs	r2, r3, #31
 8002abe:	4413      	add	r3, r2
 8002ac0:	105b      	asrs	r3, r3, #1
 8002ac2:	3b01      	subs	r3, #1
 8002ac4:	4619      	mov	r1, r3
 8002ac6:	4817      	ldr	r0, [pc, #92]	; (8002b24 <Buzz_Buzz+0xa4>)
 8002ac8:	f7ff fb9b 	bl	8002202 <LL_TIM_SetAutoReload>
	}
	if((&Buzz > 0) & (&Buzz_Check == 1) & (LL_TIM_IsActiveFlag_UPDATE(TIM6) == 1)){
 8002acc:	463b      	mov	r3, r7
 8002ace:	2b01      	cmp	r3, #1
 8002ad0:	bf0c      	ite	eq
 8002ad2:	2301      	moveq	r3, #1
 8002ad4:	2300      	movne	r3, #0
 8002ad6:	b2dc      	uxtb	r4, r3
 8002ad8:	4812      	ldr	r0, [pc, #72]	; (8002b24 <Buzz_Buzz+0xa4>)
 8002ada:	f7ff fcc5 	bl	8002468 <LL_TIM_IsActiveFlag_UPDATE>
 8002ade:	4603      	mov	r3, r0
 8002ae0:	2b01      	cmp	r3, #1
 8002ae2:	bf0c      	ite	eq
 8002ae4:	2301      	moveq	r3, #1
 8002ae6:	2300      	movne	r3, #0
 8002ae8:	b2db      	uxtb	r3, r3
 8002aea:	4023      	ands	r3, r4
 8002aec:	b2db      	uxtb	r3, r3
 8002aee:	2b00      	cmp	r3, #0
 8002af0:	d014      	beq.n	8002b1c <Buzz_Buzz+0x9c>
			LL_TIM_GenerateEvent_UPDATE(TIM6);
 8002af2:	480c      	ldr	r0, [pc, #48]	; (8002b24 <Buzz_Buzz+0xa4>)
 8002af4:	f7ff fcdb 	bl	80024ae <LL_TIM_GenerateEvent_UPDATE>
			LL_TIM_ClearFlag_UPDATE(TIM6);
 8002af8:	480a      	ldr	r0, [pc, #40]	; (8002b24 <Buzz_Buzz+0xa4>)
 8002afa:	f7ff fca7 	bl	800244c <LL_TIM_ClearFlag_UPDATE>
			LL_GPIO_TogglePin(Buzz_Buzz_GPIO_Port, Buzz_Buzz_Pin);
 8002afe:	f44f 7100 	mov.w	r1, #512	; 0x200
 8002b02:	f04f 4090 	mov.w	r0, #1207959552	; 0x48000000
 8002b06:	f7ff fcf0 	bl	80024ea <LL_GPIO_TogglePin>
			Buzz = Buzz - 1;
 8002b0a:	687b      	ldr	r3, [r7, #4]
 8002b0c:	3b04      	subs	r3, #4
 8002b0e:	607b      	str	r3, [r7, #4]
			if(*Buzz == 0){
 8002b10:	687b      	ldr	r3, [r7, #4]
 8002b12:	681b      	ldr	r3, [r3, #0]
 8002b14:	2b00      	cmp	r3, #0
 8002b16:	d101      	bne.n	8002b1c <Buzz_Buzz+0x9c>
				Buzz_Check = 0;
 8002b18:	2300      	movs	r3, #0
 8002b1a:	603b      	str	r3, [r7, #0]
			}
	}
}
 8002b1c:	bf00      	nop
 8002b1e:	3714      	adds	r7, #20
 8002b20:	46bd      	mov	sp, r7
 8002b22:	bd90      	pop	{r4, r7, pc}
 8002b24:	40001000 	.word	0x40001000

08002b28 <Buzz_Buzz_Up>:
void Buzz_Buzz_Up(int* Buzz_Check){
 8002b28:	b480      	push	{r7}
 8002b2a:	b083      	sub	sp, #12
 8002b2c:	af00      	add	r7, sp, #0
 8002b2e:	6078      	str	r0, [r7, #4]
	*Buzz_Check = 1;
 8002b30:	687b      	ldr	r3, [r7, #4]
 8002b32:	2201      	movs	r2, #1
 8002b34:	601a      	str	r2, [r3, #0]
}
 8002b36:	bf00      	nop
 8002b38:	370c      	adds	r7, #12
 8002b3a:	46bd      	mov	sp, r7
 8002b3c:	f85d 7b04 	ldr.w	r7, [sp], #4
 8002b40:	4770      	bx	lr

08002b42 <NMI_Handler>:
/******************************************************************************/
/**
  * @brief This function handles Non maskable interrupt.
  */
void NMI_Handler(void)
{
 8002b42:	b480      	push	{r7}
 8002b44:	af00      	add	r7, sp, #0
  /* USER CODE BEGIN NonMaskableInt_IRQn 0 */

  /* USER CODE END NonMaskableInt_IRQn 0 */
  /* USER CODE BEGIN NonMaskableInt_IRQn 1 */
   while (1)
 8002b46:	e7fe      	b.n	8002b46 <NMI_Handler+0x4>

08002b48 <HardFault_Handler>:

/**
  * @brief This function handles Hard fault interrupt.
  */
void HardFault_Handler(void)
{
 8002b48:	b480      	push	{r7}
 8002b4a:	af00      	add	r7, sp, #0
  /* USER CODE BEGIN HardFault_IRQn 0 */

  /* USER CODE END HardFault_IRQn 0 */
  while (1)
 8002b4c:	e7fe      	b.n	8002b4c <HardFault_Handler+0x4>

08002b4e <MemManage_Handler>:

/**
  * @brief This function handles Memory management fault.
  */
void MemManage_Handler(void)
{
 8002b4e:	b480      	push	{r7}
 8002b50:	af00      	add	r7, sp, #0
  /* USER CODE BEGIN MemoryManagement_IRQn 0 */

  /* USER CODE END MemoryManagement_IRQn 0 */
  while (1)
 8002b52:	e7fe      	b.n	8002b52 <MemManage_Handler+0x4>

08002b54 <BusFault_Handler>:

/**
  * @brief This function handles Prefetch fault, memory access fault.
  */
void BusFault_Handler(void)
{
 8002b54:	b480      	push	{r7}
 8002b56:	af00      	add	r7, sp, #0
  /* USER CODE BEGIN BusFault_IRQn 0 */

  /* USER CODE END BusFault_IRQn 0 */
  while (1)
 8002b58:	e7fe      	b.n	8002b58 <BusFault_Handler+0x4>

08002b5a <UsageFault_Handler>:

/**
  * @brief This function handles Undefined instruction or illegal state.
  */
void UsageFault_Handler(void)
{
 8002b5a:	b480      	push	{r7}
 8002b5c:	af00      	add	r7, sp, #0
  /* USER CODE BEGIN UsageFault_IRQn 0 */

  /* USER CODE END UsageFault_IRQn 0 */
  while (1)
 8002b5e:	e7fe      	b.n	8002b5e <UsageFault_Handler+0x4>

08002b60 <SVC_Handler>:

/**
  * @brief This function handles System service call via SWI instruction.
  */
void SVC_Handler(void)
{
 8002b60:	b480      	push	{r7}
 8002b62:	af00      	add	r7, sp, #0

  /* USER CODE END SVCall_IRQn 0 */
  /* USER CODE BEGIN SVCall_IRQn 1 */

  /* USER CODE END SVCall_IRQn 1 */
}
 8002b64:	bf00      	nop
 8002b66:	46bd      	mov	sp, r7
 8002b68:	f85d 7b04 	ldr.w	r7, [sp], #4
 8002b6c:	4770      	bx	lr

08002b6e <DebugMon_Handler>:

/**
  * @brief This function handles Debug monitor.
  */
void DebugMon_Handler(void)
{
 8002b6e:	b480      	push	{r7}
 8002b70:	af00      	add	r7, sp, #0

  /* USER CODE END DebugMonitor_IRQn 0 */
  /* USER CODE BEGIN DebugMonitor_IRQn 1 */

  /* USER CODE END DebugMonitor_IRQn 1 */
}
 8002b72:	bf00      	nop
 8002b74:	46bd      	mov	sp, r7
 8002b76:	f85d 7b04 	ldr.w	r7, [sp], #4
 8002b7a:	4770      	bx	lr

08002b7c <PendSV_Handler>:

/**
  * @brief This function handles Pendable request for system service.
  */
void PendSV_Handler(void)
{
 8002b7c:	b480      	push	{r7}
 8002b7e:	af00      	add	r7, sp, #0

  /* USER CODE END PendSV_IRQn 0 */
  /* USER CODE BEGIN PendSV_IRQn 1 */

  /* USER CODE END PendSV_IRQn 1 */
}
 8002b80:	bf00      	nop
 8002b82:	46bd      	mov	sp, r7
 8002b84:	f85d 7b04 	ldr.w	r7, [sp], #4
 8002b88:	4770      	bx	lr

08002b8a <SysTick_Handler>:

/**
  * @brief This function handles System tick timer.
  */
void SysTick_Handler(void)
{
 8002b8a:	b480      	push	{r7}
 8002b8c:	af00      	add	r7, sp, #0
  /* USER CODE END SysTick_IRQn 0 */

  /* USER CODE BEGIN SysTick_IRQn 1 */

  /* USER CODE END SysTick_IRQn 1 */
}
 8002b8e:	bf00      	nop
 8002b90:	46bd      	mov	sp, r7
 8002b92:	f85d 7b04 	ldr.w	r7, [sp], #4
 8002b96:	4770      	bx	lr

08002b98 <_read>:
  _kill(status, -1);
  while (1) {}    /* Make sure we hang here */
}

__attribute__((weak)) int _read(int file, char *ptr, int len)
{
 8002b98:	b580      	push	{r7, lr}
 8002b9a:	b086      	sub	sp, #24
 8002b9c:	af00      	add	r7, sp, #0
 8002b9e:	60f8      	str	r0, [r7, #12]
 8002ba0:	60b9      	str	r1, [r7, #8]
 8002ba2:	607a      	str	r2, [r7, #4]
  (void)file;
  int DataIdx;

  for (DataIdx = 0; DataIdx < len; DataIdx++)
 8002ba4:	2300      	movs	r3, #0
 8002ba6:	617b      	str	r3, [r7, #20]
 8002ba8:	e00a      	b.n	8002bc0 <_read+0x28>
  {
    *ptr++ = __io_getchar();
 8002baa:	f3af 8000 	nop.w
 8002bae:	4601      	mov	r1, r0
 8002bb0:	68bb      	ldr	r3, [r7, #8]
 8002bb2:	1c5a      	adds	r2, r3, #1
 8002bb4:	60ba      	str	r2, [r7, #8]
 8002bb6:	b2ca      	uxtb	r2, r1
 8002bb8:	701a      	strb	r2, [r3, #0]
  for (DataIdx = 0; DataIdx < len; DataIdx++)
 8002bba:	697b      	ldr	r3, [r7, #20]
 8002bbc:	3301      	adds	r3, #1
 8002bbe:	617b      	str	r3, [r7, #20]
 8002bc0:	697a      	ldr	r2, [r7, #20]
 8002bc2:	687b      	ldr	r3, [r7, #4]
 8002bc4:	429a      	cmp	r2, r3
 8002bc6:	dbf0      	blt.n	8002baa <_read+0x12>
  }

  return len;
 8002bc8:	687b      	ldr	r3, [r7, #4]
}
 8002bca:	4618      	mov	r0, r3
 8002bcc:	3718      	adds	r7, #24
 8002bce:	46bd      	mov	sp, r7
 8002bd0:	bd80      	pop	{r7, pc}

08002bd2 <_close>:
  }
  return len;
}

int _close(int file)
{
 8002bd2:	b480      	push	{r7}
 8002bd4:	b083      	sub	sp, #12
 8002bd6:	af00      	add	r7, sp, #0
 8002bd8:	6078      	str	r0, [r7, #4]
  (void)file;
  return -1;
 8002bda:	f04f 33ff 	mov.w	r3, #4294967295
}
 8002bde:	4618      	mov	r0, r3
 8002be0:	370c      	adds	r7, #12
 8002be2:	46bd      	mov	sp, r7
 8002be4:	f85d 7b04 	ldr.w	r7, [sp], #4
 8002be8:	4770      	bx	lr

08002bea <_fstat>:


int _fstat(int file, struct stat *st)
{
 8002bea:	b480      	push	{r7}
 8002bec:	b083      	sub	sp, #12
 8002bee:	af00      	add	r7, sp, #0
 8002bf0:	6078      	str	r0, [r7, #4]
 8002bf2:	6039      	str	r1, [r7, #0]
  (void)file;
  st->st_mode = S_IFCHR;
 8002bf4:	683b      	ldr	r3, [r7, #0]
 8002bf6:	f44f 5200 	mov.w	r2, #8192	; 0x2000
 8002bfa:	605a      	str	r2, [r3, #4]
  return 0;
 8002bfc:	2300      	movs	r3, #0
}
 8002bfe:	4618      	mov	r0, r3
 8002c00:	370c      	adds	r7, #12
 8002c02:	46bd      	mov	sp, r7
 8002c04:	f85d 7b04 	ldr.w	r7, [sp], #4
 8002c08:	4770      	bx	lr

08002c0a <_isatty>:

int _isatty(int file)
{
 8002c0a:	b480      	push	{r7}
 8002c0c:	b083      	sub	sp, #12
 8002c0e:	af00      	add	r7, sp, #0
 8002c10:	6078      	str	r0, [r7, #4]
  (void)file;
  return 1;
 8002c12:	2301      	movs	r3, #1
}
 8002c14:	4618      	mov	r0, r3
 8002c16:	370c      	adds	r7, #12
 8002c18:	46bd      	mov	sp, r7
 8002c1a:	f85d 7b04 	ldr.w	r7, [sp], #4
 8002c1e:	4770      	bx	lr

08002c20 <_lseek>:

int _lseek(int file, int ptr, int dir)
{
 8002c20:	b480      	push	{r7}
 8002c22:	b085      	sub	sp, #20
 8002c24:	af00      	add	r7, sp, #0
 8002c26:	60f8      	str	r0, [r7, #12]
 8002c28:	60b9      	str	r1, [r7, #8]
 8002c2a:	607a      	str	r2, [r7, #4]
  (void)file;
  (void)ptr;
  (void)dir;
  return 0;
 8002c2c:	2300      	movs	r3, #0
}
 8002c2e:	4618      	mov	r0, r3
 8002c30:	3714      	adds	r7, #20
 8002c32:	46bd      	mov	sp, r7
 8002c34:	f85d 7b04 	ldr.w	r7, [sp], #4
 8002c38:	4770      	bx	lr
	...

08002c3c <_sbrk>:
 *
 * @param incr Memory size
 * @return Pointer to allocated memory
 */
void *_sbrk(ptrdiff_t incr)
{
 8002c3c:	b580      	push	{r7, lr}
 8002c3e:	b086      	sub	sp, #24
 8002c40:	af00      	add	r7, sp, #0
 8002c42:	6078      	str	r0, [r7, #4]
  extern uint8_t _end; /* Symbol defined in the linker script */
  extern uint8_t _estack; /* Symbol defined in the linker script */
  extern uint32_t _Min_Stack_Size; /* Symbol defined in the linker script */
  const uint32_t stack_limit = (uint32_t)&_estack - (uint32_t)&_Min_Stack_Size;
 8002c44:	4a14      	ldr	r2, [pc, #80]	; (8002c98 <_sbrk+0x5c>)
 8002c46:	4b15      	ldr	r3, [pc, #84]	; (8002c9c <_sbrk+0x60>)
 8002c48:	1ad3      	subs	r3, r2, r3
 8002c4a:	617b      	str	r3, [r7, #20]
  const uint8_t *max_heap = (uint8_t *)stack_limit;
 8002c4c:	697b      	ldr	r3, [r7, #20]
 8002c4e:	613b      	str	r3, [r7, #16]
  uint8_t *prev_heap_end;

  /* Initialize heap end at first call */
  if (NULL == __sbrk_heap_end)
 8002c50:	4b13      	ldr	r3, [pc, #76]	; (8002ca0 <_sbrk+0x64>)
 8002c52:	681b      	ldr	r3, [r3, #0]
 8002c54:	2b00      	cmp	r3, #0
 8002c56:	d102      	bne.n	8002c5e <_sbrk+0x22>
  {
    __sbrk_heap_end = &_end;
 8002c58:	4b11      	ldr	r3, [pc, #68]	; (8002ca0 <_sbrk+0x64>)
 8002c5a:	4a12      	ldr	r2, [pc, #72]	; (8002ca4 <_sbrk+0x68>)
 8002c5c:	601a      	str	r2, [r3, #0]
  }

  /* Protect heap from growing into the reserved MSP stack */
  if (__sbrk_heap_end + incr > max_heap)
 8002c5e:	4b10      	ldr	r3, [pc, #64]	; (8002ca0 <_sbrk+0x64>)
 8002c60:	681a      	ldr	r2, [r3, #0]
 8002c62:	687b      	ldr	r3, [r7, #4]
 8002c64:	4413      	add	r3, r2
 8002c66:	693a      	ldr	r2, [r7, #16]
 8002c68:	429a      	cmp	r2, r3
 8002c6a:	d207      	bcs.n	8002c7c <_sbrk+0x40>
  {
    errno = ENOMEM;
 8002c6c:	f001 fe74 	bl	8004958 <__errno>
 8002c70:	4603      	mov	r3, r0
 8002c72:	220c      	movs	r2, #12
 8002c74:	601a      	str	r2, [r3, #0]
    return (void *)-1;
 8002c76:	f04f 33ff 	mov.w	r3, #4294967295
 8002c7a:	e009      	b.n	8002c90 <_sbrk+0x54>
  }

  prev_heap_end = __sbrk_heap_end;
 8002c7c:	4b08      	ldr	r3, [pc, #32]	; (8002ca0 <_sbrk+0x64>)
 8002c7e:	681b      	ldr	r3, [r3, #0]
 8002c80:	60fb      	str	r3, [r7, #12]
  __sbrk_heap_end += incr;
 8002c82:	4b07      	ldr	r3, [pc, #28]	; (8002ca0 <_sbrk+0x64>)
 8002c84:	681a      	ldr	r2, [r3, #0]
 8002c86:	687b      	ldr	r3, [r7, #4]
 8002c88:	4413      	add	r3, r2
 8002c8a:	4a05      	ldr	r2, [pc, #20]	; (8002ca0 <_sbrk+0x64>)
 8002c8c:	6013      	str	r3, [r2, #0]

  return (void *)prev_heap_end;
 8002c8e:	68fb      	ldr	r3, [r7, #12]
}
 8002c90:	4618      	mov	r0, r3
 8002c92:	3718      	adds	r7, #24
 8002c94:	46bd      	mov	sp, r7
 8002c96:	bd80      	pop	{r7, pc}
 8002c98:	20018000 	.word	0x20018000
 8002c9c:	00000400 	.word	0x00000400
 8002ca0:	200000c0 	.word	0x200000c0
 8002ca4:	20000210 	.word	0x20000210

08002ca8 <SystemInit>:
  * @brief  Setup the microcontroller system.
  * @retval None
  */

void SystemInit(void)
{
 8002ca8:	b480      	push	{r7}
 8002caa:	af00      	add	r7, sp, #0
  SCB->VTOR = VECT_TAB_BASE_ADDRESS | VECT_TAB_OFFSET;
#endif

  /* FPU settings ------------------------------------------------------------*/
#if (__FPU_PRESENT == 1) && (__FPU_USED == 1)
  SCB->CPACR |= ((3UL << 20U)|(3UL << 22U));  /* set CP10 and CP11 Full Access */
 8002cac:	4b06      	ldr	r3, [pc, #24]	; (8002cc8 <SystemInit+0x20>)
 8002cae:	f8d3 3088 	ldr.w	r3, [r3, #136]	; 0x88
 8002cb2:	4a05      	ldr	r2, [pc, #20]	; (8002cc8 <SystemInit+0x20>)
 8002cb4:	f443 0370 	orr.w	r3, r3, #15728640	; 0xf00000
 8002cb8:	f8c2 3088 	str.w	r3, [r2, #136]	; 0x88
#endif
}
 8002cbc:	bf00      	nop
 8002cbe:	46bd      	mov	sp, r7
 8002cc0:	f85d 7b04 	ldr.w	r7, [sp], #4
 8002cc4:	4770      	bx	lr
 8002cc6:	bf00      	nop
 8002cc8:	e000ed00 	.word	0xe000ed00

08002ccc <LL_AHB2_GRP1_EnableClock>:
{
 8002ccc:	b480      	push	{r7}
 8002cce:	b085      	sub	sp, #20
 8002cd0:	af00      	add	r7, sp, #0
 8002cd2:	6078      	str	r0, [r7, #4]
  SET_BIT(RCC->AHB2ENR, Periphs);
 8002cd4:	4b08      	ldr	r3, [pc, #32]	; (8002cf8 <LL_AHB2_GRP1_EnableClock+0x2c>)
 8002cd6:	6cda      	ldr	r2, [r3, #76]	; 0x4c
 8002cd8:	4907      	ldr	r1, [pc, #28]	; (8002cf8 <LL_AHB2_GRP1_EnableClock+0x2c>)
 8002cda:	687b      	ldr	r3, [r7, #4]
 8002cdc:	4313      	orrs	r3, r2
 8002cde:	64cb      	str	r3, [r1, #76]	; 0x4c
  tmpreg = READ_BIT(RCC->AHB2ENR, Periphs);
 8002ce0:	4b05      	ldr	r3, [pc, #20]	; (8002cf8 <LL_AHB2_GRP1_EnableClock+0x2c>)
 8002ce2:	6cda      	ldr	r2, [r3, #76]	; 0x4c
 8002ce4:	687b      	ldr	r3, [r7, #4]
 8002ce6:	4013      	ands	r3, r2
 8002ce8:	60fb      	str	r3, [r7, #12]
  (void)tmpreg;
 8002cea:	68fb      	ldr	r3, [r7, #12]
}
 8002cec:	bf00      	nop
 8002cee:	3714      	adds	r7, #20
 8002cf0:	46bd      	mov	sp, r7
 8002cf2:	f85d 7b04 	ldr.w	r7, [sp], #4
 8002cf6:	4770      	bx	lr
 8002cf8:	40021000 	.word	0x40021000

08002cfc <LL_GPIO_SetOutputPin>:
{
 8002cfc:	b480      	push	{r7}
 8002cfe:	b083      	sub	sp, #12
 8002d00:	af00      	add	r7, sp, #0
 8002d02:	6078      	str	r0, [r7, #4]
 8002d04:	6039      	str	r1, [r7, #0]
  WRITE_REG(GPIOx->BSRR, PinMask);
 8002d06:	687b      	ldr	r3, [r7, #4]
 8002d08:	683a      	ldr	r2, [r7, #0]
 8002d0a:	619a      	str	r2, [r3, #24]
}
 8002d0c:	bf00      	nop
 8002d0e:	370c      	adds	r7, #12
 8002d10:	46bd      	mov	sp, r7
 8002d12:	f85d 7b04 	ldr.w	r7, [sp], #4
 8002d16:	4770      	bx	lr

08002d18 <LL_GPIO_ResetOutputPin>:
{
 8002d18:	b480      	push	{r7}
 8002d1a:	b083      	sub	sp, #12
 8002d1c:	af00      	add	r7, sp, #0
 8002d1e:	6078      	str	r0, [r7, #4]
 8002d20:	6039      	str	r1, [r7, #0]
  WRITE_REG(GPIOx->BRR, PinMask);
 8002d22:	687b      	ldr	r3, [r7, #4]
 8002d24:	683a      	ldr	r2, [r7, #0]
 8002d26:	629a      	str	r2, [r3, #40]	; 0x28
}
 8002d28:	bf00      	nop
 8002d2a:	370c      	adds	r7, #12
 8002d2c:	46bd      	mov	sp, r7
 8002d2e:	f85d 7b04 	ldr.w	r7, [sp], #4
 8002d32:	4770      	bx	lr

08002d34 <TM1637_ClkHigh>:
    0x3f, 0x06, 0x5b, 0x4f, 0x66, 0x6d, 0x7d, 0x07, // 0-7
    0x7f, 0x6f, 0x77, 0x7c, 0x39, 0x5e, 0x79, 0x71, // 8-9, A-F
    0x00
};

void TM1637_ClkHigh(void){
 8002d34:	b580      	push	{r7, lr}
 8002d36:	af00      	add	r7, sp, #0
	LL_GPIO_SetOutputPin(CLK_GPIO_PORT, CLK_PIN);
 8002d38:	2180      	movs	r1, #128	; 0x80
 8002d3a:	4802      	ldr	r0, [pc, #8]	; (8002d44 <TM1637_ClkHigh+0x10>)
 8002d3c:	f7ff ffde 	bl	8002cfc <LL_GPIO_SetOutputPin>
}
 8002d40:	bf00      	nop
 8002d42:	bd80      	pop	{r7, pc}
 8002d44:	48000800 	.word	0x48000800

08002d48 <TM1637_ClkLow>:

void TM1637_ClkLow(void){
 8002d48:	b580      	push	{r7, lr}
 8002d4a:	af00      	add	r7, sp, #0
	LL_GPIO_ResetOutputPin(CLK_GPIO_PORT, CLK_PIN);
 8002d4c:	2180      	movs	r1, #128	; 0x80
 8002d4e:	4802      	ldr	r0, [pc, #8]	; (8002d58 <TM1637_ClkLow+0x10>)
 8002d50:	f7ff ffe2 	bl	8002d18 <LL_GPIO_ResetOutputPin>
}
 8002d54:	bf00      	nop
 8002d56:	bd80      	pop	{r7, pc}
 8002d58:	48000800 	.word	0x48000800

08002d5c <TM1637_DataHigh>:

void TM1637_DataHigh(void){
 8002d5c:	b580      	push	{r7, lr}
 8002d5e:	af00      	add	r7, sp, #0
	LL_GPIO_SetOutputPin(DATA_GPIO_PORT, DATA_PIN);
 8002d60:	2180      	movs	r1, #128	; 0x80
 8002d62:	f04f 4090 	mov.w	r0, #1207959552	; 0x48000000
 8002d66:	f7ff ffc9 	bl	8002cfc <LL_GPIO_SetOutputPin>
}
 8002d6a:	bf00      	nop
 8002d6c:	bd80      	pop	{r7, pc}

08002d6e <TM1637_DataLow>:

void TM1637_DataLow(void){
 8002d6e:	b580      	push	{r7, lr}
 8002d70:	af00      	add	r7, sp, #0
    LL_GPIO_ResetOutputPin(DATA_GPIO_PORT, DATA_PIN);
 8002d72:	2180      	movs	r1, #128	; 0x80
 8002d74:	f04f 4090 	mov.w	r0, #1207959552	; 0x48000000
 8002d78:	f7ff ffce 	bl	8002d18 <LL_GPIO_ResetOutputPin>
}
 8002d7c:	bf00      	nop
 8002d7e:	bd80      	pop	{r7, pc}

08002d80 <TM1637_Init>:
	}
}


void TM1637_Init(void)
{
 8002d80:	b580      	push	{r7, lr}
 8002d82:	af00      	add	r7, sp, #0
    TM1637_SetBrightness(8);
 8002d84:	2008      	movs	r0, #8
 8002d86:	f000 f8b9 	bl	8002efc <TM1637_SetBrightness>
}
 8002d8a:	bf00      	nop
 8002d8c:	bd80      	pop	{r7, pc}
	...

08002d90 <TM1637_DisplayDecimal>:

void TM1637_DisplayDecimal(int v, int displaySeparator)
{
 8002d90:	b580      	push	{r7, lr}
 8002d92:	b086      	sub	sp, #24
 8002d94:	af00      	add	r7, sp, #0
 8002d96:	6078      	str	r0, [r7, #4]
 8002d98:	6039      	str	r1, [r7, #0]
    unsigned char digitArr[4];
    for (int i = 0; i < 4; ++i) {
 8002d9a:	2300      	movs	r3, #0
 8002d9c:	617b      	str	r3, [r7, #20]
 8002d9e:	e032      	b.n	8002e06 <TM1637_DisplayDecimal+0x76>
        digitArr[i] = segmentMap[v % 10];
 8002da0:	6879      	ldr	r1, [r7, #4]
 8002da2:	4b30      	ldr	r3, [pc, #192]	; (8002e64 <TM1637_DisplayDecimal+0xd4>)
 8002da4:	fb83 2301 	smull	r2, r3, r3, r1
 8002da8:	109a      	asrs	r2, r3, #2
 8002daa:	17cb      	asrs	r3, r1, #31
 8002dac:	1ad2      	subs	r2, r2, r3
 8002dae:	4613      	mov	r3, r2
 8002db0:	009b      	lsls	r3, r3, #2
 8002db2:	4413      	add	r3, r2
 8002db4:	005b      	lsls	r3, r3, #1
 8002db6:	1aca      	subs	r2, r1, r3
 8002db8:	4b2b      	ldr	r3, [pc, #172]	; (8002e68 <TM1637_DisplayDecimal+0xd8>)
 8002dba:	5c99      	ldrb	r1, [r3, r2]
 8002dbc:	f107 020c 	add.w	r2, r7, #12
 8002dc0:	697b      	ldr	r3, [r7, #20]
 8002dc2:	4413      	add	r3, r2
 8002dc4:	460a      	mov	r2, r1
 8002dc6:	701a      	strb	r2, [r3, #0]
        if (i == 2 && displaySeparator) {
 8002dc8:	697b      	ldr	r3, [r7, #20]
 8002dca:	2b02      	cmp	r3, #2
 8002dcc:	d110      	bne.n	8002df0 <TM1637_DisplayDecimal+0x60>
 8002dce:	683b      	ldr	r3, [r7, #0]
 8002dd0:	2b00      	cmp	r3, #0
 8002dd2:	d00d      	beq.n	8002df0 <TM1637_DisplayDecimal+0x60>
            digitArr[i] |= 1 << 7;
 8002dd4:	f107 020c 	add.w	r2, r7, #12
 8002dd8:	697b      	ldr	r3, [r7, #20]
 8002dda:	4413      	add	r3, r2
 8002ddc:	781b      	ldrb	r3, [r3, #0]
 8002dde:	f063 037f 	orn	r3, r3, #127	; 0x7f
 8002de2:	b2d9      	uxtb	r1, r3
 8002de4:	f107 020c 	add.w	r2, r7, #12
 8002de8:	697b      	ldr	r3, [r7, #20]
 8002dea:	4413      	add	r3, r2
 8002dec:	460a      	mov	r2, r1
 8002dee:	701a      	strb	r2, [r3, #0]
        }
        v /= 10;
 8002df0:	687b      	ldr	r3, [r7, #4]
 8002df2:	4a1c      	ldr	r2, [pc, #112]	; (8002e64 <TM1637_DisplayDecimal+0xd4>)
 8002df4:	fb82 1203 	smull	r1, r2, r2, r3
 8002df8:	1092      	asrs	r2, r2, #2
 8002dfa:	17db      	asrs	r3, r3, #31
 8002dfc:	1ad3      	subs	r3, r2, r3
 8002dfe:	607b      	str	r3, [r7, #4]
    for (int i = 0; i < 4; ++i) {
 8002e00:	697b      	ldr	r3, [r7, #20]
 8002e02:	3301      	adds	r3, #1
 8002e04:	617b      	str	r3, [r7, #20]
 8002e06:	697b      	ldr	r3, [r7, #20]
 8002e08:	2b03      	cmp	r3, #3
 8002e0a:	ddc9      	ble.n	8002da0 <TM1637_DisplayDecimal+0x10>
    }

    TM1637_Start();
 8002e0c:	f000 f88b 	bl	8002f26 <TM1637_Start>
    TM1637_WriteByte(0x40);
 8002e10:	2040      	movs	r0, #64	; 0x40
 8002e12:	f000 f8ba 	bl	8002f8a <TM1637_WriteByte>
    TM1637_ReadResult();
 8002e16:	f000 f8a8 	bl	8002f6a <TM1637_ReadResult>
    TM1637_Stop();
 8002e1a:	f000 f891 	bl	8002f40 <TM1637_Stop>

    TM1637_Start();
 8002e1e:	f000 f882 	bl	8002f26 <TM1637_Start>
    TM1637_WriteByte(0xc0);
 8002e22:	20c0      	movs	r0, #192	; 0xc0
 8002e24:	f000 f8b1 	bl	8002f8a <TM1637_WriteByte>
    TM1637_ReadResult();
 8002e28:	f000 f89f 	bl	8002f6a <TM1637_ReadResult>

    for (int i = 0; i < 4; ++i) {
 8002e2c:	2300      	movs	r3, #0
 8002e2e:	613b      	str	r3, [r7, #16]
 8002e30:	e00e      	b.n	8002e50 <TM1637_DisplayDecimal+0xc0>
        TM1637_WriteByte(digitArr[3 - i]);
 8002e32:	693b      	ldr	r3, [r7, #16]
 8002e34:	f1c3 0303 	rsb	r3, r3, #3
 8002e38:	3318      	adds	r3, #24
 8002e3a:	443b      	add	r3, r7
 8002e3c:	f813 3c0c 	ldrb.w	r3, [r3, #-12]
 8002e40:	4618      	mov	r0, r3
 8002e42:	f000 f8a2 	bl	8002f8a <TM1637_WriteByte>
        TM1637_ReadResult();
 8002e46:	f000 f890 	bl	8002f6a <TM1637_ReadResult>
    for (int i = 0; i < 4; ++i) {
 8002e4a:	693b      	ldr	r3, [r7, #16]
 8002e4c:	3301      	adds	r3, #1
 8002e4e:	613b      	str	r3, [r7, #16]
 8002e50:	693b      	ldr	r3, [r7, #16]
 8002e52:	2b03      	cmp	r3, #3
 8002e54:	dded      	ble.n	8002e32 <TM1637_DisplayDecimal+0xa2>
    }

    TM1637_Stop();
 8002e56:	f000 f873 	bl	8002f40 <TM1637_Stop>
}
 8002e5a:	bf00      	nop
 8002e5c:	3718      	adds	r7, #24
 8002e5e:	46bd      	mov	sp, r7
 8002e60:	bd80      	pop	{r7, pc}
 8002e62:	bf00      	nop
 8002e64:	66666667 	.word	0x66666667
 8002e68:	080066d0 	.word	0x080066d0

08002e6c <dziala>:

void dziala()
{
 8002e6c:	b580      	push	{r7, lr}
 8002e6e:	b084      	sub	sp, #16
 8002e70:	af00      	add	r7, sp, #0
    unsigned char digitArr[4];
    for (int i = 0; i < 4; ++i) {
 8002e72:	2300      	movs	r3, #0
 8002e74:	60fb      	str	r3, [r7, #12]
 8002e76:	e013      	b.n	8002ea0 <dziala+0x34>
        digitArr[i] = 0x00;
 8002e78:	1d3a      	adds	r2, r7, #4
 8002e7a:	68fb      	ldr	r3, [r7, #12]
 8002e7c:	4413      	add	r3, r2
 8002e7e:	2200      	movs	r2, #0
 8002e80:	701a      	strb	r2, [r3, #0]
        digitArr[i] |= 1 << 7;
 8002e82:	1d3a      	adds	r2, r7, #4
 8002e84:	68fb      	ldr	r3, [r7, #12]
 8002e86:	4413      	add	r3, r2
 8002e88:	781b      	ldrb	r3, [r3, #0]
 8002e8a:	f063 037f 	orn	r3, r3, #127	; 0x7f
 8002e8e:	b2d9      	uxtb	r1, r3
 8002e90:	1d3a      	adds	r2, r7, #4
 8002e92:	68fb      	ldr	r3, [r7, #12]
 8002e94:	4413      	add	r3, r2
 8002e96:	460a      	mov	r2, r1
 8002e98:	701a      	strb	r2, [r3, #0]
    for (int i = 0; i < 4; ++i) {
 8002e9a:	68fb      	ldr	r3, [r7, #12]
 8002e9c:	3301      	adds	r3, #1
 8002e9e:	60fb      	str	r3, [r7, #12]
 8002ea0:	68fb      	ldr	r3, [r7, #12]
 8002ea2:	2b03      	cmp	r3, #3
 8002ea4:	dde8      	ble.n	8002e78 <dziala+0xc>
    }

    TM1637_Start();
 8002ea6:	f000 f83e 	bl	8002f26 <TM1637_Start>
    TM1637_WriteByte(0x40);
 8002eaa:	2040      	movs	r0, #64	; 0x40
 8002eac:	f000 f86d 	bl	8002f8a <TM1637_WriteByte>
    TM1637_ReadResult();
 8002eb0:	f000 f85b 	bl	8002f6a <TM1637_ReadResult>
    TM1637_Stop();
 8002eb4:	f000 f844 	bl	8002f40 <TM1637_Stop>

    TM1637_Start();
 8002eb8:	f000 f835 	bl	8002f26 <TM1637_Start>
    TM1637_WriteByte(0xc0);
 8002ebc:	20c0      	movs	r0, #192	; 0xc0
 8002ebe:	f000 f864 	bl	8002f8a <TM1637_WriteByte>
    TM1637_ReadResult();
 8002ec2:	f000 f852 	bl	8002f6a <TM1637_ReadResult>

    for (int i = 0; i < 4; ++i) {
 8002ec6:	2300      	movs	r3, #0
 8002ec8:	60bb      	str	r3, [r7, #8]
 8002eca:	e00e      	b.n	8002eea <dziala+0x7e>
        TM1637_WriteByte(digitArr[3 - i]);
 8002ecc:	68bb      	ldr	r3, [r7, #8]
 8002ece:	f1c3 0303 	rsb	r3, r3, #3
 8002ed2:	3310      	adds	r3, #16
 8002ed4:	443b      	add	r3, r7
 8002ed6:	f813 3c0c 	ldrb.w	r3, [r3, #-12]
 8002eda:	4618      	mov	r0, r3
 8002edc:	f000 f855 	bl	8002f8a <TM1637_WriteByte>
        TM1637_ReadResult();
 8002ee0:	f000 f843 	bl	8002f6a <TM1637_ReadResult>
    for (int i = 0; i < 4; ++i) {
 8002ee4:	68bb      	ldr	r3, [r7, #8]
 8002ee6:	3301      	adds	r3, #1
 8002ee8:	60bb      	str	r3, [r7, #8]
 8002eea:	68bb      	ldr	r3, [r7, #8]
 8002eec:	2b03      	cmp	r3, #3
 8002eee:	dded      	ble.n	8002ecc <dziala+0x60>
    }

    TM1637_Stop();
 8002ef0:	f000 f826 	bl	8002f40 <TM1637_Stop>
}
 8002ef4:	bf00      	nop
 8002ef6:	3710      	adds	r7, #16
 8002ef8:	46bd      	mov	sp, r7
 8002efa:	bd80      	pop	{r7, pc}

08002efc <TM1637_SetBrightness>:

// Valid brightness values: 0 - 8.
// 0 = display off.
void TM1637_SetBrightness(char brightness)
{
 8002efc:	b580      	push	{r7, lr}
 8002efe:	b082      	sub	sp, #8
 8002f00:	af00      	add	r7, sp, #0
 8002f02:	4603      	mov	r3, r0
 8002f04:	71fb      	strb	r3, [r7, #7]
    // Brightness command:
    // 1000 0XXX = display off
    // 1000 1BBB = display on, brightness 0-7
    // X = don't care
    // B = brightness
    TM1637_Start();
 8002f06:	f000 f80e 	bl	8002f26 <TM1637_Start>
    TM1637_WriteByte(0x87 + brightness);
 8002f0a:	79fb      	ldrb	r3, [r7, #7]
 8002f0c:	3b79      	subs	r3, #121	; 0x79
 8002f0e:	b2db      	uxtb	r3, r3
 8002f10:	4618      	mov	r0, r3
 8002f12:	f000 f83a 	bl	8002f8a <TM1637_WriteByte>
    TM1637_ReadResult();
 8002f16:	f000 f828 	bl	8002f6a <TM1637_ReadResult>
    TM1637_Stop();
 8002f1a:	f000 f811 	bl	8002f40 <TM1637_Stop>
}
 8002f1e:	bf00      	nop
 8002f20:	3708      	adds	r7, #8
 8002f22:	46bd      	mov	sp, r7
 8002f24:	bd80      	pop	{r7, pc}

08002f26 <TM1637_Start>:

void TM1637_Start(void)
{
 8002f26:	b580      	push	{r7, lr}
 8002f28:	af00      	add	r7, sp, #0
    TM1637_ClkHigh();
 8002f2a:	f7ff ff03 	bl	8002d34 <TM1637_ClkHigh>
    TM1637_DataHigh();
 8002f2e:	f7ff ff15 	bl	8002d5c <TM1637_DataHigh>
    TM1637_DelayUsec(2);
 8002f32:	2002      	movs	r0, #2
 8002f34:	f000 f853 	bl	8002fde <TM1637_DelayUsec>
    TM1637_DataLow();
 8002f38:	f7ff ff19 	bl	8002d6e <TM1637_DataLow>
}
 8002f3c:	bf00      	nop
 8002f3e:	bd80      	pop	{r7, pc}

08002f40 <TM1637_Stop>:

void TM1637_Stop(void)
{
 8002f40:	b580      	push	{r7, lr}
 8002f42:	af00      	add	r7, sp, #0
    TM1637_ClkLow();
 8002f44:	f7ff ff00 	bl	8002d48 <TM1637_ClkLow>
    TM1637_DelayUsec(2);
 8002f48:	2002      	movs	r0, #2
 8002f4a:	f000 f848 	bl	8002fde <TM1637_DelayUsec>
    TM1637_DataLow();
 8002f4e:	f7ff ff0e 	bl	8002d6e <TM1637_DataLow>
    TM1637_DelayUsec(2);
 8002f52:	2002      	movs	r0, #2
 8002f54:	f000 f843 	bl	8002fde <TM1637_DelayUsec>
    TM1637_ClkHigh();
 8002f58:	f7ff feec 	bl	8002d34 <TM1637_ClkHigh>
    TM1637_DelayUsec(2);
 8002f5c:	2002      	movs	r0, #2
 8002f5e:	f000 f83e 	bl	8002fde <TM1637_DelayUsec>
    TM1637_DataHigh();
 8002f62:	f7ff fefb 	bl	8002d5c <TM1637_DataHigh>
}
 8002f66:	bf00      	nop
 8002f68:	bd80      	pop	{r7, pc}

08002f6a <TM1637_ReadResult>:

void TM1637_ReadResult(void)
{
 8002f6a:	b580      	push	{r7, lr}
 8002f6c:	af00      	add	r7, sp, #0
    TM1637_ClkLow();
 8002f6e:	f7ff feeb 	bl	8002d48 <TM1637_ClkLow>
    TM1637_DelayUsec(5);
 8002f72:	2005      	movs	r0, #5
 8002f74:	f000 f833 	bl	8002fde <TM1637_DelayUsec>

    TM1637_ClkHigh();
 8002f78:	f7ff fedc 	bl	8002d34 <TM1637_ClkHigh>
    TM1637_DelayUsec(2);
 8002f7c:	2002      	movs	r0, #2
 8002f7e:	f000 f82e 	bl	8002fde <TM1637_DelayUsec>
    TM1637_ClkLow();
 8002f82:	f7ff fee1 	bl	8002d48 <TM1637_ClkLow>
}
 8002f86:	bf00      	nop
 8002f88:	bd80      	pop	{r7, pc}

08002f8a <TM1637_WriteByte>:

void TM1637_WriteByte(unsigned char b)
{
 8002f8a:	b580      	push	{r7, lr}
 8002f8c:	b084      	sub	sp, #16
 8002f8e:	af00      	add	r7, sp, #0
 8002f90:	4603      	mov	r3, r0
 8002f92:	71fb      	strb	r3, [r7, #7]
	for (int i = 0; i < 8; ++i) {
 8002f94:	2300      	movs	r3, #0
 8002f96:	60fb      	str	r3, [r7, #12]
 8002f98:	e019      	b.n	8002fce <TM1637_WriteByte+0x44>
		TM1637_ClkLow();
 8002f9a:	f7ff fed5 	bl	8002d48 <TM1637_ClkLow>
		if (b & 0x01) {
 8002f9e:	79fb      	ldrb	r3, [r7, #7]
 8002fa0:	f003 0301 	and.w	r3, r3, #1
 8002fa4:	2b00      	cmp	r3, #0
 8002fa6:	d002      	beq.n	8002fae <TM1637_WriteByte+0x24>
			TM1637_DataHigh();
 8002fa8:	f7ff fed8 	bl	8002d5c <TM1637_DataHigh>
 8002fac:	e001      	b.n	8002fb2 <TM1637_WriteByte+0x28>
		}
		else {
			TM1637_DataLow();
 8002fae:	f7ff fede 	bl	8002d6e <TM1637_DataLow>
		}
		TM1637_DelayUsec(3);
 8002fb2:	2003      	movs	r0, #3
 8002fb4:	f000 f813 	bl	8002fde <TM1637_DelayUsec>
		b >>= 1;
 8002fb8:	79fb      	ldrb	r3, [r7, #7]
 8002fba:	085b      	lsrs	r3, r3, #1
 8002fbc:	71fb      	strb	r3, [r7, #7]
		TM1637_ClkHigh();
 8002fbe:	f7ff feb9 	bl	8002d34 <TM1637_ClkHigh>
		TM1637_DelayUsec(3);
 8002fc2:	2003      	movs	r0, #3
 8002fc4:	f000 f80b 	bl	8002fde <TM1637_DelayUsec>
	for (int i = 0; i < 8; ++i) {
 8002fc8:	68fb      	ldr	r3, [r7, #12]
 8002fca:	3301      	adds	r3, #1
 8002fcc:	60fb      	str	r3, [r7, #12]
 8002fce:	68fb      	ldr	r3, [r7, #12]
 8002fd0:	2b07      	cmp	r3, #7
 8002fd2:	dde2      	ble.n	8002f9a <TM1637_WriteByte+0x10>
	}
}
 8002fd4:	bf00      	nop
 8002fd6:	bf00      	nop
 8002fd8:	3710      	adds	r7, #16
 8002fda:	46bd      	mov	sp, r7
 8002fdc:	bd80      	pop	{r7, pc}

08002fde <TM1637_DelayUsec>:

void TM1637_DelayUsec(unsigned int i)
{
 8002fde:	b480      	push	{r7}
 8002fe0:	b085      	sub	sp, #20
 8002fe2:	af00      	add	r7, sp, #0
 8002fe4:	6078      	str	r0, [r7, #4]
    for (; i>0; i--) {
 8002fe6:	e00d      	b.n	8003004 <TM1637_DelayUsec+0x26>
        for (int j = 0; j < 500; ++j) {
 8002fe8:	2300      	movs	r3, #0
 8002fea:	60fb      	str	r3, [r7, #12]
 8002fec:	e003      	b.n	8002ff6 <TM1637_DelayUsec+0x18>
					__NOP();
 8002fee:	bf00      	nop
        for (int j = 0; j < 500; ++j) {
 8002ff0:	68fb      	ldr	r3, [r7, #12]
 8002ff2:	3301      	adds	r3, #1
 8002ff4:	60fb      	str	r3, [r7, #12]
 8002ff6:	68fb      	ldr	r3, [r7, #12]
 8002ff8:	f5b3 7ffa 	cmp.w	r3, #500	; 0x1f4
 8002ffc:	dbf7      	blt.n	8002fee <TM1637_DelayUsec+0x10>
    for (; i>0; i--) {
 8002ffe:	687b      	ldr	r3, [r7, #4]
 8003000:	3b01      	subs	r3, #1
 8003002:	607b      	str	r3, [r7, #4]
 8003004:	687b      	ldr	r3, [r7, #4]
 8003006:	2b00      	cmp	r3, #0
 8003008:	d1ee      	bne.n	8002fe8 <TM1637_DelayUsec+0xa>
        }
    }
}
 800300a:	bf00      	nop
 800300c:	bf00      	nop
 800300e:	3714      	adds	r7, #20
 8003010:	46bd      	mov	sp, r7
 8003012:	f85d 7b04 	ldr.w	r7, [sp], #4
 8003016:	4770      	bx	lr

08003018 <TM1637_gpio_init>:

void TM1637_gpio_init(){
 8003018:	b580      	push	{r7, lr}
 800301a:	b086      	sub	sp, #24
 800301c:	af00      	add	r7, sp, #0
	LL_GPIO_InitTypeDef GPIO_InitStruct = {0};
 800301e:	463b      	mov	r3, r7
 8003020:	2200      	movs	r2, #0
 8003022:	601a      	str	r2, [r3, #0]
 8003024:	605a      	str	r2, [r3, #4]
 8003026:	609a      	str	r2, [r3, #8]
 8003028:	60da      	str	r2, [r3, #12]
 800302a:	611a      	str	r2, [r3, #16]
 800302c:	615a      	str	r2, [r3, #20]
	LL_AHB2_GRP1_EnableClock(LL_AHB2_GRP1_PERIPH_GPIOA);
 800302e:	2001      	movs	r0, #1
 8003030:	f7ff fe4c 	bl	8002ccc <LL_AHB2_GRP1_EnableClock>
	LL_AHB2_GRP1_EnableClock(LL_AHB2_GRP1_PERIPH_GPIOC);
 8003034:	2004      	movs	r0, #4
 8003036:	f7ff fe49 	bl	8002ccc <LL_AHB2_GRP1_EnableClock>

	GPIO_InitStruct.Pin = DATA_PIN;
 800303a:	2380      	movs	r3, #128	; 0x80
 800303c:	603b      	str	r3, [r7, #0]
	GPIO_InitStruct.Mode = LL_GPIO_MODE_OUTPUT;
 800303e:	2301      	movs	r3, #1
 8003040:	607b      	str	r3, [r7, #4]
	GPIO_InitStruct.Speed = LL_GPIO_SPEED_FREQ_HIGH;
 8003042:	2302      	movs	r3, #2
 8003044:	60bb      	str	r3, [r7, #8]
	GPIO_InitStruct.OutputType = LL_GPIO_OUTPUT_PUSHPULL;
 8003046:	2300      	movs	r3, #0
 8003048:	60fb      	str	r3, [r7, #12]
	GPIO_InitStruct.Pull = LL_GPIO_PULL_NO;
 800304a:	2300      	movs	r3, #0
 800304c:	613b      	str	r3, [r7, #16]
	LL_GPIO_Init(DATA_GPIO_PORT, &GPIO_InitStruct);
 800304e:	463b      	mov	r3, r7
 8003050:	4619      	mov	r1, r3
 8003052:	f04f 4090 	mov.w	r0, #1207959552	; 0x48000000
 8003056:	f000 f989 	bl	800336c <LL_GPIO_Init>

	GPIO_InitStruct.Pin = CLK_PIN;
 800305a:	2380      	movs	r3, #128	; 0x80
 800305c:	603b      	str	r3, [r7, #0]
	GPIO_InitStruct.Mode = LL_GPIO_MODE_OUTPUT;
 800305e:	2301      	movs	r3, #1
 8003060:	607b      	str	r3, [r7, #4]
	GPIO_InitStruct.Speed = LL_GPIO_SPEED_FREQ_HIGH;
 8003062:	2302      	movs	r3, #2
 8003064:	60bb      	str	r3, [r7, #8]
 	GPIO_InitStruct.OutputType = LL_GPIO_OUTPUT_PUSHPULL;
 8003066:	2300      	movs	r3, #0
 8003068:	60fb      	str	r3, [r7, #12]
	GPIO_InitStruct.Pull = LL_GPIO_PULL_NO;
 800306a:	2300      	movs	r3, #0
 800306c:	613b      	str	r3, [r7, #16]
	LL_GPIO_Init(CLK_GPIO_PORT, &GPIO_InitStruct);
 800306e:	463b      	mov	r3, r7
 8003070:	4619      	mov	r1, r3
 8003072:	4803      	ldr	r0, [pc, #12]	; (8003080 <TM1637_gpio_init+0x68>)
 8003074:	f000 f97a 	bl	800336c <LL_GPIO_Init>
}
 8003078:	bf00      	nop
 800307a:	3718      	adds	r7, #24
 800307c:	46bd      	mov	sp, r7
 800307e:	bd80      	pop	{r7, pc}
 8003080:	48000800 	.word	0x48000800

08003084 <Reset_Handler>:
 8003084:	f8df d034 	ldr.w	sp, [pc, #52]	; 80030bc <LoopForever+0x2>
 8003088:	f7ff fe0e 	bl	8002ca8 <SystemInit>
 800308c:	480c      	ldr	r0, [pc, #48]	; (80030c0 <LoopForever+0x6>)
 800308e:	490d      	ldr	r1, [pc, #52]	; (80030c4 <LoopForever+0xa>)
 8003090:	4a0d      	ldr	r2, [pc, #52]	; (80030c8 <LoopForever+0xe>)
 8003092:	2300      	movs	r3, #0
 8003094:	e002      	b.n	800309c <LoopCopyDataInit>

08003096 <CopyDataInit>:
 8003096:	58d4      	ldr	r4, [r2, r3]
 8003098:	50c4      	str	r4, [r0, r3]
 800309a:	3304      	adds	r3, #4

0800309c <LoopCopyDataInit>:
 800309c:	18c4      	adds	r4, r0, r3
 800309e:	428c      	cmp	r4, r1
 80030a0:	d3f9      	bcc.n	8003096 <CopyDataInit>
 80030a2:	4a0a      	ldr	r2, [pc, #40]	; (80030cc <LoopForever+0x12>)
 80030a4:	4c0a      	ldr	r4, [pc, #40]	; (80030d0 <LoopForever+0x16>)
 80030a6:	2300      	movs	r3, #0
 80030a8:	e001      	b.n	80030ae <LoopFillZerobss>

080030aa <FillZerobss>:
 80030aa:	6013      	str	r3, [r2, #0]
 80030ac:	3204      	adds	r2, #4

080030ae <LoopFillZerobss>:
 80030ae:	42a2      	cmp	r2, r4
 80030b0:	d3fb      	bcc.n	80030aa <FillZerobss>
 80030b2:	f001 fc57 	bl	8004964 <__libc_init_array>
 80030b6:	f7ff fa31 	bl	800251c <main>

080030ba <LoopForever>:
 80030ba:	e7fe      	b.n	80030ba <LoopForever>
 80030bc:	20018000 	.word	0x20018000
 80030c0:	20000000 	.word	0x20000000
 80030c4:	20000060 	.word	0x20000060
 80030c8:	080068f8 	.word	0x080068f8
 80030cc:	20000060 	.word	0x20000060
 80030d0:	20000210 	.word	0x20000210

080030d4 <ADC1_2_IRQHandler>:
 80030d4:	e7fe      	b.n	80030d4 <ADC1_2_IRQHandler>

080030d6 <LL_GPIO_SetPinMode>:
 80030d6:	b480      	push	{r7}
 80030d8:	b08b      	sub	sp, #44	; 0x2c
 80030da:	af00      	add	r7, sp, #0
 80030dc:	60f8      	str	r0, [r7, #12]
 80030de:	60b9      	str	r1, [r7, #8]
 80030e0:	607a      	str	r2, [r7, #4]
 80030e2:	68fb      	ldr	r3, [r7, #12]
 80030e4:	681a      	ldr	r2, [r3, #0]
 80030e6:	68bb      	ldr	r3, [r7, #8]
 80030e8:	617b      	str	r3, [r7, #20]
 80030ea:	697b      	ldr	r3, [r7, #20]
 80030ec:	fa93 f3a3 	rbit	r3, r3
 80030f0:	613b      	str	r3, [r7, #16]
 80030f2:	693b      	ldr	r3, [r7, #16]
 80030f4:	61bb      	str	r3, [r7, #24]
 80030f6:	69bb      	ldr	r3, [r7, #24]
 80030f8:	2b00      	cmp	r3, #0
 80030fa:	d101      	bne.n	8003100 <LL_GPIO_SetPinMode+0x2a>
 80030fc:	2320      	movs	r3, #32
 80030fe:	e003      	b.n	8003108 <LL_GPIO_SetPinMode+0x32>
 8003100:	69bb      	ldr	r3, [r7, #24]
 8003102:	fab3 f383 	clz	r3, r3
 8003106:	b2db      	uxtb	r3, r3
 8003108:	005b      	lsls	r3, r3, #1
 800310a:	2103      	movs	r1, #3
 800310c:	fa01 f303 	lsl.w	r3, r1, r3
 8003110:	43db      	mvns	r3, r3
 8003112:	401a      	ands	r2, r3
 8003114:	68bb      	ldr	r3, [r7, #8]
 8003116:	623b      	str	r3, [r7, #32]
 8003118:	6a3b      	ldr	r3, [r7, #32]
 800311a:	fa93 f3a3 	rbit	r3, r3
 800311e:	61fb      	str	r3, [r7, #28]
 8003120:	69fb      	ldr	r3, [r7, #28]
 8003122:	627b      	str	r3, [r7, #36]	; 0x24
 8003124:	6a7b      	ldr	r3, [r7, #36]	; 0x24
 8003126:	2b00      	cmp	r3, #0
 8003128:	d101      	bne.n	800312e <LL_GPIO_SetPinMode+0x58>
 800312a:	2320      	movs	r3, #32
 800312c:	e003      	b.n	8003136 <LL_GPIO_SetPinMode+0x60>
 800312e:	6a7b      	ldr	r3, [r7, #36]	; 0x24
 8003130:	fab3 f383 	clz	r3, r3
 8003134:	b2db      	uxtb	r3, r3
 8003136:	005b      	lsls	r3, r3, #1
 8003138:	6879      	ldr	r1, [r7, #4]
 800313a:	fa01 f303 	lsl.w	r3, r1, r3
 800313e:	431a      	orrs	r2, r3
 8003140:	68fb      	ldr	r3, [r7, #12]
 8003142:	601a      	str	r2, [r3, #0]
 8003144:	bf00      	nop
 8003146:	372c      	adds	r7, #44	; 0x2c
 8003148:	46bd      	mov	sp, r7
 800314a:	f85d 7b04 	ldr.w	r7, [sp], #4
 800314e:	4770      	bx	lr

08003150 <LL_GPIO_SetPinOutputType>:
 8003150:	b480      	push	{r7}
 8003152:	b085      	sub	sp, #20
 8003154:	af00      	add	r7, sp, #0
 8003156:	60f8      	str	r0, [r7, #12]
 8003158:	60b9      	str	r1, [r7, #8]
 800315a:	607a      	str	r2, [r7, #4]
 800315c:	68fb      	ldr	r3, [r7, #12]
 800315e:	685a      	ldr	r2, [r3, #4]
 8003160:	68bb      	ldr	r3, [r7, #8]
 8003162:	43db      	mvns	r3, r3
 8003164:	401a      	ands	r2, r3
 8003166:	68bb      	ldr	r3, [r7, #8]
 8003168:	6879      	ldr	r1, [r7, #4]
 800316a:	fb01 f303 	mul.w	r3, r1, r3
 800316e:	431a      	orrs	r2, r3
 8003170:	68fb      	ldr	r3, [r7, #12]
 8003172:	605a      	str	r2, [r3, #4]
 8003174:	bf00      	nop
 8003176:	3714      	adds	r7, #20
 8003178:	46bd      	mov	sp, r7
 800317a:	f85d 7b04 	ldr.w	r7, [sp], #4
 800317e:	4770      	bx	lr

08003180 <LL_GPIO_SetPinSpeed>:
 8003180:	b480      	push	{r7}
 8003182:	b08b      	sub	sp, #44	; 0x2c
 8003184:	af00      	add	r7, sp, #0
 8003186:	60f8      	str	r0, [r7, #12]
 8003188:	60b9      	str	r1, [r7, #8]
 800318a:	607a      	str	r2, [r7, #4]
 800318c:	68fb      	ldr	r3, [r7, #12]
 800318e:	689a      	ldr	r2, [r3, #8]
 8003190:	68bb      	ldr	r3, [r7, #8]
 8003192:	617b      	str	r3, [r7, #20]
 8003194:	697b      	ldr	r3, [r7, #20]
 8003196:	fa93 f3a3 	rbit	r3, r3
 800319a:	613b      	str	r3, [r7, #16]
 800319c:	693b      	ldr	r3, [r7, #16]
 800319e:	61bb      	str	r3, [r7, #24]
 80031a0:	69bb      	ldr	r3, [r7, #24]
 80031a2:	2b00      	cmp	r3, #0
 80031a4:	d101      	bne.n	80031aa <LL_GPIO_SetPinSpeed+0x2a>
 80031a6:	2320      	movs	r3, #32
 80031a8:	e003      	b.n	80031b2 <LL_GPIO_SetPinSpeed+0x32>
 80031aa:	69bb      	ldr	r3, [r7, #24]
 80031ac:	fab3 f383 	clz	r3, r3
 80031b0:	b2db      	uxtb	r3, r3
 80031b2:	005b      	lsls	r3, r3, #1
 80031b4:	2103      	movs	r1, #3
 80031b6:	fa01 f303 	lsl.w	r3, r1, r3
 80031ba:	43db      	mvns	r3, r3
 80031bc:	401a      	ands	r2, r3
 80031be:	68bb      	ldr	r3, [r7, #8]
 80031c0:	623b      	str	r3, [r7, #32]
 80031c2:	6a3b      	ldr	r3, [r7, #32]
 80031c4:	fa93 f3a3 	rbit	r3, r3
 80031c8:	61fb      	str	r3, [r7, #28]
 80031ca:	69fb      	ldr	r3, [r7, #28]
 80031cc:	627b      	str	r3, [r7, #36]	; 0x24
 80031ce:	6a7b      	ldr	r3, [r7, #36]	; 0x24
 80031d0:	2b00      	cmp	r3, #0
 80031d2:	d101      	bne.n	80031d8 <LL_GPIO_SetPinSpeed+0x58>
 80031d4:	2320      	movs	r3, #32
 80031d6:	e003      	b.n	80031e0 <LL_GPIO_SetPinSpeed+0x60>
 80031d8:	6a7b      	ldr	r3, [r7, #36]	; 0x24
 80031da:	fab3 f383 	clz	r3, r3
 80031de:	b2db      	uxtb	r3, r3
 80031e0:	005b      	lsls	r3, r3, #1
 80031e2:	6879      	ldr	r1, [r7, #4]
 80031e4:	fa01 f303 	lsl.w	r3, r1, r3
 80031e8:	431a      	orrs	r2, r3
 80031ea:	68fb      	ldr	r3, [r7, #12]
 80031ec:	609a      	str	r2, [r3, #8]
 80031ee:	bf00      	nop
 80031f0:	372c      	adds	r7, #44	; 0x2c
 80031f2:	46bd      	mov	sp, r7
 80031f4:	f85d 7b04 	ldr.w	r7, [sp], #4
 80031f8:	4770      	bx	lr

080031fa <LL_GPIO_SetPinPull>:
 80031fa:	b480      	push	{r7}
 80031fc:	b08b      	sub	sp, #44	; 0x2c
 80031fe:	af00      	add	r7, sp, #0
 8003200:	60f8      	str	r0, [r7, #12]
 8003202:	60b9      	str	r1, [r7, #8]
 8003204:	607a      	str	r2, [r7, #4]
 8003206:	68fb      	ldr	r3, [r7, #12]
 8003208:	68da      	ldr	r2, [r3, #12]
 800320a:	68bb      	ldr	r3, [r7, #8]
 800320c:	617b      	str	r3, [r7, #20]
 800320e:	697b      	ldr	r3, [r7, #20]
 8003210:	fa93 f3a3 	rbit	r3, r3
 8003214:	613b      	str	r3, [r7, #16]
 8003216:	693b      	ldr	r3, [r7, #16]
 8003218:	61bb      	str	r3, [r7, #24]
 800321a:	69bb      	ldr	r3, [r7, #24]
 800321c:	2b00      	cmp	r3, #0
 800321e:	d101      	bne.n	8003224 <LL_GPIO_SetPinPull+0x2a>
 8003220:	2320      	movs	r3, #32
 8003222:	e003      	b.n	800322c <LL_GPIO_SetPinPull+0x32>
 8003224:	69bb      	ldr	r3, [r7, #24]
 8003226:	fab3 f383 	clz	r3, r3
 800322a:	b2db      	uxtb	r3, r3
 800322c:	005b      	lsls	r3, r3, #1
 800322e:	2103      	movs	r1, #3
 8003230:	fa01 f303 	lsl.w	r3, r1, r3
 8003234:	43db      	mvns	r3, r3
 8003236:	401a      	ands	r2, r3
 8003238:	68bb      	ldr	r3, [r7, #8]
 800323a:	623b      	str	r3, [r7, #32]
 800323c:	6a3b      	ldr	r3, [r7, #32]
 800323e:	fa93 f3a3 	rbit	r3, r3
 8003242:	61fb      	str	r3, [r7, #28]
 8003244:	69fb      	ldr	r3, [r7, #28]
 8003246:	627b      	str	r3, [r7, #36]	; 0x24
 8003248:	6a7b      	ldr	r3, [r7, #36]	; 0x24
 800324a:	2b00      	cmp	r3, #0
 800324c:	d101      	bne.n	8003252 <LL_GPIO_SetPinPull+0x58>
 800324e:	2320      	movs	r3, #32
 8003250:	e003      	b.n	800325a <LL_GPIO_SetPinPull+0x60>
 8003252:	6a7b      	ldr	r3, [r7, #36]	; 0x24
 8003254:	fab3 f383 	clz	r3, r3
 8003258:	b2db      	uxtb	r3, r3
 800325a:	005b      	lsls	r3, r3, #1
 800325c:	6879      	ldr	r1, [r7, #4]
 800325e:	fa01 f303 	lsl.w	r3, r1, r3
 8003262:	431a      	orrs	r2, r3
 8003264:	68fb      	ldr	r3, [r7, #12]
 8003266:	60da      	str	r2, [r3, #12]
 8003268:	bf00      	nop
 800326a:	372c      	adds	r7, #44	; 0x2c
 800326c:	46bd      	mov	sp, r7
 800326e:	f85d 7b04 	ldr.w	r7, [sp], #4
 8003272:	4770      	bx	lr

08003274 <LL_GPIO_SetAFPin_0_7>:
 8003274:	b480      	push	{r7}
 8003276:	b08b      	sub	sp, #44	; 0x2c
 8003278:	af00      	add	r7, sp, #0
 800327a:	60f8      	str	r0, [r7, #12]
 800327c:	60b9      	str	r1, [r7, #8]
 800327e:	607a      	str	r2, [r7, #4]
 8003280:	68fb      	ldr	r3, [r7, #12]
 8003282:	6a1a      	ldr	r2, [r3, #32]
 8003284:	68bb      	ldr	r3, [r7, #8]
 8003286:	617b      	str	r3, [r7, #20]
 8003288:	697b      	ldr	r3, [r7, #20]
 800328a:	fa93 f3a3 	rbit	r3, r3
 800328e:	613b      	str	r3, [r7, #16]
 8003290:	693b      	ldr	r3, [r7, #16]
 8003292:	61bb      	str	r3, [r7, #24]
 8003294:	69bb      	ldr	r3, [r7, #24]
 8003296:	2b00      	cmp	r3, #0
 8003298:	d101      	bne.n	800329e <LL_GPIO_SetAFPin_0_7+0x2a>
 800329a:	2320      	movs	r3, #32
 800329c:	e003      	b.n	80032a6 <LL_GPIO_SetAFPin_0_7+0x32>
 800329e:	69bb      	ldr	r3, [r7, #24]
 80032a0:	fab3 f383 	clz	r3, r3
 80032a4:	b2db      	uxtb	r3, r3
 80032a6:	009b      	lsls	r3, r3, #2
 80032a8:	210f      	movs	r1, #15
 80032aa:	fa01 f303 	lsl.w	r3, r1, r3
 80032ae:	43db      	mvns	r3, r3
 80032b0:	401a      	ands	r2, r3
 80032b2:	68bb      	ldr	r3, [r7, #8]
 80032b4:	623b      	str	r3, [r7, #32]
 80032b6:	6a3b      	ldr	r3, [r7, #32]
 80032b8:	fa93 f3a3 	rbit	r3, r3
 80032bc:	61fb      	str	r3, [r7, #28]
 80032be:	69fb      	ldr	r3, [r7, #28]
 80032c0:	627b      	str	r3, [r7, #36]	; 0x24
 80032c2:	6a7b      	ldr	r3, [r7, #36]	; 0x24
 80032c4:	2b00      	cmp	r3, #0
 80032c6:	d101      	bne.n	80032cc <LL_GPIO_SetAFPin_0_7+0x58>
 80032c8:	2320      	movs	r3, #32
 80032ca:	e003      	b.n	80032d4 <LL_GPIO_SetAFPin_0_7+0x60>
 80032cc:	6a7b      	ldr	r3, [r7, #36]	; 0x24
 80032ce:	fab3 f383 	clz	r3, r3
 80032d2:	b2db      	uxtb	r3, r3
 80032d4:	009b      	lsls	r3, r3, #2
 80032d6:	6879      	ldr	r1, [r7, #4]
 80032d8:	fa01 f303 	lsl.w	r3, r1, r3
 80032dc:	431a      	orrs	r2, r3
 80032de:	68fb      	ldr	r3, [r7, #12]
 80032e0:	621a      	str	r2, [r3, #32]
 80032e2:	bf00      	nop
 80032e4:	372c      	adds	r7, #44	; 0x2c
 80032e6:	46bd      	mov	sp, r7
 80032e8:	f85d 7b04 	ldr.w	r7, [sp], #4
 80032ec:	4770      	bx	lr

080032ee <LL_GPIO_SetAFPin_8_15>:
 80032ee:	b480      	push	{r7}
 80032f0:	b08b      	sub	sp, #44	; 0x2c
 80032f2:	af00      	add	r7, sp, #0
 80032f4:	60f8      	str	r0, [r7, #12]
 80032f6:	60b9      	str	r1, [r7, #8]
 80032f8:	607a      	str	r2, [r7, #4]
 80032fa:	68fb      	ldr	r3, [r7, #12]
 80032fc:	6a5a      	ldr	r2, [r3, #36]	; 0x24
 80032fe:	68bb      	ldr	r3, [r7, #8]
 8003300:	0a1b      	lsrs	r3, r3, #8
 8003302:	617b      	str	r3, [r7, #20]
 8003304:	697b      	ldr	r3, [r7, #20]
 8003306:	fa93 f3a3 	rbit	r3, r3
 800330a:	613b      	str	r3, [r7, #16]
 800330c:	693b      	ldr	r3, [r7, #16]
 800330e:	61bb      	str	r3, [r7, #24]
 8003310:	69bb      	ldr	r3, [r7, #24]
 8003312:	2b00      	cmp	r3, #0
 8003314:	d101      	bne.n	800331a <LL_GPIO_SetAFPin_8_15+0x2c>
 8003316:	2320      	movs	r3, #32
 8003318:	e003      	b.n	8003322 <LL_GPIO_SetAFPin_8_15+0x34>
 800331a:	69bb      	ldr	r3, [r7, #24]
 800331c:	fab3 f383 	clz	r3, r3
 8003320:	b2db      	uxtb	r3, r3
 8003322:	009b      	lsls	r3, r3, #2
 8003324:	210f      	movs	r1, #15
 8003326:	fa01 f303 	lsl.w	r3, r1, r3
 800332a:	43db      	mvns	r3, r3
 800332c:	401a      	ands	r2, r3
 800332e:	68bb      	ldr	r3, [r7, #8]
 8003330:	0a1b      	lsrs	r3, r3, #8
 8003332:	623b      	str	r3, [r7, #32]
 8003334:	6a3b      	ldr	r3, [r7, #32]
 8003336:	fa93 f3a3 	rbit	r3, r3
 800333a:	61fb      	str	r3, [r7, #28]
 800333c:	69fb      	ldr	r3, [r7, #28]
 800333e:	627b      	str	r3, [r7, #36]	; 0x24
 8003340:	6a7b      	ldr	r3, [r7, #36]	; 0x24
 8003342:	2b00      	cmp	r3, #0
 8003344:	d101      	bne.n	800334a <LL_GPIO_SetAFPin_8_15+0x5c>
 8003346:	2320      	movs	r3, #32
 8003348:	e003      	b.n	8003352 <LL_GPIO_SetAFPin_8_15+0x64>
 800334a:	6a7b      	ldr	r3, [r7, #36]	; 0x24
 800334c:	fab3 f383 	clz	r3, r3
 8003350:	b2db      	uxtb	r3, r3
 8003352:	009b      	lsls	r3, r3, #2
 8003354:	6879      	ldr	r1, [r7, #4]
 8003356:	fa01 f303 	lsl.w	r3, r1, r3
 800335a:	431a      	orrs	r2, r3
 800335c:	68fb      	ldr	r3, [r7, #12]
 800335e:	625a      	str	r2, [r3, #36]	; 0x24
 8003360:	bf00      	nop
 8003362:	372c      	adds	r7, #44	; 0x2c
 8003364:	46bd      	mov	sp, r7
 8003366:	f85d 7b04 	ldr.w	r7, [sp], #4
 800336a:	4770      	bx	lr

0800336c <LL_GPIO_Init>:
 800336c:	b580      	push	{r7, lr}
 800336e:	b088      	sub	sp, #32
 8003370:	af00      	add	r7, sp, #0
 8003372:	6078      	str	r0, [r7, #4]
 8003374:	6039      	str	r1, [r7, #0]
 8003376:	683b      	ldr	r3, [r7, #0]
 8003378:	681b      	ldr	r3, [r3, #0]
 800337a:	613b      	str	r3, [r7, #16]
 800337c:	693b      	ldr	r3, [r7, #16]
 800337e:	fa93 f3a3 	rbit	r3, r3
 8003382:	60fb      	str	r3, [r7, #12]
 8003384:	68fb      	ldr	r3, [r7, #12]
 8003386:	617b      	str	r3, [r7, #20]
 8003388:	697b      	ldr	r3, [r7, #20]
 800338a:	2b00      	cmp	r3, #0
 800338c:	d101      	bne.n	8003392 <LL_GPIO_Init+0x26>
 800338e:	2320      	movs	r3, #32
 8003390:	e003      	b.n	800339a <LL_GPIO_Init+0x2e>
 8003392:	697b      	ldr	r3, [r7, #20]
 8003394:	fab3 f383 	clz	r3, r3
 8003398:	b2db      	uxtb	r3, r3
 800339a:	61fb      	str	r3, [r7, #28]
 800339c:	e048      	b.n	8003430 <LL_GPIO_Init+0xc4>
 800339e:	683b      	ldr	r3, [r7, #0]
 80033a0:	681a      	ldr	r2, [r3, #0]
 80033a2:	2101      	movs	r1, #1
 80033a4:	69fb      	ldr	r3, [r7, #28]
 80033a6:	fa01 f303 	lsl.w	r3, r1, r3
 80033aa:	4013      	ands	r3, r2
 80033ac:	61bb      	str	r3, [r7, #24]
 80033ae:	69bb      	ldr	r3, [r7, #24]
 80033b0:	2b00      	cmp	r3, #0
 80033b2:	d03a      	beq.n	800342a <LL_GPIO_Init+0xbe>
 80033b4:	683b      	ldr	r3, [r7, #0]
 80033b6:	685b      	ldr	r3, [r3, #4]
 80033b8:	2b01      	cmp	r3, #1
 80033ba:	d003      	beq.n	80033c4 <LL_GPIO_Init+0x58>
 80033bc:	683b      	ldr	r3, [r7, #0]
 80033be:	685b      	ldr	r3, [r3, #4]
 80033c0:	2b02      	cmp	r3, #2
 80033c2:	d10e      	bne.n	80033e2 <LL_GPIO_Init+0x76>
 80033c4:	683b      	ldr	r3, [r7, #0]
 80033c6:	689b      	ldr	r3, [r3, #8]
 80033c8:	461a      	mov	r2, r3
 80033ca:	69b9      	ldr	r1, [r7, #24]
 80033cc:	6878      	ldr	r0, [r7, #4]
 80033ce:	f7ff fed7 	bl	8003180 <LL_GPIO_SetPinSpeed>
 80033d2:	683b      	ldr	r3, [r7, #0]
 80033d4:	6819      	ldr	r1, [r3, #0]
 80033d6:	683b      	ldr	r3, [r7, #0]
 80033d8:	68db      	ldr	r3, [r3, #12]
 80033da:	461a      	mov	r2, r3
 80033dc:	6878      	ldr	r0, [r7, #4]
 80033de:	f7ff feb7 	bl	8003150 <LL_GPIO_SetPinOutputType>
 80033e2:	683b      	ldr	r3, [r7, #0]
 80033e4:	691b      	ldr	r3, [r3, #16]
 80033e6:	461a      	mov	r2, r3
 80033e8:	69b9      	ldr	r1, [r7, #24]
 80033ea:	6878      	ldr	r0, [r7, #4]
 80033ec:	f7ff ff05 	bl	80031fa <LL_GPIO_SetPinPull>
 80033f0:	683b      	ldr	r3, [r7, #0]
 80033f2:	685b      	ldr	r3, [r3, #4]
 80033f4:	2b02      	cmp	r3, #2
 80033f6:	d111      	bne.n	800341c <LL_GPIO_Init+0xb0>
 80033f8:	69bb      	ldr	r3, [r7, #24]
 80033fa:	2bff      	cmp	r3, #255	; 0xff
 80033fc:	d807      	bhi.n	800340e <LL_GPIO_Init+0xa2>
 80033fe:	683b      	ldr	r3, [r7, #0]
 8003400:	695b      	ldr	r3, [r3, #20]
 8003402:	461a      	mov	r2, r3
 8003404:	69b9      	ldr	r1, [r7, #24]
 8003406:	6878      	ldr	r0, [r7, #4]
 8003408:	f7ff ff34 	bl	8003274 <LL_GPIO_SetAFPin_0_7>
 800340c:	e006      	b.n	800341c <LL_GPIO_Init+0xb0>
 800340e:	683b      	ldr	r3, [r7, #0]
 8003410:	695b      	ldr	r3, [r3, #20]
 8003412:	461a      	mov	r2, r3
 8003414:	69b9      	ldr	r1, [r7, #24]
 8003416:	6878      	ldr	r0, [r7, #4]
 8003418:	f7ff ff69 	bl	80032ee <LL_GPIO_SetAFPin_8_15>
 800341c:	683b      	ldr	r3, [r7, #0]
 800341e:	685b      	ldr	r3, [r3, #4]
 8003420:	461a      	mov	r2, r3
 8003422:	69b9      	ldr	r1, [r7, #24]
 8003424:	6878      	ldr	r0, [r7, #4]
 8003426:	f7ff fe56 	bl	80030d6 <LL_GPIO_SetPinMode>
 800342a:	69fb      	ldr	r3, [r7, #28]
 800342c:	3301      	adds	r3, #1
 800342e:	61fb      	str	r3, [r7, #28]
 8003430:	683b      	ldr	r3, [r7, #0]
 8003432:	681a      	ldr	r2, [r3, #0]
 8003434:	69fb      	ldr	r3, [r7, #28]
 8003436:	fa22 f303 	lsr.w	r3, r2, r3
 800343a:	2b00      	cmp	r3, #0
 800343c:	d1af      	bne.n	800339e <LL_GPIO_Init+0x32>
 800343e:	2300      	movs	r3, #0
 8003440:	4618      	mov	r0, r3
 8003442:	3720      	adds	r7, #32
 8003444:	46bd      	mov	sp, r7
 8003446:	bd80      	pop	{r7, pc}

08003448 <LL_RCC_HSI_IsReady>:
 8003448:	b480      	push	{r7}
 800344a:	af00      	add	r7, sp, #0
 800344c:	4b07      	ldr	r3, [pc, #28]	; (800346c <LL_RCC_HSI_IsReady+0x24>)
 800344e:	681b      	ldr	r3, [r3, #0]
 8003450:	f403 6380 	and.w	r3, r3, #1024	; 0x400
 8003454:	f5b3 6f80 	cmp.w	r3, #1024	; 0x400
 8003458:	d101      	bne.n	800345e <LL_RCC_HSI_IsReady+0x16>
 800345a:	2301      	movs	r3, #1
 800345c:	e000      	b.n	8003460 <LL_RCC_HSI_IsReady+0x18>
 800345e:	2300      	movs	r3, #0
 8003460:	4618      	mov	r0, r3
 8003462:	46bd      	mov	sp, r7
 8003464:	f85d 7b04 	ldr.w	r7, [sp], #4
 8003468:	4770      	bx	lr
 800346a:	bf00      	nop
 800346c:	40021000 	.word	0x40021000

08003470 <LL_RCC_LSE_IsReady>:
 8003470:	b480      	push	{r7}
 8003472:	af00      	add	r7, sp, #0
 8003474:	4b07      	ldr	r3, [pc, #28]	; (8003494 <LL_RCC_LSE_IsReady+0x24>)
 8003476:	f8d3 3090 	ldr.w	r3, [r3, #144]	; 0x90
 800347a:	f003 0302 	and.w	r3, r3, #2
 800347e:	2b02      	cmp	r3, #2
 8003480:	d101      	bne.n	8003486 <LL_RCC_LSE_IsReady+0x16>
 8003482:	2301      	movs	r3, #1
 8003484:	e000      	b.n	8003488 <LL_RCC_LSE_IsReady+0x18>
 8003486:	2300      	movs	r3, #0
 8003488:	4618      	mov	r0, r3
 800348a:	46bd      	mov	sp, r7
 800348c:	f85d 7b04 	ldr.w	r7, [sp], #4
 8003490:	4770      	bx	lr
 8003492:	bf00      	nop
 8003494:	40021000 	.word	0x40021000

08003498 <LL_RCC_MSI_IsEnabledRangeSelect>:
 8003498:	b480      	push	{r7}
 800349a:	af00      	add	r7, sp, #0
 800349c:	4b06      	ldr	r3, [pc, #24]	; (80034b8 <LL_RCC_MSI_IsEnabledRangeSelect+0x20>)
 800349e:	681b      	ldr	r3, [r3, #0]
 80034a0:	f003 0308 	and.w	r3, r3, #8
 80034a4:	2b08      	cmp	r3, #8
 80034a6:	d101      	bne.n	80034ac <LL_RCC_MSI_IsEnabledRangeSelect+0x14>
 80034a8:	2301      	movs	r3, #1
 80034aa:	e000      	b.n	80034ae <LL_RCC_MSI_IsEnabledRangeSelect+0x16>
 80034ac:	2300      	movs	r3, #0
 80034ae:	4618      	mov	r0, r3
 80034b0:	46bd      	mov	sp, r7
 80034b2:	f85d 7b04 	ldr.w	r7, [sp], #4
 80034b6:	4770      	bx	lr
 80034b8:	40021000 	.word	0x40021000

080034bc <LL_RCC_MSI_GetRange>:
 80034bc:	b480      	push	{r7}
 80034be:	af00      	add	r7, sp, #0
 80034c0:	4b04      	ldr	r3, [pc, #16]	; (80034d4 <LL_RCC_MSI_GetRange+0x18>)
 80034c2:	681b      	ldr	r3, [r3, #0]
 80034c4:	f003 03f0 	and.w	r3, r3, #240	; 0xf0
 80034c8:	4618      	mov	r0, r3
 80034ca:	46bd      	mov	sp, r7
 80034cc:	f85d 7b04 	ldr.w	r7, [sp], #4
 80034d0:	4770      	bx	lr
 80034d2:	bf00      	nop
 80034d4:	40021000 	.word	0x40021000

080034d8 <LL_RCC_MSI_GetRangeAfterStandby>:
 80034d8:	b480      	push	{r7}
 80034da:	af00      	add	r7, sp, #0
 80034dc:	4b04      	ldr	r3, [pc, #16]	; (80034f0 <LL_RCC_MSI_GetRangeAfterStandby+0x18>)
 80034de:	f8d3 3094 	ldr.w	r3, [r3, #148]	; 0x94
 80034e2:	f403 6370 	and.w	r3, r3, #3840	; 0xf00
 80034e6:	4618      	mov	r0, r3
 80034e8:	46bd      	mov	sp, r7
 80034ea:	f85d 7b04 	ldr.w	r7, [sp], #4
 80034ee:	4770      	bx	lr
 80034f0:	40021000 	.word	0x40021000

080034f4 <LL_RCC_GetSysClkSource>:
 80034f4:	b480      	push	{r7}
 80034f6:	af00      	add	r7, sp, #0
 80034f8:	4b04      	ldr	r3, [pc, #16]	; (800350c <LL_RCC_GetSysClkSource+0x18>)
 80034fa:	689b      	ldr	r3, [r3, #8]
 80034fc:	f003 030c 	and.w	r3, r3, #12
 8003500:	4618      	mov	r0, r3
 8003502:	46bd      	mov	sp, r7
 8003504:	f85d 7b04 	ldr.w	r7, [sp], #4
 8003508:	4770      	bx	lr
 800350a:	bf00      	nop
 800350c:	40021000 	.word	0x40021000

08003510 <LL_RCC_GetAHBPrescaler>:
 8003510:	b480      	push	{r7}
 8003512:	af00      	add	r7, sp, #0
 8003514:	4b04      	ldr	r3, [pc, #16]	; (8003528 <LL_RCC_GetAHBPrescaler+0x18>)
 8003516:	689b      	ldr	r3, [r3, #8]
 8003518:	f003 03f0 	and.w	r3, r3, #240	; 0xf0
 800351c:	4618      	mov	r0, r3
 800351e:	46bd      	mov	sp, r7
 8003520:	f85d 7b04 	ldr.w	r7, [sp], #4
 8003524:	4770      	bx	lr
 8003526:	bf00      	nop
 8003528:	40021000 	.word	0x40021000

0800352c <LL_RCC_GetAPB1Prescaler>:
 800352c:	b480      	push	{r7}
 800352e:	af00      	add	r7, sp, #0
 8003530:	4b04      	ldr	r3, [pc, #16]	; (8003544 <LL_RCC_GetAPB1Prescaler+0x18>)
 8003532:	689b      	ldr	r3, [r3, #8]
 8003534:	f403 63e0 	and.w	r3, r3, #1792	; 0x700
 8003538:	4618      	mov	r0, r3
 800353a:	46bd      	mov	sp, r7
 800353c:	f85d 7b04 	ldr.w	r7, [sp], #4
 8003540:	4770      	bx	lr
 8003542:	bf00      	nop
 8003544:	40021000 	.word	0x40021000

08003548 <LL_RCC_GetAPB2Prescaler>:
 8003548:	b480      	push	{r7}
 800354a:	af00      	add	r7, sp, #0
 800354c:	4b04      	ldr	r3, [pc, #16]	; (8003560 <LL_RCC_GetAPB2Prescaler+0x18>)
 800354e:	689b      	ldr	r3, [r3, #8]
 8003550:	f403 5360 	and.w	r3, r3, #14336	; 0x3800
 8003554:	4618      	mov	r0, r3
 8003556:	46bd      	mov	sp, r7
 8003558:	f85d 7b04 	ldr.w	r7, [sp], #4
 800355c:	4770      	bx	lr
 800355e:	bf00      	nop
 8003560:	40021000 	.word	0x40021000

08003564 <LL_RCC_GetUSARTClockSource>:
 8003564:	b480      	push	{r7}
 8003566:	b083      	sub	sp, #12
 8003568:	af00      	add	r7, sp, #0
 800356a:	6078      	str	r0, [r7, #4]
 800356c:	4b06      	ldr	r3, [pc, #24]	; (8003588 <LL_RCC_GetUSARTClockSource+0x24>)
 800356e:	f8d3 2088 	ldr.w	r2, [r3, #136]	; 0x88
 8003572:	687b      	ldr	r3, [r7, #4]
 8003574:	401a      	ands	r2, r3
 8003576:	687b      	ldr	r3, [r7, #4]
 8003578:	041b      	lsls	r3, r3, #16
 800357a:	4313      	orrs	r3, r2
 800357c:	4618      	mov	r0, r3
 800357e:	370c      	adds	r7, #12
 8003580:	46bd      	mov	sp, r7
 8003582:	f85d 7b04 	ldr.w	r7, [sp], #4
 8003586:	4770      	bx	lr
 8003588:	40021000 	.word	0x40021000

0800358c <LL_RCC_GetUARTClockSource>:
 800358c:	b480      	push	{r7}
 800358e:	b083      	sub	sp, #12
 8003590:	af00      	add	r7, sp, #0
 8003592:	6078      	str	r0, [r7, #4]
 8003594:	4b06      	ldr	r3, [pc, #24]	; (80035b0 <LL_RCC_GetUARTClockSource+0x24>)
 8003596:	f8d3 2088 	ldr.w	r2, [r3, #136]	; 0x88
 800359a:	687b      	ldr	r3, [r7, #4]
 800359c:	401a      	ands	r2, r3
 800359e:	687b      	ldr	r3, [r7, #4]
 80035a0:	041b      	lsls	r3, r3, #16
 80035a2:	4313      	orrs	r3, r2
 80035a4:	4618      	mov	r0, r3
 80035a6:	370c      	adds	r7, #12
 80035a8:	46bd      	mov	sp, r7
 80035aa:	f85d 7b04 	ldr.w	r7, [sp], #4
 80035ae:	4770      	bx	lr
 80035b0:	40021000 	.word	0x40021000

080035b4 <LL_RCC_PLL_GetMainSource>:
 80035b4:	b480      	push	{r7}
 80035b6:	af00      	add	r7, sp, #0
 80035b8:	4b04      	ldr	r3, [pc, #16]	; (80035cc <LL_RCC_PLL_GetMainSource+0x18>)
 80035ba:	68db      	ldr	r3, [r3, #12]
 80035bc:	f003 0303 	and.w	r3, r3, #3
 80035c0:	4618      	mov	r0, r3
 80035c2:	46bd      	mov	sp, r7
 80035c4:	f85d 7b04 	ldr.w	r7, [sp], #4
 80035c8:	4770      	bx	lr
 80035ca:	bf00      	nop
 80035cc:	40021000 	.word	0x40021000

080035d0 <LL_RCC_PLL_GetN>:
 80035d0:	b480      	push	{r7}
 80035d2:	af00      	add	r7, sp, #0
 80035d4:	4b04      	ldr	r3, [pc, #16]	; (80035e8 <LL_RCC_PLL_GetN+0x18>)
 80035d6:	68db      	ldr	r3, [r3, #12]
 80035d8:	0a1b      	lsrs	r3, r3, #8
 80035da:	f003 037f 	and.w	r3, r3, #127	; 0x7f
 80035de:	4618      	mov	r0, r3
 80035e0:	46bd      	mov	sp, r7
 80035e2:	f85d 7b04 	ldr.w	r7, [sp], #4
 80035e6:	4770      	bx	lr
 80035e8:	40021000 	.word	0x40021000

080035ec <LL_RCC_PLL_GetR>:
 80035ec:	b480      	push	{r7}
 80035ee:	af00      	add	r7, sp, #0
 80035f0:	4b04      	ldr	r3, [pc, #16]	; (8003604 <LL_RCC_PLL_GetR+0x18>)
 80035f2:	68db      	ldr	r3, [r3, #12]
 80035f4:	f003 63c0 	and.w	r3, r3, #100663296	; 0x6000000
 80035f8:	4618      	mov	r0, r3
 80035fa:	46bd      	mov	sp, r7
 80035fc:	f85d 7b04 	ldr.w	r7, [sp], #4
 8003600:	4770      	bx	lr
 8003602:	bf00      	nop
 8003604:	40021000 	.word	0x40021000

08003608 <LL_RCC_PLL_GetDivider>:
 8003608:	b480      	push	{r7}
 800360a:	af00      	add	r7, sp, #0
 800360c:	4b04      	ldr	r3, [pc, #16]	; (8003620 <LL_RCC_PLL_GetDivider+0x18>)
 800360e:	68db      	ldr	r3, [r3, #12]
 8003610:	f003 0370 	and.w	r3, r3, #112	; 0x70
 8003614:	4618      	mov	r0, r3
 8003616:	46bd      	mov	sp, r7
 8003618:	f85d 7b04 	ldr.w	r7, [sp], #4
 800361c:	4770      	bx	lr
 800361e:	bf00      	nop
 8003620:	40021000 	.word	0x40021000

08003624 <LL_RCC_GetUSARTClockFreq>:
 8003624:	b580      	push	{r7, lr}
 8003626:	b084      	sub	sp, #16
 8003628:	af00      	add	r7, sp, #0
 800362a:	6078      	str	r0, [r7, #4]
 800362c:	2300      	movs	r3, #0
 800362e:	60fb      	str	r3, [r7, #12]
 8003630:	687b      	ldr	r3, [r7, #4]
 8003632:	2b03      	cmp	r3, #3
 8003634:	d137      	bne.n	80036a6 <LL_RCC_GetUSARTClockFreq+0x82>
 8003636:	6878      	ldr	r0, [r7, #4]
 8003638:	f7ff ff94 	bl	8003564 <LL_RCC_GetUSARTClockSource>
 800363c:	4603      	mov	r3, r0
 800363e:	f5a3 3340 	sub.w	r3, r3, #196608	; 0x30000
 8003642:	2b03      	cmp	r3, #3
 8003644:	f200 80b3 	bhi.w	80037ae <LL_RCC_GetUSARTClockFreq+0x18a>
 8003648:	a201      	add	r2, pc, #4	; (adr r2, 8003650 <LL_RCC_GetUSARTClockFreq+0x2c>)
 800364a:	f852 f023 	ldr.w	pc, [r2, r3, lsl #2]
 800364e:	bf00      	nop
 8003650:	0800368f 	.word	0x0800368f
 8003654:	08003661 	.word	0x08003661
 8003658:	08003669 	.word	0x08003669
 800365c:	0800367b 	.word	0x0800367b
 8003660:	f000 f956 	bl	8003910 <RCC_GetSystemClockFreq>
 8003664:	60f8      	str	r0, [r7, #12]
 8003666:	e0b3      	b.n	80037d0 <LL_RCC_GetUSARTClockFreq+0x1ac>
 8003668:	f7ff feee 	bl	8003448 <LL_RCC_HSI_IsReady>
 800366c:	4603      	mov	r3, r0
 800366e:	2b00      	cmp	r3, #0
 8003670:	f000 809f 	beq.w	80037b2 <LL_RCC_GetUSARTClockFreq+0x18e>
 8003674:	4b59      	ldr	r3, [pc, #356]	; (80037dc <LL_RCC_GetUSARTClockFreq+0x1b8>)
 8003676:	60fb      	str	r3, [r7, #12]
 8003678:	e09b      	b.n	80037b2 <LL_RCC_GetUSARTClockFreq+0x18e>
 800367a:	f7ff fef9 	bl	8003470 <LL_RCC_LSE_IsReady>
 800367e:	4603      	mov	r3, r0
 8003680:	2b00      	cmp	r3, #0
 8003682:	f000 8098 	beq.w	80037b6 <LL_RCC_GetUSARTClockFreq+0x192>
 8003686:	f44f 4300 	mov.w	r3, #32768	; 0x8000
 800368a:	60fb      	str	r3, [r7, #12]
 800368c:	e093      	b.n	80037b6 <LL_RCC_GetUSARTClockFreq+0x192>
 800368e:	f000 f93f 	bl	8003910 <RCC_GetSystemClockFreq>
 8003692:	4603      	mov	r3, r0
 8003694:	4618      	mov	r0, r3
 8003696:	f000 f9cb 	bl	8003a30 <RCC_GetHCLKClockFreq>
 800369a:	4603      	mov	r3, r0
 800369c:	4618      	mov	r0, r3
 800369e:	f000 f9f1 	bl	8003a84 <RCC_GetPCLK2ClockFreq>
 80036a2:	60f8      	str	r0, [r7, #12]
 80036a4:	e094      	b.n	80037d0 <LL_RCC_GetUSARTClockFreq+0x1ac>
 80036a6:	687b      	ldr	r3, [r7, #4]
 80036a8:	2b0c      	cmp	r3, #12
 80036aa:	d146      	bne.n	800373a <LL_RCC_GetUSARTClockFreq+0x116>
 80036ac:	6878      	ldr	r0, [r7, #4]
 80036ae:	f7ff ff59 	bl	8003564 <LL_RCC_GetUSARTClockSource>
 80036b2:	4603      	mov	r3, r0
 80036b4:	f5a3 2340 	sub.w	r3, r3, #786432	; 0xc0000
 80036b8:	2b0c      	cmp	r3, #12
 80036ba:	d87e      	bhi.n	80037ba <LL_RCC_GetUSARTClockFreq+0x196>
 80036bc:	a201      	add	r2, pc, #4	; (adr r2, 80036c4 <LL_RCC_GetUSARTClockFreq+0xa0>)
 80036be:	f852 f023 	ldr.w	pc, [r2, r3, lsl #2]
 80036c2:	bf00      	nop
 80036c4:	08003723 	.word	0x08003723
 80036c8:	080037bb 	.word	0x080037bb
 80036cc:	080037bb 	.word	0x080037bb
 80036d0:	080037bb 	.word	0x080037bb
 80036d4:	080036f9 	.word	0x080036f9
 80036d8:	080037bb 	.word	0x080037bb
 80036dc:	080037bb 	.word	0x080037bb
 80036e0:	080037bb 	.word	0x080037bb
 80036e4:	08003701 	.word	0x08003701
 80036e8:	080037bb 	.word	0x080037bb
 80036ec:	080037bb 	.word	0x080037bb
 80036f0:	080037bb 	.word	0x080037bb
 80036f4:	08003711 	.word	0x08003711
 80036f8:	f000 f90a 	bl	8003910 <RCC_GetSystemClockFreq>
 80036fc:	60f8      	str	r0, [r7, #12]
 80036fe:	e067      	b.n	80037d0 <LL_RCC_GetUSARTClockFreq+0x1ac>
 8003700:	f7ff fea2 	bl	8003448 <LL_RCC_HSI_IsReady>
 8003704:	4603      	mov	r3, r0
 8003706:	2b00      	cmp	r3, #0
 8003708:	d059      	beq.n	80037be <LL_RCC_GetUSARTClockFreq+0x19a>
 800370a:	4b34      	ldr	r3, [pc, #208]	; (80037dc <LL_RCC_GetUSARTClockFreq+0x1b8>)
 800370c:	60fb      	str	r3, [r7, #12]
 800370e:	e056      	b.n	80037be <LL_RCC_GetUSARTClockFreq+0x19a>
 8003710:	f7ff feae 	bl	8003470 <LL_RCC_LSE_IsReady>
 8003714:	4603      	mov	r3, r0
 8003716:	2b00      	cmp	r3, #0
 8003718:	d053      	beq.n	80037c2 <LL_RCC_GetUSARTClockFreq+0x19e>
 800371a:	f44f 4300 	mov.w	r3, #32768	; 0x8000
 800371e:	60fb      	str	r3, [r7, #12]
 8003720:	e04f      	b.n	80037c2 <LL_RCC_GetUSARTClockFreq+0x19e>
 8003722:	f000 f8f5 	bl	8003910 <RCC_GetSystemClockFreq>
 8003726:	4603      	mov	r3, r0
 8003728:	4618      	mov	r0, r3
 800372a:	f000 f981 	bl	8003a30 <RCC_GetHCLKClockFreq>
 800372e:	4603      	mov	r3, r0
 8003730:	4618      	mov	r0, r3
 8003732:	f000 f993 	bl	8003a5c <RCC_GetPCLK1ClockFreq>
 8003736:	60f8      	str	r0, [r7, #12]
 8003738:	e04a      	b.n	80037d0 <LL_RCC_GetUSARTClockFreq+0x1ac>
 800373a:	687b      	ldr	r3, [r7, #4]
 800373c:	2b30      	cmp	r3, #48	; 0x30
 800373e:	d147      	bne.n	80037d0 <LL_RCC_GetUSARTClockFreq+0x1ac>
 8003740:	6878      	ldr	r0, [r7, #4]
 8003742:	f7ff ff0f 	bl	8003564 <LL_RCC_GetUSARTClockSource>
 8003746:	4603      	mov	r3, r0
 8003748:	f1b3 1f30 	cmp.w	r3, #3145776	; 0x300030
 800374c:	d01a      	beq.n	8003784 <LL_RCC_GetUSARTClockFreq+0x160>
 800374e:	f1b3 1f30 	cmp.w	r3, #3145776	; 0x300030
 8003752:	d838      	bhi.n	80037c6 <LL_RCC_GetUSARTClockFreq+0x1a2>
 8003754:	4a22      	ldr	r2, [pc, #136]	; (80037e0 <LL_RCC_GetUSARTClockFreq+0x1bc>)
 8003756:	4293      	cmp	r3, r2
 8003758:	d00c      	beq.n	8003774 <LL_RCC_GetUSARTClockFreq+0x150>
 800375a:	4a21      	ldr	r2, [pc, #132]	; (80037e0 <LL_RCC_GetUSARTClockFreq+0x1bc>)
 800375c:	4293      	cmp	r3, r2
 800375e:	d832      	bhi.n	80037c6 <LL_RCC_GetUSARTClockFreq+0x1a2>
 8003760:	f5b3 1f40 	cmp.w	r3, #3145728	; 0x300000
 8003764:	d017      	beq.n	8003796 <LL_RCC_GetUSARTClockFreq+0x172>
 8003766:	4a1f      	ldr	r2, [pc, #124]	; (80037e4 <LL_RCC_GetUSARTClockFreq+0x1c0>)
 8003768:	4293      	cmp	r3, r2
 800376a:	d12c      	bne.n	80037c6 <LL_RCC_GetUSARTClockFreq+0x1a2>
 800376c:	f000 f8d0 	bl	8003910 <RCC_GetSystemClockFreq>
 8003770:	60f8      	str	r0, [r7, #12]
 8003772:	e02d      	b.n	80037d0 <LL_RCC_GetUSARTClockFreq+0x1ac>
 8003774:	f7ff fe68 	bl	8003448 <LL_RCC_HSI_IsReady>
 8003778:	4603      	mov	r3, r0
 800377a:	2b00      	cmp	r3, #0
 800377c:	d025      	beq.n	80037ca <LL_RCC_GetUSARTClockFreq+0x1a6>
 800377e:	4b17      	ldr	r3, [pc, #92]	; (80037dc <LL_RCC_GetUSARTClockFreq+0x1b8>)
 8003780:	60fb      	str	r3, [r7, #12]
 8003782:	e022      	b.n	80037ca <LL_RCC_GetUSARTClockFreq+0x1a6>
 8003784:	f7ff fe74 	bl	8003470 <LL_RCC_LSE_IsReady>
 8003788:	4603      	mov	r3, r0
 800378a:	2b00      	cmp	r3, #0
 800378c:	d01f      	beq.n	80037ce <LL_RCC_GetUSARTClockFreq+0x1aa>
 800378e:	f44f 4300 	mov.w	r3, #32768	; 0x8000
 8003792:	60fb      	str	r3, [r7, #12]
 8003794:	e01b      	b.n	80037ce <LL_RCC_GetUSARTClockFreq+0x1aa>
 8003796:	f000 f8bb 	bl	8003910 <RCC_GetSystemClockFreq>
 800379a:	4603      	mov	r3, r0
 800379c:	4618      	mov	r0, r3
 800379e:	f000 f947 	bl	8003a30 <RCC_GetHCLKClockFreq>
 80037a2:	4603      	mov	r3, r0
 80037a4:	4618      	mov	r0, r3
 80037a6:	f000 f959 	bl	8003a5c <RCC_GetPCLK1ClockFreq>
 80037aa:	60f8      	str	r0, [r7, #12]
 80037ac:	e010      	b.n	80037d0 <LL_RCC_GetUSARTClockFreq+0x1ac>
 80037ae:	bf00      	nop
 80037b0:	e00e      	b.n	80037d0 <LL_RCC_GetUSARTClockFreq+0x1ac>
 80037b2:	bf00      	nop
 80037b4:	e00c      	b.n	80037d0 <LL_RCC_GetUSARTClockFreq+0x1ac>
 80037b6:	bf00      	nop
 80037b8:	e00a      	b.n	80037d0 <LL_RCC_GetUSARTClockFreq+0x1ac>
 80037ba:	bf00      	nop
 80037bc:	e008      	b.n	80037d0 <LL_RCC_GetUSARTClockFreq+0x1ac>
 80037be:	bf00      	nop
 80037c0:	e006      	b.n	80037d0 <LL_RCC_GetUSARTClockFreq+0x1ac>
 80037c2:	bf00      	nop
 80037c4:	e004      	b.n	80037d0 <LL_RCC_GetUSARTClockFreq+0x1ac>
 80037c6:	bf00      	nop
 80037c8:	e002      	b.n	80037d0 <LL_RCC_GetUSARTClockFreq+0x1ac>
 80037ca:	bf00      	nop
 80037cc:	e000      	b.n	80037d0 <LL_RCC_GetUSARTClockFreq+0x1ac>
 80037ce:	bf00      	nop
 80037d0:	68fb      	ldr	r3, [r7, #12]
 80037d2:	4618      	mov	r0, r3
 80037d4:	3710      	adds	r7, #16
 80037d6:	46bd      	mov	sp, r7
 80037d8:	bd80      	pop	{r7, pc}
 80037da:	bf00      	nop
 80037dc:	00f42400 	.word	0x00f42400
 80037e0:	00300020 	.word	0x00300020
 80037e4:	00300010 	.word	0x00300010

080037e8 <LL_RCC_GetUARTClockFreq>:
 80037e8:	b580      	push	{r7, lr}
 80037ea:	b084      	sub	sp, #16
 80037ec:	af00      	add	r7, sp, #0
 80037ee:	6078      	str	r0, [r7, #4]
 80037f0:	2300      	movs	r3, #0
 80037f2:	60fb      	str	r3, [r7, #12]
 80037f4:	687b      	ldr	r3, [r7, #4]
 80037f6:	2bc0      	cmp	r3, #192	; 0xc0
 80037f8:	d13b      	bne.n	8003872 <LL_RCC_GetUARTClockFreq+0x8a>
 80037fa:	6878      	ldr	r0, [r7, #4]
 80037fc:	f7ff fec6 	bl	800358c <LL_RCC_GetUARTClockSource>
 8003800:	4603      	mov	r3, r0
 8003802:	f1b3 1fc0 	cmp.w	r3, #12583104	; 0xc000c0
 8003806:	d01a      	beq.n	800383e <LL_RCC_GetUARTClockFreq+0x56>
 8003808:	f1b3 1fc0 	cmp.w	r3, #12583104	; 0xc000c0
 800380c:	d82c      	bhi.n	8003868 <LL_RCC_GetUARTClockFreq+0x80>
 800380e:	4a3b      	ldr	r2, [pc, #236]	; (80038fc <LL_RCC_GetUARTClockFreq+0x114>)
 8003810:	4293      	cmp	r3, r2
 8003812:	d00c      	beq.n	800382e <LL_RCC_GetUARTClockFreq+0x46>
 8003814:	4a39      	ldr	r2, [pc, #228]	; (80038fc <LL_RCC_GetUARTClockFreq+0x114>)
 8003816:	4293      	cmp	r3, r2
 8003818:	d826      	bhi.n	8003868 <LL_RCC_GetUARTClockFreq+0x80>
 800381a:	f5b3 0f40 	cmp.w	r3, #12582912	; 0xc00000
 800381e:	d017      	beq.n	8003850 <LL_RCC_GetUARTClockFreq+0x68>
 8003820:	4a37      	ldr	r2, [pc, #220]	; (8003900 <LL_RCC_GetUARTClockFreq+0x118>)
 8003822:	4293      	cmp	r3, r2
 8003824:	d120      	bne.n	8003868 <LL_RCC_GetUARTClockFreq+0x80>
 8003826:	f000 f873 	bl	8003910 <RCC_GetSystemClockFreq>
 800382a:	60f8      	str	r0, [r7, #12]
 800382c:	e021      	b.n	8003872 <LL_RCC_GetUARTClockFreq+0x8a>
 800382e:	f7ff fe0b 	bl	8003448 <LL_RCC_HSI_IsReady>
 8003832:	4603      	mov	r3, r0
 8003834:	2b00      	cmp	r3, #0
 8003836:	d019      	beq.n	800386c <LL_RCC_GetUARTClockFreq+0x84>
 8003838:	4b32      	ldr	r3, [pc, #200]	; (8003904 <LL_RCC_GetUARTClockFreq+0x11c>)
 800383a:	60fb      	str	r3, [r7, #12]
 800383c:	e016      	b.n	800386c <LL_RCC_GetUARTClockFreq+0x84>
 800383e:	f7ff fe17 	bl	8003470 <LL_RCC_LSE_IsReady>
 8003842:	4603      	mov	r3, r0
 8003844:	2b00      	cmp	r3, #0
 8003846:	d013      	beq.n	8003870 <LL_RCC_GetUARTClockFreq+0x88>
 8003848:	f44f 4300 	mov.w	r3, #32768	; 0x8000
 800384c:	60fb      	str	r3, [r7, #12]
 800384e:	e00f      	b.n	8003870 <LL_RCC_GetUARTClockFreq+0x88>
 8003850:	f000 f85e 	bl	8003910 <RCC_GetSystemClockFreq>
 8003854:	4603      	mov	r3, r0
 8003856:	4618      	mov	r0, r3
 8003858:	f000 f8ea 	bl	8003a30 <RCC_GetHCLKClockFreq>
 800385c:	4603      	mov	r3, r0
 800385e:	4618      	mov	r0, r3
 8003860:	f000 f8fc 	bl	8003a5c <RCC_GetPCLK1ClockFreq>
 8003864:	60f8      	str	r0, [r7, #12]
 8003866:	e004      	b.n	8003872 <LL_RCC_GetUARTClockFreq+0x8a>
 8003868:	bf00      	nop
 800386a:	e002      	b.n	8003872 <LL_RCC_GetUARTClockFreq+0x8a>
 800386c:	bf00      	nop
 800386e:	e000      	b.n	8003872 <LL_RCC_GetUARTClockFreq+0x8a>
 8003870:	bf00      	nop
 8003872:	687b      	ldr	r3, [r7, #4]
 8003874:	f5b3 7f40 	cmp.w	r3, #768	; 0x300
 8003878:	d13b      	bne.n	80038f2 <LL_RCC_GetUARTClockFreq+0x10a>
 800387a:	6878      	ldr	r0, [r7, #4]
 800387c:	f7ff fe86 	bl	800358c <LL_RCC_GetUARTClockSource>
 8003880:	4603      	mov	r3, r0
 8003882:	f1b3 2f03 	cmp.w	r3, #50332416	; 0x3000300
 8003886:	d01a      	beq.n	80038be <LL_RCC_GetUARTClockFreq+0xd6>
 8003888:	f1b3 2f03 	cmp.w	r3, #50332416	; 0x3000300
 800388c:	d82c      	bhi.n	80038e8 <LL_RCC_GetUARTClockFreq+0x100>
 800388e:	4a1e      	ldr	r2, [pc, #120]	; (8003908 <LL_RCC_GetUARTClockFreq+0x120>)
 8003890:	4293      	cmp	r3, r2
 8003892:	d00c      	beq.n	80038ae <LL_RCC_GetUARTClockFreq+0xc6>
 8003894:	4a1c      	ldr	r2, [pc, #112]	; (8003908 <LL_RCC_GetUARTClockFreq+0x120>)
 8003896:	4293      	cmp	r3, r2
 8003898:	d826      	bhi.n	80038e8 <LL_RCC_GetUARTClockFreq+0x100>
 800389a:	f1b3 7f40 	cmp.w	r3, #50331648	; 0x3000000
 800389e:	d017      	beq.n	80038d0 <LL_RCC_GetUARTClockFreq+0xe8>
 80038a0:	4a1a      	ldr	r2, [pc, #104]	; (800390c <LL_RCC_GetUARTClockFreq+0x124>)
 80038a2:	4293      	cmp	r3, r2
 80038a4:	d120      	bne.n	80038e8 <LL_RCC_GetUARTClockFreq+0x100>
 80038a6:	f000 f833 	bl	8003910 <RCC_GetSystemClockFreq>
 80038aa:	60f8      	str	r0, [r7, #12]
 80038ac:	e021      	b.n	80038f2 <LL_RCC_GetUARTClockFreq+0x10a>
 80038ae:	f7ff fdcb 	bl	8003448 <LL_RCC_HSI_IsReady>
 80038b2:	4603      	mov	r3, r0
 80038b4:	2b00      	cmp	r3, #0
 80038b6:	d019      	beq.n	80038ec <LL_RCC_GetUARTClockFreq+0x104>
 80038b8:	4b12      	ldr	r3, [pc, #72]	; (8003904 <LL_RCC_GetUARTClockFreq+0x11c>)
 80038ba:	60fb      	str	r3, [r7, #12]
 80038bc:	e016      	b.n	80038ec <LL_RCC_GetUARTClockFreq+0x104>
 80038be:	f7ff fdd7 	bl	8003470 <LL_RCC_LSE_IsReady>
 80038c2:	4603      	mov	r3, r0
 80038c4:	2b00      	cmp	r3, #0
 80038c6:	d013      	beq.n	80038f0 <LL_RCC_GetUARTClockFreq+0x108>
 80038c8:	f44f 4300 	mov.w	r3, #32768	; 0x8000
 80038cc:	60fb      	str	r3, [r7, #12]
 80038ce:	e00f      	b.n	80038f0 <LL_RCC_GetUARTClockFreq+0x108>
 80038d0:	f000 f81e 	bl	8003910 <RCC_GetSystemClockFreq>
 80038d4:	4603      	mov	r3, r0
 80038d6:	4618      	mov	r0, r3
 80038d8:	f000 f8aa 	bl	8003a30 <RCC_GetHCLKClockFreq>
 80038dc:	4603      	mov	r3, r0
 80038de:	4618      	mov	r0, r3
 80038e0:	f000 f8bc 	bl	8003a5c <RCC_GetPCLK1ClockFreq>
 80038e4:	60f8      	str	r0, [r7, #12]
 80038e6:	e004      	b.n	80038f2 <LL_RCC_GetUARTClockFreq+0x10a>
 80038e8:	bf00      	nop
 80038ea:	e002      	b.n	80038f2 <LL_RCC_GetUARTClockFreq+0x10a>
 80038ec:	bf00      	nop
 80038ee:	e000      	b.n	80038f2 <LL_RCC_GetUARTClockFreq+0x10a>
 80038f0:	bf00      	nop
 80038f2:	68fb      	ldr	r3, [r7, #12]
 80038f4:	4618      	mov	r0, r3
 80038f6:	3710      	adds	r7, #16
 80038f8:	46bd      	mov	sp, r7
 80038fa:	bd80      	pop	{r7, pc}
 80038fc:	00c00080 	.word	0x00c00080
 8003900:	00c00040 	.word	0x00c00040
 8003904:	00f42400 	.word	0x00f42400
 8003908:	03000200 	.word	0x03000200
 800390c:	03000100 	.word	0x03000100

08003910 <RCC_GetSystemClockFreq>:
 8003910:	b580      	push	{r7, lr}
 8003912:	b082      	sub	sp, #8
 8003914:	af00      	add	r7, sp, #0
 8003916:	f7ff fded 	bl	80034f4 <LL_RCC_GetSysClkSource>
 800391a:	4603      	mov	r3, r0
 800391c:	2b0c      	cmp	r3, #12
 800391e:	d851      	bhi.n	80039c4 <RCC_GetSystemClockFreq+0xb4>
 8003920:	a201      	add	r2, pc, #4	; (adr r2, 8003928 <RCC_GetSystemClockFreq+0x18>)
 8003922:	f852 f023 	ldr.w	pc, [r2, r3, lsl #2]
 8003926:	bf00      	nop
 8003928:	0800395d 	.word	0x0800395d
 800392c:	080039c5 	.word	0x080039c5
 8003930:	080039c5 	.word	0x080039c5
 8003934:	080039c5 	.word	0x080039c5
 8003938:	080039b1 	.word	0x080039b1
 800393c:	080039c5 	.word	0x080039c5
 8003940:	080039c5 	.word	0x080039c5
 8003944:	080039c5 	.word	0x080039c5
 8003948:	080039b7 	.word	0x080039b7
 800394c:	080039c5 	.word	0x080039c5
 8003950:	080039c5 	.word	0x080039c5
 8003954:	080039c5 	.word	0x080039c5
 8003958:	080039bd 	.word	0x080039bd
 800395c:	f7ff fd9c 	bl	8003498 <LL_RCC_MSI_IsEnabledRangeSelect>
 8003960:	4603      	mov	r3, r0
 8003962:	2b00      	cmp	r3, #0
 8003964:	d111      	bne.n	800398a <RCC_GetSystemClockFreq+0x7a>
 8003966:	f7ff fd97 	bl	8003498 <LL_RCC_MSI_IsEnabledRangeSelect>
 800396a:	4603      	mov	r3, r0
 800396c:	2b00      	cmp	r3, #0
 800396e:	d004      	beq.n	800397a <RCC_GetSystemClockFreq+0x6a>
 8003970:	f7ff fda4 	bl	80034bc <LL_RCC_MSI_GetRange>
 8003974:	4603      	mov	r3, r0
 8003976:	0a1b      	lsrs	r3, r3, #8
 8003978:	e003      	b.n	8003982 <RCC_GetSystemClockFreq+0x72>
 800397a:	f7ff fdad 	bl	80034d8 <LL_RCC_MSI_GetRangeAfterStandby>
 800397e:	4603      	mov	r3, r0
 8003980:	0a1b      	lsrs	r3, r3, #8
 8003982:	4a28      	ldr	r2, [pc, #160]	; (8003a24 <RCC_GetSystemClockFreq+0x114>)
 8003984:	f852 3023 	ldr.w	r3, [r2, r3, lsl #2]
 8003988:	e010      	b.n	80039ac <RCC_GetSystemClockFreq+0x9c>
 800398a:	f7ff fd85 	bl	8003498 <LL_RCC_MSI_IsEnabledRangeSelect>
 800398e:	4603      	mov	r3, r0
 8003990:	2b00      	cmp	r3, #0
 8003992:	d004      	beq.n	800399e <RCC_GetSystemClockFreq+0x8e>
 8003994:	f7ff fd92 	bl	80034bc <LL_RCC_MSI_GetRange>
 8003998:	4603      	mov	r3, r0
 800399a:	091b      	lsrs	r3, r3, #4
 800399c:	e003      	b.n	80039a6 <RCC_GetSystemClockFreq+0x96>
 800399e:	f7ff fd9b 	bl	80034d8 <LL_RCC_MSI_GetRangeAfterStandby>
 80039a2:	4603      	mov	r3, r0
 80039a4:	091b      	lsrs	r3, r3, #4
 80039a6:	4a1f      	ldr	r2, [pc, #124]	; (8003a24 <RCC_GetSystemClockFreq+0x114>)
 80039a8:	f852 3023 	ldr.w	r3, [r2, r3, lsl #2]
 80039ac:	607b      	str	r3, [r7, #4]
 80039ae:	e033      	b.n	8003a18 <RCC_GetSystemClockFreq+0x108>
 80039b0:	4b1d      	ldr	r3, [pc, #116]	; (8003a28 <RCC_GetSystemClockFreq+0x118>)
 80039b2:	607b      	str	r3, [r7, #4]
 80039b4:	e030      	b.n	8003a18 <RCC_GetSystemClockFreq+0x108>
 80039b6:	4b1d      	ldr	r3, [pc, #116]	; (8003a2c <RCC_GetSystemClockFreq+0x11c>)
 80039b8:	607b      	str	r3, [r7, #4]
 80039ba:	e02d      	b.n	8003a18 <RCC_GetSystemClockFreq+0x108>
 80039bc:	f000 f876 	bl	8003aac <RCC_PLL_GetFreqDomain_SYS>
 80039c0:	6078      	str	r0, [r7, #4]
 80039c2:	e029      	b.n	8003a18 <RCC_GetSystemClockFreq+0x108>
 80039c4:	f7ff fd68 	bl	8003498 <LL_RCC_MSI_IsEnabledRangeSelect>
 80039c8:	4603      	mov	r3, r0
 80039ca:	2b00      	cmp	r3, #0
 80039cc:	d111      	bne.n	80039f2 <RCC_GetSystemClockFreq+0xe2>
 80039ce:	f7ff fd63 	bl	8003498 <LL_RCC_MSI_IsEnabledRangeSelect>
 80039d2:	4603      	mov	r3, r0
 80039d4:	2b00      	cmp	r3, #0
 80039d6:	d004      	beq.n	80039e2 <RCC_GetSystemClockFreq+0xd2>
 80039d8:	f7ff fd70 	bl	80034bc <LL_RCC_MSI_GetRange>
 80039dc:	4603      	mov	r3, r0
 80039de:	0a1b      	lsrs	r3, r3, #8
 80039e0:	e003      	b.n	80039ea <RCC_GetSystemClockFreq+0xda>
 80039e2:	f7ff fd79 	bl	80034d8 <LL_RCC_MSI_GetRangeAfterStandby>
 80039e6:	4603      	mov	r3, r0
 80039e8:	0a1b      	lsrs	r3, r3, #8
 80039ea:	4a0e      	ldr	r2, [pc, #56]	; (8003a24 <RCC_GetSystemClockFreq+0x114>)
 80039ec:	f852 3023 	ldr.w	r3, [r2, r3, lsl #2]
 80039f0:	e010      	b.n	8003a14 <RCC_GetSystemClockFreq+0x104>
 80039f2:	f7ff fd51 	bl	8003498 <LL_RCC_MSI_IsEnabledRangeSelect>
 80039f6:	4603      	mov	r3, r0
 80039f8:	2b00      	cmp	r3, #0
 80039fa:	d004      	beq.n	8003a06 <RCC_GetSystemClockFreq+0xf6>
 80039fc:	f7ff fd5e 	bl	80034bc <LL_RCC_MSI_GetRange>
 8003a00:	4603      	mov	r3, r0
 8003a02:	091b      	lsrs	r3, r3, #4
 8003a04:	e003      	b.n	8003a0e <RCC_GetSystemClockFreq+0xfe>
 8003a06:	f7ff fd67 	bl	80034d8 <LL_RCC_MSI_GetRangeAfterStandby>
 8003a0a:	4603      	mov	r3, r0
 8003a0c:	091b      	lsrs	r3, r3, #4
 8003a0e:	4a05      	ldr	r2, [pc, #20]	; (8003a24 <RCC_GetSystemClockFreq+0x114>)
 8003a10:	f852 3023 	ldr.w	r3, [r2, r3, lsl #2]
 8003a14:	607b      	str	r3, [r7, #4]
 8003a16:	bf00      	nop
 8003a18:	687b      	ldr	r3, [r7, #4]
 8003a1a:	4618      	mov	r0, r3
 8003a1c:	3708      	adds	r7, #8
 8003a1e:	46bd      	mov	sp, r7
 8003a20:	bd80      	pop	{r7, pc}
 8003a22:	bf00      	nop
 8003a24:	080066a0 	.word	0x080066a0
 8003a28:	00f42400 	.word	0x00f42400
 8003a2c:	007a1200 	.word	0x007a1200

08003a30 <RCC_GetHCLKClockFreq>:
 8003a30:	b580      	push	{r7, lr}
 8003a32:	b082      	sub	sp, #8
 8003a34:	af00      	add	r7, sp, #0
 8003a36:	6078      	str	r0, [r7, #4]
 8003a38:	f7ff fd6a 	bl	8003510 <LL_RCC_GetAHBPrescaler>
 8003a3c:	4603      	mov	r3, r0
 8003a3e:	091b      	lsrs	r3, r3, #4
 8003a40:	f003 030f 	and.w	r3, r3, #15
 8003a44:	4a04      	ldr	r2, [pc, #16]	; (8003a58 <RCC_GetHCLKClockFreq+0x28>)
 8003a46:	5cd3      	ldrb	r3, [r2, r3]
 8003a48:	461a      	mov	r2, r3
 8003a4a:	687b      	ldr	r3, [r7, #4]
 8003a4c:	40d3      	lsrs	r3, r2
 8003a4e:	4618      	mov	r0, r3
 8003a50:	3708      	adds	r7, #8
 8003a52:	46bd      	mov	sp, r7
 8003a54:	bd80      	pop	{r7, pc}
 8003a56:	bf00      	nop
 8003a58:	08006688 	.word	0x08006688

08003a5c <RCC_GetPCLK1ClockFreq>:
 8003a5c:	b580      	push	{r7, lr}
 8003a5e:	b082      	sub	sp, #8
 8003a60:	af00      	add	r7, sp, #0
 8003a62:	6078      	str	r0, [r7, #4]
 8003a64:	f7ff fd62 	bl	800352c <LL_RCC_GetAPB1Prescaler>
 8003a68:	4603      	mov	r3, r0
 8003a6a:	0a1b      	lsrs	r3, r3, #8
 8003a6c:	4a04      	ldr	r2, [pc, #16]	; (8003a80 <RCC_GetPCLK1ClockFreq+0x24>)
 8003a6e:	5cd3      	ldrb	r3, [r2, r3]
 8003a70:	461a      	mov	r2, r3
 8003a72:	687b      	ldr	r3, [r7, #4]
 8003a74:	40d3      	lsrs	r3, r2
 8003a76:	4618      	mov	r0, r3
 8003a78:	3708      	adds	r7, #8
 8003a7a:	46bd      	mov	sp, r7
 8003a7c:	bd80      	pop	{r7, pc}
 8003a7e:	bf00      	nop
 8003a80:	08006698 	.word	0x08006698

08003a84 <RCC_GetPCLK2ClockFreq>:
 8003a84:	b580      	push	{r7, lr}
 8003a86:	b082      	sub	sp, #8
 8003a88:	af00      	add	r7, sp, #0
 8003a8a:	6078      	str	r0, [r7, #4]
 8003a8c:	f7ff fd5c 	bl	8003548 <LL_RCC_GetAPB2Prescaler>
 8003a90:	4603      	mov	r3, r0
 8003a92:	0adb      	lsrs	r3, r3, #11
 8003a94:	4a04      	ldr	r2, [pc, #16]	; (8003aa8 <RCC_GetPCLK2ClockFreq+0x24>)
 8003a96:	5cd3      	ldrb	r3, [r2, r3]
 8003a98:	461a      	mov	r2, r3
 8003a9a:	687b      	ldr	r3, [r7, #4]
 8003a9c:	40d3      	lsrs	r3, r2
 8003a9e:	4618      	mov	r0, r3
 8003aa0:	3708      	adds	r7, #8
 8003aa2:	46bd      	mov	sp, r7
 8003aa4:	bd80      	pop	{r7, pc}
 8003aa6:	bf00      	nop
 8003aa8:	08006698 	.word	0x08006698

08003aac <RCC_PLL_GetFreqDomain_SYS>:
 8003aac:	b590      	push	{r4, r7, lr}
 8003aae:	b083      	sub	sp, #12
 8003ab0:	af00      	add	r7, sp, #0
 8003ab2:	f7ff fd7f 	bl	80035b4 <LL_RCC_PLL_GetMainSource>
 8003ab6:	6038      	str	r0, [r7, #0]
 8003ab8:	683b      	ldr	r3, [r7, #0]
 8003aba:	2b03      	cmp	r3, #3
 8003abc:	d036      	beq.n	8003b2c <RCC_PLL_GetFreqDomain_SYS+0x80>
 8003abe:	683b      	ldr	r3, [r7, #0]
 8003ac0:	2b03      	cmp	r3, #3
 8003ac2:	d836      	bhi.n	8003b32 <RCC_PLL_GetFreqDomain_SYS+0x86>
 8003ac4:	683b      	ldr	r3, [r7, #0]
 8003ac6:	2b01      	cmp	r3, #1
 8003ac8:	d003      	beq.n	8003ad2 <RCC_PLL_GetFreqDomain_SYS+0x26>
 8003aca:	683b      	ldr	r3, [r7, #0]
 8003acc:	2b02      	cmp	r3, #2
 8003ace:	d02a      	beq.n	8003b26 <RCC_PLL_GetFreqDomain_SYS+0x7a>
 8003ad0:	e02f      	b.n	8003b32 <RCC_PLL_GetFreqDomain_SYS+0x86>
 8003ad2:	f7ff fce1 	bl	8003498 <LL_RCC_MSI_IsEnabledRangeSelect>
 8003ad6:	4603      	mov	r3, r0
 8003ad8:	2b00      	cmp	r3, #0
 8003ada:	d111      	bne.n	8003b00 <RCC_PLL_GetFreqDomain_SYS+0x54>
 8003adc:	f7ff fcdc 	bl	8003498 <LL_RCC_MSI_IsEnabledRangeSelect>
 8003ae0:	4603      	mov	r3, r0
 8003ae2:	2b00      	cmp	r3, #0
 8003ae4:	d004      	beq.n	8003af0 <RCC_PLL_GetFreqDomain_SYS+0x44>
 8003ae6:	f7ff fce9 	bl	80034bc <LL_RCC_MSI_GetRange>
 8003aea:	4603      	mov	r3, r0
 8003aec:	0a1b      	lsrs	r3, r3, #8
 8003aee:	e003      	b.n	8003af8 <RCC_PLL_GetFreqDomain_SYS+0x4c>
 8003af0:	f7ff fcf2 	bl	80034d8 <LL_RCC_MSI_GetRangeAfterStandby>
 8003af4:	4603      	mov	r3, r0
 8003af6:	0a1b      	lsrs	r3, r3, #8
 8003af8:	4a2f      	ldr	r2, [pc, #188]	; (8003bb8 <RCC_PLL_GetFreqDomain_SYS+0x10c>)
 8003afa:	f852 3023 	ldr.w	r3, [r2, r3, lsl #2]
 8003afe:	e010      	b.n	8003b22 <RCC_PLL_GetFreqDomain_SYS+0x76>
 8003b00:	f7ff fcca 	bl	8003498 <LL_RCC_MSI_IsEnabledRangeSelect>
 8003b04:	4603      	mov	r3, r0
 8003b06:	2b00      	cmp	r3, #0
 8003b08:	d004      	beq.n	8003b14 <RCC_PLL_GetFreqDomain_SYS+0x68>
 8003b0a:	f7ff fcd7 	bl	80034bc <LL_RCC_MSI_GetRange>
 8003b0e:	4603      	mov	r3, r0
 8003b10:	091b      	lsrs	r3, r3, #4
 8003b12:	e003      	b.n	8003b1c <RCC_PLL_GetFreqDomain_SYS+0x70>
 8003b14:	f7ff fce0 	bl	80034d8 <LL_RCC_MSI_GetRangeAfterStandby>
 8003b18:	4603      	mov	r3, r0
 8003b1a:	091b      	lsrs	r3, r3, #4
 8003b1c:	4a26      	ldr	r2, [pc, #152]	; (8003bb8 <RCC_PLL_GetFreqDomain_SYS+0x10c>)
 8003b1e:	f852 3023 	ldr.w	r3, [r2, r3, lsl #2]
 8003b22:	607b      	str	r3, [r7, #4]
 8003b24:	e02f      	b.n	8003b86 <RCC_PLL_GetFreqDomain_SYS+0xda>
 8003b26:	4b25      	ldr	r3, [pc, #148]	; (8003bbc <RCC_PLL_GetFreqDomain_SYS+0x110>)
 8003b28:	607b      	str	r3, [r7, #4]
 8003b2a:	e02c      	b.n	8003b86 <RCC_PLL_GetFreqDomain_SYS+0xda>
 8003b2c:	4b24      	ldr	r3, [pc, #144]	; (8003bc0 <RCC_PLL_GetFreqDomain_SYS+0x114>)
 8003b2e:	607b      	str	r3, [r7, #4]
 8003b30:	e029      	b.n	8003b86 <RCC_PLL_GetFreqDomain_SYS+0xda>
 8003b32:	f7ff fcb1 	bl	8003498 <LL_RCC_MSI_IsEnabledRangeSelect>
 8003b36:	4603      	mov	r3, r0
 8003b38:	2b00      	cmp	r3, #0
 8003b3a:	d111      	bne.n	8003b60 <RCC_PLL_GetFreqDomain_SYS+0xb4>
 8003b3c:	f7ff fcac 	bl	8003498 <LL_RCC_MSI_IsEnabledRangeSelect>
 8003b40:	4603      	mov	r3, r0
 8003b42:	2b00      	cmp	r3, #0
 8003b44:	d004      	beq.n	8003b50 <RCC_PLL_GetFreqDomain_SYS+0xa4>
 8003b46:	f7ff fcb9 	bl	80034bc <LL_RCC_MSI_GetRange>
 8003b4a:	4603      	mov	r3, r0
 8003b4c:	0a1b      	lsrs	r3, r3, #8
 8003b4e:	e003      	b.n	8003b58 <RCC_PLL_GetFreqDomain_SYS+0xac>
 8003b50:	f7ff fcc2 	bl	80034d8 <LL_RCC_MSI_GetRangeAfterStandby>
 8003b54:	4603      	mov	r3, r0
 8003b56:	0a1b      	lsrs	r3, r3, #8
 8003b58:	4a17      	ldr	r2, [pc, #92]	; (8003bb8 <RCC_PLL_GetFreqDomain_SYS+0x10c>)
 8003b5a:	f852 3023 	ldr.w	r3, [r2, r3, lsl #2]
 8003b5e:	e010      	b.n	8003b82 <RCC_PLL_GetFreqDomain_SYS+0xd6>
 8003b60:	f7ff fc9a 	bl	8003498 <LL_RCC_MSI_IsEnabledRangeSelect>
 8003b64:	4603      	mov	r3, r0
 8003b66:	2b00      	cmp	r3, #0
 8003b68:	d004      	beq.n	8003b74 <RCC_PLL_GetFreqDomain_SYS+0xc8>
 8003b6a:	f7ff fca7 	bl	80034bc <LL_RCC_MSI_GetRange>
 8003b6e:	4603      	mov	r3, r0
 8003b70:	091b      	lsrs	r3, r3, #4
 8003b72:	e003      	b.n	8003b7c <RCC_PLL_GetFreqDomain_SYS+0xd0>
 8003b74:	f7ff fcb0 	bl	80034d8 <LL_RCC_MSI_GetRangeAfterStandby>
 8003b78:	4603      	mov	r3, r0
 8003b7a:	091b      	lsrs	r3, r3, #4
 8003b7c:	4a0e      	ldr	r2, [pc, #56]	; (8003bb8 <RCC_PLL_GetFreqDomain_SYS+0x10c>)
 8003b7e:	f852 3023 	ldr.w	r3, [r2, r3, lsl #2]
 8003b82:	607b      	str	r3, [r7, #4]
 8003b84:	bf00      	nop
 8003b86:	f7ff fd3f 	bl	8003608 <LL_RCC_PLL_GetDivider>
 8003b8a:	4603      	mov	r3, r0
 8003b8c:	091b      	lsrs	r3, r3, #4
 8003b8e:	3301      	adds	r3, #1
 8003b90:	687a      	ldr	r2, [r7, #4]
 8003b92:	fbb2 f4f3 	udiv	r4, r2, r3
 8003b96:	f7ff fd1b 	bl	80035d0 <LL_RCC_PLL_GetN>
 8003b9a:	4603      	mov	r3, r0
 8003b9c:	fb03 f404 	mul.w	r4, r3, r4
 8003ba0:	f7ff fd24 	bl	80035ec <LL_RCC_PLL_GetR>
 8003ba4:	4603      	mov	r3, r0
 8003ba6:	0e5b      	lsrs	r3, r3, #25
 8003ba8:	3301      	adds	r3, #1
 8003baa:	005b      	lsls	r3, r3, #1
 8003bac:	fbb4 f3f3 	udiv	r3, r4, r3
 8003bb0:	4618      	mov	r0, r3
 8003bb2:	370c      	adds	r7, #12
 8003bb4:	46bd      	mov	sp, r7
 8003bb6:	bd90      	pop	{r4, r7, pc}
 8003bb8:	080066a0 	.word	0x080066a0
 8003bbc:	00f42400 	.word	0x00f42400
 8003bc0:	007a1200 	.word	0x007a1200

08003bc4 <LL_TIM_SetPrescaler>:
 8003bc4:	b480      	push	{r7}
 8003bc6:	b083      	sub	sp, #12
 8003bc8:	af00      	add	r7, sp, #0
 8003bca:	6078      	str	r0, [r7, #4]
 8003bcc:	6039      	str	r1, [r7, #0]
 8003bce:	687b      	ldr	r3, [r7, #4]
 8003bd0:	683a      	ldr	r2, [r7, #0]
 8003bd2:	629a      	str	r2, [r3, #40]	; 0x28
 8003bd4:	bf00      	nop
 8003bd6:	370c      	adds	r7, #12
 8003bd8:	46bd      	mov	sp, r7
 8003bda:	f85d 7b04 	ldr.w	r7, [sp], #4
 8003bde:	4770      	bx	lr

08003be0 <LL_TIM_SetAutoReload>:
 8003be0:	b480      	push	{r7}
 8003be2:	b083      	sub	sp, #12
 8003be4:	af00      	add	r7, sp, #0
 8003be6:	6078      	str	r0, [r7, #4]
 8003be8:	6039      	str	r1, [r7, #0]
 8003bea:	687b      	ldr	r3, [r7, #4]
 8003bec:	683a      	ldr	r2, [r7, #0]
 8003bee:	62da      	str	r2, [r3, #44]	; 0x2c
 8003bf0:	bf00      	nop
 8003bf2:	370c      	adds	r7, #12
 8003bf4:	46bd      	mov	sp, r7
 8003bf6:	f85d 7b04 	ldr.w	r7, [sp], #4
 8003bfa:	4770      	bx	lr

08003bfc <LL_TIM_SetRepetitionCounter>:
 8003bfc:	b480      	push	{r7}
 8003bfe:	b083      	sub	sp, #12
 8003c00:	af00      	add	r7, sp, #0
 8003c02:	6078      	str	r0, [r7, #4]
 8003c04:	6039      	str	r1, [r7, #0]
 8003c06:	687b      	ldr	r3, [r7, #4]
 8003c08:	683a      	ldr	r2, [r7, #0]
 8003c0a:	631a      	str	r2, [r3, #48]	; 0x30
 8003c0c:	bf00      	nop
 8003c0e:	370c      	adds	r7, #12
 8003c10:	46bd      	mov	sp, r7
 8003c12:	f85d 7b04 	ldr.w	r7, [sp], #4
 8003c16:	4770      	bx	lr

08003c18 <LL_TIM_OC_SetCompareCH1>:
 8003c18:	b480      	push	{r7}
 8003c1a:	b083      	sub	sp, #12
 8003c1c:	af00      	add	r7, sp, #0
 8003c1e:	6078      	str	r0, [r7, #4]
 8003c20:	6039      	str	r1, [r7, #0]
 8003c22:	687b      	ldr	r3, [r7, #4]
 8003c24:	683a      	ldr	r2, [r7, #0]
 8003c26:	635a      	str	r2, [r3, #52]	; 0x34
 8003c28:	bf00      	nop
 8003c2a:	370c      	adds	r7, #12
 8003c2c:	46bd      	mov	sp, r7
 8003c2e:	f85d 7b04 	ldr.w	r7, [sp], #4
 8003c32:	4770      	bx	lr

08003c34 <LL_TIM_OC_SetCompareCH2>:
 8003c34:	b480      	push	{r7}
 8003c36:	b083      	sub	sp, #12
 8003c38:	af00      	add	r7, sp, #0
 8003c3a:	6078      	str	r0, [r7, #4]
 8003c3c:	6039      	str	r1, [r7, #0]
 8003c3e:	687b      	ldr	r3, [r7, #4]
 8003c40:	683a      	ldr	r2, [r7, #0]
 8003c42:	639a      	str	r2, [r3, #56]	; 0x38
 8003c44:	bf00      	nop
 8003c46:	370c      	adds	r7, #12
 8003c48:	46bd      	mov	sp, r7
 8003c4a:	f85d 7b04 	ldr.w	r7, [sp], #4
 8003c4e:	4770      	bx	lr

08003c50 <LL_TIM_OC_SetCompareCH3>:
 8003c50:	b480      	push	{r7}
 8003c52:	b083      	sub	sp, #12
 8003c54:	af00      	add	r7, sp, #0
 8003c56:	6078      	str	r0, [r7, #4]
 8003c58:	6039      	str	r1, [r7, #0]
 8003c5a:	687b      	ldr	r3, [r7, #4]
 8003c5c:	683a      	ldr	r2, [r7, #0]
 8003c5e:	63da      	str	r2, [r3, #60]	; 0x3c
 8003c60:	bf00      	nop
 8003c62:	370c      	adds	r7, #12
 8003c64:	46bd      	mov	sp, r7
 8003c66:	f85d 7b04 	ldr.w	r7, [sp], #4
 8003c6a:	4770      	bx	lr

08003c6c <LL_TIM_OC_SetCompareCH4>:
 8003c6c:	b480      	push	{r7}
 8003c6e:	b083      	sub	sp, #12
 8003c70:	af00      	add	r7, sp, #0
 8003c72:	6078      	str	r0, [r7, #4]
 8003c74:	6039      	str	r1, [r7, #0]
 8003c76:	687b      	ldr	r3, [r7, #4]
 8003c78:	683a      	ldr	r2, [r7, #0]
 8003c7a:	641a      	str	r2, [r3, #64]	; 0x40
 8003c7c:	bf00      	nop
 8003c7e:	370c      	adds	r7, #12
 8003c80:	46bd      	mov	sp, r7
 8003c82:	f85d 7b04 	ldr.w	r7, [sp], #4
 8003c86:	4770      	bx	lr

08003c88 <LL_TIM_OC_SetCompareCH5>:
 8003c88:	b480      	push	{r7}
 8003c8a:	b083      	sub	sp, #12
 8003c8c:	af00      	add	r7, sp, #0
 8003c8e:	6078      	str	r0, [r7, #4]
 8003c90:	6039      	str	r1, [r7, #0]
 8003c92:	687b      	ldr	r3, [r7, #4]
 8003c94:	6d9b      	ldr	r3, [r3, #88]	; 0x58
 8003c96:	687b      	ldr	r3, [r7, #4]
 8003c98:	683a      	ldr	r2, [r7, #0]
 8003c9a:	659a      	str	r2, [r3, #88]	; 0x58
 8003c9c:	bf00      	nop
 8003c9e:	370c      	adds	r7, #12
 8003ca0:	46bd      	mov	sp, r7
 8003ca2:	f85d 7b04 	ldr.w	r7, [sp], #4
 8003ca6:	4770      	bx	lr

08003ca8 <LL_TIM_OC_SetCompareCH6>:
 8003ca8:	b480      	push	{r7}
 8003caa:	b083      	sub	sp, #12
 8003cac:	af00      	add	r7, sp, #0
 8003cae:	6078      	str	r0, [r7, #4]
 8003cb0:	6039      	str	r1, [r7, #0]
 8003cb2:	687b      	ldr	r3, [r7, #4]
 8003cb4:	683a      	ldr	r2, [r7, #0]
 8003cb6:	65da      	str	r2, [r3, #92]	; 0x5c
 8003cb8:	bf00      	nop
 8003cba:	370c      	adds	r7, #12
 8003cbc:	46bd      	mov	sp, r7
 8003cbe:	f85d 7b04 	ldr.w	r7, [sp], #4
 8003cc2:	4770      	bx	lr

08003cc4 <LL_TIM_GenerateEvent_UPDATE>:
 8003cc4:	b480      	push	{r7}
 8003cc6:	b083      	sub	sp, #12
 8003cc8:	af00      	add	r7, sp, #0
 8003cca:	6078      	str	r0, [r7, #4]
 8003ccc:	687b      	ldr	r3, [r7, #4]
 8003cce:	695b      	ldr	r3, [r3, #20]
 8003cd0:	f043 0201 	orr.w	r2, r3, #1
 8003cd4:	687b      	ldr	r3, [r7, #4]
 8003cd6:	615a      	str	r2, [r3, #20]
 8003cd8:	bf00      	nop
 8003cda:	370c      	adds	r7, #12
 8003cdc:	46bd      	mov	sp, r7
 8003cde:	f85d 7b04 	ldr.w	r7, [sp], #4
 8003ce2:	4770      	bx	lr

08003ce4 <LL_TIM_Init>:
 8003ce4:	b580      	push	{r7, lr}
 8003ce6:	b084      	sub	sp, #16
 8003ce8:	af00      	add	r7, sp, #0
 8003cea:	6078      	str	r0, [r7, #4]
 8003cec:	6039      	str	r1, [r7, #0]
 8003cee:	687b      	ldr	r3, [r7, #4]
 8003cf0:	681b      	ldr	r3, [r3, #0]
 8003cf2:	60fb      	str	r3, [r7, #12]
 8003cf4:	687b      	ldr	r3, [r7, #4]
 8003cf6:	4a3d      	ldr	r2, [pc, #244]	; (8003dec <LL_TIM_Init+0x108>)
 8003cf8:	4293      	cmp	r3, r2
 8003cfa:	d013      	beq.n	8003d24 <LL_TIM_Init+0x40>
 8003cfc:	687b      	ldr	r3, [r7, #4]
 8003cfe:	f1b3 4f80 	cmp.w	r3, #1073741824	; 0x40000000
 8003d02:	d00f      	beq.n	8003d24 <LL_TIM_Init+0x40>
 8003d04:	687b      	ldr	r3, [r7, #4]
 8003d06:	4a3a      	ldr	r2, [pc, #232]	; (8003df0 <LL_TIM_Init+0x10c>)
 8003d08:	4293      	cmp	r3, r2
 8003d0a:	d00b      	beq.n	8003d24 <LL_TIM_Init+0x40>
 8003d0c:	687b      	ldr	r3, [r7, #4]
 8003d0e:	4a39      	ldr	r2, [pc, #228]	; (8003df4 <LL_TIM_Init+0x110>)
 8003d10:	4293      	cmp	r3, r2
 8003d12:	d007      	beq.n	8003d24 <LL_TIM_Init+0x40>
 8003d14:	687b      	ldr	r3, [r7, #4]
 8003d16:	4a38      	ldr	r2, [pc, #224]	; (8003df8 <LL_TIM_Init+0x114>)
 8003d18:	4293      	cmp	r3, r2
 8003d1a:	d003      	beq.n	8003d24 <LL_TIM_Init+0x40>
 8003d1c:	687b      	ldr	r3, [r7, #4]
 8003d1e:	4a37      	ldr	r2, [pc, #220]	; (8003dfc <LL_TIM_Init+0x118>)
 8003d20:	4293      	cmp	r3, r2
 8003d22:	d106      	bne.n	8003d32 <LL_TIM_Init+0x4e>
 8003d24:	68fb      	ldr	r3, [r7, #12]
 8003d26:	f023 0270 	bic.w	r2, r3, #112	; 0x70
 8003d2a:	683b      	ldr	r3, [r7, #0]
 8003d2c:	685b      	ldr	r3, [r3, #4]
 8003d2e:	4313      	orrs	r3, r2
 8003d30:	60fb      	str	r3, [r7, #12]
 8003d32:	687b      	ldr	r3, [r7, #4]
 8003d34:	4a2d      	ldr	r2, [pc, #180]	; (8003dec <LL_TIM_Init+0x108>)
 8003d36:	4293      	cmp	r3, r2
 8003d38:	d01f      	beq.n	8003d7a <LL_TIM_Init+0x96>
 8003d3a:	687b      	ldr	r3, [r7, #4]
 8003d3c:	f1b3 4f80 	cmp.w	r3, #1073741824	; 0x40000000
 8003d40:	d01b      	beq.n	8003d7a <LL_TIM_Init+0x96>
 8003d42:	687b      	ldr	r3, [r7, #4]
 8003d44:	4a2a      	ldr	r2, [pc, #168]	; (8003df0 <LL_TIM_Init+0x10c>)
 8003d46:	4293      	cmp	r3, r2
 8003d48:	d017      	beq.n	8003d7a <LL_TIM_Init+0x96>
 8003d4a:	687b      	ldr	r3, [r7, #4]
 8003d4c:	4a29      	ldr	r2, [pc, #164]	; (8003df4 <LL_TIM_Init+0x110>)
 8003d4e:	4293      	cmp	r3, r2
 8003d50:	d013      	beq.n	8003d7a <LL_TIM_Init+0x96>
 8003d52:	687b      	ldr	r3, [r7, #4]
 8003d54:	4a28      	ldr	r2, [pc, #160]	; (8003df8 <LL_TIM_Init+0x114>)
 8003d56:	4293      	cmp	r3, r2
 8003d58:	d00f      	beq.n	8003d7a <LL_TIM_Init+0x96>
 8003d5a:	687b      	ldr	r3, [r7, #4]
 8003d5c:	4a27      	ldr	r2, [pc, #156]	; (8003dfc <LL_TIM_Init+0x118>)
 8003d5e:	4293      	cmp	r3, r2
 8003d60:	d00b      	beq.n	8003d7a <LL_TIM_Init+0x96>
 8003d62:	687b      	ldr	r3, [r7, #4]
 8003d64:	4a26      	ldr	r2, [pc, #152]	; (8003e00 <LL_TIM_Init+0x11c>)
 8003d66:	4293      	cmp	r3, r2
 8003d68:	d007      	beq.n	8003d7a <LL_TIM_Init+0x96>
 8003d6a:	687b      	ldr	r3, [r7, #4]
 8003d6c:	4a25      	ldr	r2, [pc, #148]	; (8003e04 <LL_TIM_Init+0x120>)
 8003d6e:	4293      	cmp	r3, r2
 8003d70:	d003      	beq.n	8003d7a <LL_TIM_Init+0x96>
 8003d72:	687b      	ldr	r3, [r7, #4]
 8003d74:	4a24      	ldr	r2, [pc, #144]	; (8003e08 <LL_TIM_Init+0x124>)
 8003d76:	4293      	cmp	r3, r2
 8003d78:	d106      	bne.n	8003d88 <LL_TIM_Init+0xa4>
 8003d7a:	68fb      	ldr	r3, [r7, #12]
 8003d7c:	f423 7240 	bic.w	r2, r3, #768	; 0x300
 8003d80:	683b      	ldr	r3, [r7, #0]
 8003d82:	68db      	ldr	r3, [r3, #12]
 8003d84:	4313      	orrs	r3, r2
 8003d86:	60fb      	str	r3, [r7, #12]
 8003d88:	687b      	ldr	r3, [r7, #4]
 8003d8a:	68fa      	ldr	r2, [r7, #12]
 8003d8c:	601a      	str	r2, [r3, #0]
 8003d8e:	683b      	ldr	r3, [r7, #0]
 8003d90:	689b      	ldr	r3, [r3, #8]
 8003d92:	4619      	mov	r1, r3
 8003d94:	6878      	ldr	r0, [r7, #4]
 8003d96:	f7ff ff23 	bl	8003be0 <LL_TIM_SetAutoReload>
 8003d9a:	683b      	ldr	r3, [r7, #0]
 8003d9c:	881b      	ldrh	r3, [r3, #0]
 8003d9e:	4619      	mov	r1, r3
 8003da0:	6878      	ldr	r0, [r7, #4]
 8003da2:	f7ff ff0f 	bl	8003bc4 <LL_TIM_SetPrescaler>
 8003da6:	687b      	ldr	r3, [r7, #4]
 8003da8:	4a10      	ldr	r2, [pc, #64]	; (8003dec <LL_TIM_Init+0x108>)
 8003daa:	4293      	cmp	r3, r2
 8003dac:	d00f      	beq.n	8003dce <LL_TIM_Init+0xea>
 8003dae:	687b      	ldr	r3, [r7, #4]
 8003db0:	4a12      	ldr	r2, [pc, #72]	; (8003dfc <LL_TIM_Init+0x118>)
 8003db2:	4293      	cmp	r3, r2
 8003db4:	d00b      	beq.n	8003dce <LL_TIM_Init+0xea>
 8003db6:	687b      	ldr	r3, [r7, #4]
 8003db8:	4a11      	ldr	r2, [pc, #68]	; (8003e00 <LL_TIM_Init+0x11c>)
 8003dba:	4293      	cmp	r3, r2
 8003dbc:	d007      	beq.n	8003dce <LL_TIM_Init+0xea>
 8003dbe:	687b      	ldr	r3, [r7, #4]
 8003dc0:	4a10      	ldr	r2, [pc, #64]	; (8003e04 <LL_TIM_Init+0x120>)
 8003dc2:	4293      	cmp	r3, r2
 8003dc4:	d003      	beq.n	8003dce <LL_TIM_Init+0xea>
 8003dc6:	687b      	ldr	r3, [r7, #4]
 8003dc8:	4a0f      	ldr	r2, [pc, #60]	; (8003e08 <LL_TIM_Init+0x124>)
 8003dca:	4293      	cmp	r3, r2
 8003dcc:	d105      	bne.n	8003dda <LL_TIM_Init+0xf6>
 8003dce:	683b      	ldr	r3, [r7, #0]
 8003dd0:	691b      	ldr	r3, [r3, #16]
 8003dd2:	4619      	mov	r1, r3
 8003dd4:	6878      	ldr	r0, [r7, #4]
 8003dd6:	f7ff ff11 	bl	8003bfc <LL_TIM_SetRepetitionCounter>
 8003dda:	6878      	ldr	r0, [r7, #4]
 8003ddc:	f7ff ff72 	bl	8003cc4 <LL_TIM_GenerateEvent_UPDATE>
 8003de0:	2300      	movs	r3, #0
 8003de2:	4618      	mov	r0, r3
 8003de4:	3710      	adds	r7, #16
 8003de6:	46bd      	mov	sp, r7
 8003de8:	bd80      	pop	{r7, pc}
 8003dea:	bf00      	nop
 8003dec:	40012c00 	.word	0x40012c00
 8003df0:	40000400 	.word	0x40000400
 8003df4:	40000800 	.word	0x40000800
 8003df8:	40000c00 	.word	0x40000c00
 8003dfc:	40013400 	.word	0x40013400
 8003e00:	40014000 	.word	0x40014000
 8003e04:	40014400 	.word	0x40014400
 8003e08:	40014800 	.word	0x40014800

08003e0c <LL_TIM_OC_Init>:
 8003e0c:	b580      	push	{r7, lr}
 8003e0e:	b086      	sub	sp, #24
 8003e10:	af00      	add	r7, sp, #0
 8003e12:	60f8      	str	r0, [r7, #12]
 8003e14:	60b9      	str	r1, [r7, #8]
 8003e16:	607a      	str	r2, [r7, #4]
 8003e18:	2301      	movs	r3, #1
 8003e1a:	75fb      	strb	r3, [r7, #23]
 8003e1c:	68bb      	ldr	r3, [r7, #8]
 8003e1e:	f5b3 1f80 	cmp.w	r3, #1048576	; 0x100000
 8003e22:	d045      	beq.n	8003eb0 <LL_TIM_OC_Init+0xa4>
 8003e24:	68bb      	ldr	r3, [r7, #8]
 8003e26:	f5b3 1f80 	cmp.w	r3, #1048576	; 0x100000
 8003e2a:	d848      	bhi.n	8003ebe <LL_TIM_OC_Init+0xb2>
 8003e2c:	68bb      	ldr	r3, [r7, #8]
 8003e2e:	f5b3 3f80 	cmp.w	r3, #65536	; 0x10000
 8003e32:	d036      	beq.n	8003ea2 <LL_TIM_OC_Init+0x96>
 8003e34:	68bb      	ldr	r3, [r7, #8]
 8003e36:	f5b3 3f80 	cmp.w	r3, #65536	; 0x10000
 8003e3a:	d840      	bhi.n	8003ebe <LL_TIM_OC_Init+0xb2>
 8003e3c:	68bb      	ldr	r3, [r7, #8]
 8003e3e:	f5b3 5f80 	cmp.w	r3, #4096	; 0x1000
 8003e42:	d027      	beq.n	8003e94 <LL_TIM_OC_Init+0x88>
 8003e44:	68bb      	ldr	r3, [r7, #8]
 8003e46:	f5b3 5f80 	cmp.w	r3, #4096	; 0x1000
 8003e4a:	d838      	bhi.n	8003ebe <LL_TIM_OC_Init+0xb2>
 8003e4c:	68bb      	ldr	r3, [r7, #8]
 8003e4e:	f5b3 7f80 	cmp.w	r3, #256	; 0x100
 8003e52:	d018      	beq.n	8003e86 <LL_TIM_OC_Init+0x7a>
 8003e54:	68bb      	ldr	r3, [r7, #8]
 8003e56:	f5b3 7f80 	cmp.w	r3, #256	; 0x100
 8003e5a:	d830      	bhi.n	8003ebe <LL_TIM_OC_Init+0xb2>
 8003e5c:	68bb      	ldr	r3, [r7, #8]
 8003e5e:	2b01      	cmp	r3, #1
 8003e60:	d003      	beq.n	8003e6a <LL_TIM_OC_Init+0x5e>
 8003e62:	68bb      	ldr	r3, [r7, #8]
 8003e64:	2b10      	cmp	r3, #16
 8003e66:	d007      	beq.n	8003e78 <LL_TIM_OC_Init+0x6c>
 8003e68:	e029      	b.n	8003ebe <LL_TIM_OC_Init+0xb2>
 8003e6a:	6879      	ldr	r1, [r7, #4]
 8003e6c:	68f8      	ldr	r0, [r7, #12]
 8003e6e:	f000 f82d 	bl	8003ecc <OC1Config>
 8003e72:	4603      	mov	r3, r0
 8003e74:	75fb      	strb	r3, [r7, #23]
 8003e76:	e023      	b.n	8003ec0 <LL_TIM_OC_Init+0xb4>
 8003e78:	6879      	ldr	r1, [r7, #4]
 8003e7a:	68f8      	ldr	r0, [r7, #12]
 8003e7c:	f000 f8a6 	bl	8003fcc <OC2Config>
 8003e80:	4603      	mov	r3, r0
 8003e82:	75fb      	strb	r3, [r7, #23]
 8003e84:	e01c      	b.n	8003ec0 <LL_TIM_OC_Init+0xb4>
 8003e86:	6879      	ldr	r1, [r7, #4]
 8003e88:	68f8      	ldr	r0, [r7, #12]
 8003e8a:	f000 f923 	bl	80040d4 <OC3Config>
 8003e8e:	4603      	mov	r3, r0
 8003e90:	75fb      	strb	r3, [r7, #23]
 8003e92:	e015      	b.n	8003ec0 <LL_TIM_OC_Init+0xb4>
 8003e94:	6879      	ldr	r1, [r7, #4]
 8003e96:	68f8      	ldr	r0, [r7, #12]
 8003e98:	f000 f9a0 	bl	80041dc <OC4Config>
 8003e9c:	4603      	mov	r3, r0
 8003e9e:	75fb      	strb	r3, [r7, #23]
 8003ea0:	e00e      	b.n	8003ec0 <LL_TIM_OC_Init+0xb4>
 8003ea2:	6879      	ldr	r1, [r7, #4]
 8003ea4:	68f8      	ldr	r0, [r7, #12]
 8003ea6:	f000 fa05 	bl	80042b4 <OC5Config>
 8003eaa:	4603      	mov	r3, r0
 8003eac:	75fb      	strb	r3, [r7, #23]
 8003eae:	e007      	b.n	8003ec0 <LL_TIM_OC_Init+0xb4>
 8003eb0:	6879      	ldr	r1, [r7, #4]
 8003eb2:	68f8      	ldr	r0, [r7, #12]
 8003eb4:	f000 fa62 	bl	800437c <OC6Config>
 8003eb8:	4603      	mov	r3, r0
 8003eba:	75fb      	strb	r3, [r7, #23]
 8003ebc:	e000      	b.n	8003ec0 <LL_TIM_OC_Init+0xb4>
 8003ebe:	bf00      	nop
 8003ec0:	7dfb      	ldrb	r3, [r7, #23]
 8003ec2:	4618      	mov	r0, r3
 8003ec4:	3718      	adds	r7, #24
 8003ec6:	46bd      	mov	sp, r7
 8003ec8:	bd80      	pop	{r7, pc}
	...

08003ecc <OC1Config>:
 8003ecc:	b580      	push	{r7, lr}
 8003ece:	b086      	sub	sp, #24
 8003ed0:	af00      	add	r7, sp, #0
 8003ed2:	6078      	str	r0, [r7, #4]
 8003ed4:	6039      	str	r1, [r7, #0]
 8003ed6:	687b      	ldr	r3, [r7, #4]
 8003ed8:	6a1b      	ldr	r3, [r3, #32]
 8003eda:	f023 0201 	bic.w	r2, r3, #1
 8003ede:	687b      	ldr	r3, [r7, #4]
 8003ee0:	621a      	str	r2, [r3, #32]
 8003ee2:	687b      	ldr	r3, [r7, #4]
 8003ee4:	6a1b      	ldr	r3, [r3, #32]
 8003ee6:	617b      	str	r3, [r7, #20]
 8003ee8:	687b      	ldr	r3, [r7, #4]
 8003eea:	685b      	ldr	r3, [r3, #4]
 8003eec:	613b      	str	r3, [r7, #16]
 8003eee:	687b      	ldr	r3, [r7, #4]
 8003ef0:	699b      	ldr	r3, [r3, #24]
 8003ef2:	60fb      	str	r3, [r7, #12]
 8003ef4:	68fb      	ldr	r3, [r7, #12]
 8003ef6:	f023 0303 	bic.w	r3, r3, #3
 8003efa:	60fb      	str	r3, [r7, #12]
 8003efc:	68fb      	ldr	r3, [r7, #12]
 8003efe:	f423 3380 	bic.w	r3, r3, #65536	; 0x10000
 8003f02:	f023 0370 	bic.w	r3, r3, #112	; 0x70
 8003f06:	683a      	ldr	r2, [r7, #0]
 8003f08:	6812      	ldr	r2, [r2, #0]
 8003f0a:	4313      	orrs	r3, r2
 8003f0c:	60fb      	str	r3, [r7, #12]
 8003f0e:	697b      	ldr	r3, [r7, #20]
 8003f10:	f023 0202 	bic.w	r2, r3, #2
 8003f14:	683b      	ldr	r3, [r7, #0]
 8003f16:	691b      	ldr	r3, [r3, #16]
 8003f18:	4313      	orrs	r3, r2
 8003f1a:	617b      	str	r3, [r7, #20]
 8003f1c:	697b      	ldr	r3, [r7, #20]
 8003f1e:	f023 0201 	bic.w	r2, r3, #1
 8003f22:	683b      	ldr	r3, [r7, #0]
 8003f24:	685b      	ldr	r3, [r3, #4]
 8003f26:	4313      	orrs	r3, r2
 8003f28:	617b      	str	r3, [r7, #20]
 8003f2a:	687b      	ldr	r3, [r7, #4]
 8003f2c:	4a22      	ldr	r2, [pc, #136]	; (8003fb8 <OC1Config+0xec>)
 8003f2e:	4293      	cmp	r3, r2
 8003f30:	d00f      	beq.n	8003f52 <OC1Config+0x86>
 8003f32:	687b      	ldr	r3, [r7, #4]
 8003f34:	4a21      	ldr	r2, [pc, #132]	; (8003fbc <OC1Config+0xf0>)
 8003f36:	4293      	cmp	r3, r2
 8003f38:	d00b      	beq.n	8003f52 <OC1Config+0x86>
 8003f3a:	687b      	ldr	r3, [r7, #4]
 8003f3c:	4a20      	ldr	r2, [pc, #128]	; (8003fc0 <OC1Config+0xf4>)
 8003f3e:	4293      	cmp	r3, r2
 8003f40:	d007      	beq.n	8003f52 <OC1Config+0x86>
 8003f42:	687b      	ldr	r3, [r7, #4]
 8003f44:	4a1f      	ldr	r2, [pc, #124]	; (8003fc4 <OC1Config+0xf8>)
 8003f46:	4293      	cmp	r3, r2
 8003f48:	d003      	beq.n	8003f52 <OC1Config+0x86>
 8003f4a:	687b      	ldr	r3, [r7, #4]
 8003f4c:	4a1e      	ldr	r2, [pc, #120]	; (8003fc8 <OC1Config+0xfc>)
 8003f4e:	4293      	cmp	r3, r2
 8003f50:	d11e      	bne.n	8003f90 <OC1Config+0xc4>
 8003f52:	697b      	ldr	r3, [r7, #20]
 8003f54:	f023 0208 	bic.w	r2, r3, #8
 8003f58:	683b      	ldr	r3, [r7, #0]
 8003f5a:	695b      	ldr	r3, [r3, #20]
 8003f5c:	009b      	lsls	r3, r3, #2
 8003f5e:	4313      	orrs	r3, r2
 8003f60:	617b      	str	r3, [r7, #20]
 8003f62:	697b      	ldr	r3, [r7, #20]
 8003f64:	f023 0204 	bic.w	r2, r3, #4
 8003f68:	683b      	ldr	r3, [r7, #0]
 8003f6a:	689b      	ldr	r3, [r3, #8]
 8003f6c:	009b      	lsls	r3, r3, #2
 8003f6e:	4313      	orrs	r3, r2
 8003f70:	617b      	str	r3, [r7, #20]
 8003f72:	693b      	ldr	r3, [r7, #16]
 8003f74:	f423 7280 	bic.w	r2, r3, #256	; 0x100
 8003f78:	683b      	ldr	r3, [r7, #0]
 8003f7a:	699b      	ldr	r3, [r3, #24]
 8003f7c:	4313      	orrs	r3, r2
 8003f7e:	613b      	str	r3, [r7, #16]
 8003f80:	693b      	ldr	r3, [r7, #16]
 8003f82:	f423 7200 	bic.w	r2, r3, #512	; 0x200
 8003f86:	683b      	ldr	r3, [r7, #0]
 8003f88:	69db      	ldr	r3, [r3, #28]
 8003f8a:	005b      	lsls	r3, r3, #1
 8003f8c:	4313      	orrs	r3, r2
 8003f8e:	613b      	str	r3, [r7, #16]
 8003f90:	687b      	ldr	r3, [r7, #4]
 8003f92:	693a      	ldr	r2, [r7, #16]
 8003f94:	605a      	str	r2, [r3, #4]
 8003f96:	687b      	ldr	r3, [r7, #4]
 8003f98:	68fa      	ldr	r2, [r7, #12]
 8003f9a:	619a      	str	r2, [r3, #24]
 8003f9c:	683b      	ldr	r3, [r7, #0]
 8003f9e:	68db      	ldr	r3, [r3, #12]
 8003fa0:	4619      	mov	r1, r3
 8003fa2:	6878      	ldr	r0, [r7, #4]
 8003fa4:	f7ff fe38 	bl	8003c18 <LL_TIM_OC_SetCompareCH1>
 8003fa8:	687b      	ldr	r3, [r7, #4]
 8003faa:	697a      	ldr	r2, [r7, #20]
 8003fac:	621a      	str	r2, [r3, #32]
 8003fae:	2300      	movs	r3, #0
 8003fb0:	4618      	mov	r0, r3
 8003fb2:	3718      	adds	r7, #24
 8003fb4:	46bd      	mov	sp, r7
 8003fb6:	bd80      	pop	{r7, pc}
 8003fb8:	40012c00 	.word	0x40012c00
 8003fbc:	40013400 	.word	0x40013400
 8003fc0:	40014000 	.word	0x40014000
 8003fc4:	40014400 	.word	0x40014400
 8003fc8:	40014800 	.word	0x40014800

08003fcc <OC2Config>:
 8003fcc:	b580      	push	{r7, lr}
 8003fce:	b086      	sub	sp, #24
 8003fd0:	af00      	add	r7, sp, #0
 8003fd2:	6078      	str	r0, [r7, #4]
 8003fd4:	6039      	str	r1, [r7, #0]
 8003fd6:	687b      	ldr	r3, [r7, #4]
 8003fd8:	6a1b      	ldr	r3, [r3, #32]
 8003fda:	f023 0210 	bic.w	r2, r3, #16
 8003fde:	687b      	ldr	r3, [r7, #4]
 8003fe0:	621a      	str	r2, [r3, #32]
 8003fe2:	687b      	ldr	r3, [r7, #4]
 8003fe4:	6a1b      	ldr	r3, [r3, #32]
 8003fe6:	617b      	str	r3, [r7, #20]
 8003fe8:	687b      	ldr	r3, [r7, #4]
 8003fea:	685b      	ldr	r3, [r3, #4]
 8003fec:	613b      	str	r3, [r7, #16]
 8003fee:	687b      	ldr	r3, [r7, #4]
 8003ff0:	699b      	ldr	r3, [r3, #24]
 8003ff2:	60fb      	str	r3, [r7, #12]
 8003ff4:	68fb      	ldr	r3, [r7, #12]
 8003ff6:	f423 7340 	bic.w	r3, r3, #768	; 0x300
 8003ffa:	60fb      	str	r3, [r7, #12]
 8003ffc:	68fb      	ldr	r3, [r7, #12]
 8003ffe:	f023 7380 	bic.w	r3, r3, #16777216	; 0x1000000
 8004002:	f423 43e0 	bic.w	r3, r3, #28672	; 0x7000
 8004006:	683a      	ldr	r2, [r7, #0]
 8004008:	6812      	ldr	r2, [r2, #0]
 800400a:	0212      	lsls	r2, r2, #8
 800400c:	4313      	orrs	r3, r2
 800400e:	60fb      	str	r3, [r7, #12]
 8004010:	697b      	ldr	r3, [r7, #20]
 8004012:	f023 0220 	bic.w	r2, r3, #32
 8004016:	683b      	ldr	r3, [r7, #0]
 8004018:	691b      	ldr	r3, [r3, #16]
 800401a:	011b      	lsls	r3, r3, #4
 800401c:	4313      	orrs	r3, r2
 800401e:	617b      	str	r3, [r7, #20]
 8004020:	697b      	ldr	r3, [r7, #20]
 8004022:	f023 0210 	bic.w	r2, r3, #16
 8004026:	683b      	ldr	r3, [r7, #0]
 8004028:	685b      	ldr	r3, [r3, #4]
 800402a:	011b      	lsls	r3, r3, #4
 800402c:	4313      	orrs	r3, r2
 800402e:	617b      	str	r3, [r7, #20]
 8004030:	687b      	ldr	r3, [r7, #4]
 8004032:	4a23      	ldr	r2, [pc, #140]	; (80040c0 <OC2Config+0xf4>)
 8004034:	4293      	cmp	r3, r2
 8004036:	d00f      	beq.n	8004058 <OC2Config+0x8c>
 8004038:	687b      	ldr	r3, [r7, #4]
 800403a:	4a22      	ldr	r2, [pc, #136]	; (80040c4 <OC2Config+0xf8>)
 800403c:	4293      	cmp	r3, r2
 800403e:	d00b      	beq.n	8004058 <OC2Config+0x8c>
 8004040:	687b      	ldr	r3, [r7, #4]
 8004042:	4a21      	ldr	r2, [pc, #132]	; (80040c8 <OC2Config+0xfc>)
 8004044:	4293      	cmp	r3, r2
 8004046:	d007      	beq.n	8004058 <OC2Config+0x8c>
 8004048:	687b      	ldr	r3, [r7, #4]
 800404a:	4a20      	ldr	r2, [pc, #128]	; (80040cc <OC2Config+0x100>)
 800404c:	4293      	cmp	r3, r2
 800404e:	d003      	beq.n	8004058 <OC2Config+0x8c>
 8004050:	687b      	ldr	r3, [r7, #4]
 8004052:	4a1f      	ldr	r2, [pc, #124]	; (80040d0 <OC2Config+0x104>)
 8004054:	4293      	cmp	r3, r2
 8004056:	d11f      	bne.n	8004098 <OC2Config+0xcc>
 8004058:	697b      	ldr	r3, [r7, #20]
 800405a:	f023 0280 	bic.w	r2, r3, #128	; 0x80
 800405e:	683b      	ldr	r3, [r7, #0]
 8004060:	695b      	ldr	r3, [r3, #20]
 8004062:	019b      	lsls	r3, r3, #6
 8004064:	4313      	orrs	r3, r2
 8004066:	617b      	str	r3, [r7, #20]
 8004068:	697b      	ldr	r3, [r7, #20]
 800406a:	f023 0240 	bic.w	r2, r3, #64	; 0x40
 800406e:	683b      	ldr	r3, [r7, #0]
 8004070:	689b      	ldr	r3, [r3, #8]
 8004072:	019b      	lsls	r3, r3, #6
 8004074:	4313      	orrs	r3, r2
 8004076:	617b      	str	r3, [r7, #20]
 8004078:	693b      	ldr	r3, [r7, #16]
 800407a:	f423 6280 	bic.w	r2, r3, #1024	; 0x400
 800407e:	683b      	ldr	r3, [r7, #0]
 8004080:	699b      	ldr	r3, [r3, #24]
 8004082:	009b      	lsls	r3, r3, #2
 8004084:	4313      	orrs	r3, r2
 8004086:	613b      	str	r3, [r7, #16]
 8004088:	693b      	ldr	r3, [r7, #16]
 800408a:	f423 6200 	bic.w	r2, r3, #2048	; 0x800
 800408e:	683b      	ldr	r3, [r7, #0]
 8004090:	69db      	ldr	r3, [r3, #28]
 8004092:	00db      	lsls	r3, r3, #3
 8004094:	4313      	orrs	r3, r2
 8004096:	613b      	str	r3, [r7, #16]
 8004098:	687b      	ldr	r3, [r7, #4]
 800409a:	693a      	ldr	r2, [r7, #16]
 800409c:	605a      	str	r2, [r3, #4]
 800409e:	687b      	ldr	r3, [r7, #4]
 80040a0:	68fa      	ldr	r2, [r7, #12]
 80040a2:	619a      	str	r2, [r3, #24]
 80040a4:	683b      	ldr	r3, [r7, #0]
 80040a6:	68db      	ldr	r3, [r3, #12]
 80040a8:	4619      	mov	r1, r3
 80040aa:	6878      	ldr	r0, [r7, #4]
 80040ac:	f7ff fdc2 	bl	8003c34 <LL_TIM_OC_SetCompareCH2>
 80040b0:	687b      	ldr	r3, [r7, #4]
 80040b2:	697a      	ldr	r2, [r7, #20]
 80040b4:	621a      	str	r2, [r3, #32]
 80040b6:	2300      	movs	r3, #0
 80040b8:	4618      	mov	r0, r3
 80040ba:	3718      	adds	r7, #24
 80040bc:	46bd      	mov	sp, r7
 80040be:	bd80      	pop	{r7, pc}
 80040c0:	40012c00 	.word	0x40012c00
 80040c4:	40013400 	.word	0x40013400
 80040c8:	40014000 	.word	0x40014000
 80040cc:	40014400 	.word	0x40014400
 80040d0:	40014800 	.word	0x40014800

080040d4 <OC3Config>:
 80040d4:	b580      	push	{r7, lr}
 80040d6:	b086      	sub	sp, #24
 80040d8:	af00      	add	r7, sp, #0
 80040da:	6078      	str	r0, [r7, #4]
 80040dc:	6039      	str	r1, [r7, #0]
 80040de:	687b      	ldr	r3, [r7, #4]
 80040e0:	6a1b      	ldr	r3, [r3, #32]
 80040e2:	f423 7280 	bic.w	r2, r3, #256	; 0x100
 80040e6:	687b      	ldr	r3, [r7, #4]
 80040e8:	621a      	str	r2, [r3, #32]
 80040ea:	687b      	ldr	r3, [r7, #4]
 80040ec:	6a1b      	ldr	r3, [r3, #32]
 80040ee:	617b      	str	r3, [r7, #20]
 80040f0:	687b      	ldr	r3, [r7, #4]
 80040f2:	685b      	ldr	r3, [r3, #4]
 80040f4:	613b      	str	r3, [r7, #16]
 80040f6:	687b      	ldr	r3, [r7, #4]
 80040f8:	69db      	ldr	r3, [r3, #28]
 80040fa:	60fb      	str	r3, [r7, #12]
 80040fc:	68fb      	ldr	r3, [r7, #12]
 80040fe:	f023 0303 	bic.w	r3, r3, #3
 8004102:	60fb      	str	r3, [r7, #12]
 8004104:	68fb      	ldr	r3, [r7, #12]
 8004106:	f423 3380 	bic.w	r3, r3, #65536	; 0x10000
 800410a:	f023 0370 	bic.w	r3, r3, #112	; 0x70
 800410e:	683a      	ldr	r2, [r7, #0]
 8004110:	6812      	ldr	r2, [r2, #0]
 8004112:	4313      	orrs	r3, r2
 8004114:	60fb      	str	r3, [r7, #12]
 8004116:	697b      	ldr	r3, [r7, #20]
 8004118:	f423 7200 	bic.w	r2, r3, #512	; 0x200
 800411c:	683b      	ldr	r3, [r7, #0]
 800411e:	691b      	ldr	r3, [r3, #16]
 8004120:	021b      	lsls	r3, r3, #8
 8004122:	4313      	orrs	r3, r2
 8004124:	617b      	str	r3, [r7, #20]
 8004126:	697b      	ldr	r3, [r7, #20]
 8004128:	f423 7280 	bic.w	r2, r3, #256	; 0x100
 800412c:	683b      	ldr	r3, [r7, #0]
 800412e:	685b      	ldr	r3, [r3, #4]
 8004130:	021b      	lsls	r3, r3, #8
 8004132:	4313      	orrs	r3, r2
 8004134:	617b      	str	r3, [r7, #20]
 8004136:	687b      	ldr	r3, [r7, #4]
 8004138:	4a23      	ldr	r2, [pc, #140]	; (80041c8 <OC3Config+0xf4>)
 800413a:	4293      	cmp	r3, r2
 800413c:	d00f      	beq.n	800415e <OC3Config+0x8a>
 800413e:	687b      	ldr	r3, [r7, #4]
 8004140:	4a22      	ldr	r2, [pc, #136]	; (80041cc <OC3Config+0xf8>)
 8004142:	4293      	cmp	r3, r2
 8004144:	d00b      	beq.n	800415e <OC3Config+0x8a>
 8004146:	687b      	ldr	r3, [r7, #4]
 8004148:	4a21      	ldr	r2, [pc, #132]	; (80041d0 <OC3Config+0xfc>)
 800414a:	4293      	cmp	r3, r2
 800414c:	d007      	beq.n	800415e <OC3Config+0x8a>
 800414e:	687b      	ldr	r3, [r7, #4]
 8004150:	4a20      	ldr	r2, [pc, #128]	; (80041d4 <OC3Config+0x100>)
 8004152:	4293      	cmp	r3, r2
 8004154:	d003      	beq.n	800415e <OC3Config+0x8a>
 8004156:	687b      	ldr	r3, [r7, #4]
 8004158:	4a1f      	ldr	r2, [pc, #124]	; (80041d8 <OC3Config+0x104>)
 800415a:	4293      	cmp	r3, r2
 800415c:	d11f      	bne.n	800419e <OC3Config+0xca>
 800415e:	697b      	ldr	r3, [r7, #20]
 8004160:	f423 6200 	bic.w	r2, r3, #2048	; 0x800
 8004164:	683b      	ldr	r3, [r7, #0]
 8004166:	695b      	ldr	r3, [r3, #20]
 8004168:	029b      	lsls	r3, r3, #10
 800416a:	4313      	orrs	r3, r2
 800416c:	617b      	str	r3, [r7, #20]
 800416e:	697b      	ldr	r3, [r7, #20]
 8004170:	f423 6280 	bic.w	r2, r3, #1024	; 0x400
 8004174:	683b      	ldr	r3, [r7, #0]
 8004176:	689b      	ldr	r3, [r3, #8]
 8004178:	029b      	lsls	r3, r3, #10
 800417a:	4313      	orrs	r3, r2
 800417c:	617b      	str	r3, [r7, #20]
 800417e:	693b      	ldr	r3, [r7, #16]
 8004180:	f423 5280 	bic.w	r2, r3, #4096	; 0x1000
 8004184:	683b      	ldr	r3, [r7, #0]
 8004186:	699b      	ldr	r3, [r3, #24]
 8004188:	011b      	lsls	r3, r3, #4
 800418a:	4313      	orrs	r3, r2
 800418c:	613b      	str	r3, [r7, #16]
 800418e:	693b      	ldr	r3, [r7, #16]
 8004190:	f423 5200 	bic.w	r2, r3, #8192	; 0x2000
 8004194:	683b      	ldr	r3, [r7, #0]
 8004196:	69db      	ldr	r3, [r3, #28]
 8004198:	015b      	lsls	r3, r3, #5
 800419a:	4313      	orrs	r3, r2
 800419c:	613b      	str	r3, [r7, #16]
 800419e:	687b      	ldr	r3, [r7, #4]
 80041a0:	693a      	ldr	r2, [r7, #16]
 80041a2:	605a      	str	r2, [r3, #4]
 80041a4:	687b      	ldr	r3, [r7, #4]
 80041a6:	68fa      	ldr	r2, [r7, #12]
 80041a8:	61da      	str	r2, [r3, #28]
 80041aa:	683b      	ldr	r3, [r7, #0]
 80041ac:	68db      	ldr	r3, [r3, #12]
 80041ae:	4619      	mov	r1, r3
 80041b0:	6878      	ldr	r0, [r7, #4]
 80041b2:	f7ff fd4d 	bl	8003c50 <LL_TIM_OC_SetCompareCH3>
 80041b6:	687b      	ldr	r3, [r7, #4]
 80041b8:	697a      	ldr	r2, [r7, #20]
 80041ba:	621a      	str	r2, [r3, #32]
 80041bc:	2300      	movs	r3, #0
 80041be:	4618      	mov	r0, r3
 80041c0:	3718      	adds	r7, #24
 80041c2:	46bd      	mov	sp, r7
 80041c4:	bd80      	pop	{r7, pc}
 80041c6:	bf00      	nop
 80041c8:	40012c00 	.word	0x40012c00
 80041cc:	40013400 	.word	0x40013400
 80041d0:	40014000 	.word	0x40014000
 80041d4:	40014400 	.word	0x40014400
 80041d8:	40014800 	.word	0x40014800

080041dc <OC4Config>:
 80041dc:	b580      	push	{r7, lr}
 80041de:	b086      	sub	sp, #24
 80041e0:	af00      	add	r7, sp, #0
 80041e2:	6078      	str	r0, [r7, #4]
 80041e4:	6039      	str	r1, [r7, #0]
 80041e6:	687b      	ldr	r3, [r7, #4]
 80041e8:	6a1b      	ldr	r3, [r3, #32]
 80041ea:	f423 5280 	bic.w	r2, r3, #4096	; 0x1000
 80041ee:	687b      	ldr	r3, [r7, #4]
 80041f0:	621a      	str	r2, [r3, #32]
 80041f2:	687b      	ldr	r3, [r7, #4]
 80041f4:	6a1b      	ldr	r3, [r3, #32]
 80041f6:	613b      	str	r3, [r7, #16]
 80041f8:	687b      	ldr	r3, [r7, #4]
 80041fa:	685b      	ldr	r3, [r3, #4]
 80041fc:	617b      	str	r3, [r7, #20]
 80041fe:	687b      	ldr	r3, [r7, #4]
 8004200:	69db      	ldr	r3, [r3, #28]
 8004202:	60fb      	str	r3, [r7, #12]
 8004204:	68fb      	ldr	r3, [r7, #12]
 8004206:	f423 7340 	bic.w	r3, r3, #768	; 0x300
 800420a:	60fb      	str	r3, [r7, #12]
 800420c:	68fb      	ldr	r3, [r7, #12]
 800420e:	f023 7380 	bic.w	r3, r3, #16777216	; 0x1000000
 8004212:	f423 43e0 	bic.w	r3, r3, #28672	; 0x7000
 8004216:	683a      	ldr	r2, [r7, #0]
 8004218:	6812      	ldr	r2, [r2, #0]
 800421a:	0212      	lsls	r2, r2, #8
 800421c:	4313      	orrs	r3, r2
 800421e:	60fb      	str	r3, [r7, #12]
 8004220:	693b      	ldr	r3, [r7, #16]
 8004222:	f423 5200 	bic.w	r2, r3, #8192	; 0x2000
 8004226:	683b      	ldr	r3, [r7, #0]
 8004228:	691b      	ldr	r3, [r3, #16]
 800422a:	031b      	lsls	r3, r3, #12
 800422c:	4313      	orrs	r3, r2
 800422e:	613b      	str	r3, [r7, #16]
 8004230:	693b      	ldr	r3, [r7, #16]
 8004232:	f423 5280 	bic.w	r2, r3, #4096	; 0x1000
 8004236:	683b      	ldr	r3, [r7, #0]
 8004238:	685b      	ldr	r3, [r3, #4]
 800423a:	031b      	lsls	r3, r3, #12
 800423c:	4313      	orrs	r3, r2
 800423e:	613b      	str	r3, [r7, #16]
 8004240:	687b      	ldr	r3, [r7, #4]
 8004242:	4a17      	ldr	r2, [pc, #92]	; (80042a0 <OC4Config+0xc4>)
 8004244:	4293      	cmp	r3, r2
 8004246:	d00f      	beq.n	8004268 <OC4Config+0x8c>
 8004248:	687b      	ldr	r3, [r7, #4]
 800424a:	4a16      	ldr	r2, [pc, #88]	; (80042a4 <OC4Config+0xc8>)
 800424c:	4293      	cmp	r3, r2
 800424e:	d00b      	beq.n	8004268 <OC4Config+0x8c>
 8004250:	687b      	ldr	r3, [r7, #4]
 8004252:	4a15      	ldr	r2, [pc, #84]	; (80042a8 <OC4Config+0xcc>)
 8004254:	4293      	cmp	r3, r2
 8004256:	d007      	beq.n	8004268 <OC4Config+0x8c>
 8004258:	687b      	ldr	r3, [r7, #4]
 800425a:	4a14      	ldr	r2, [pc, #80]	; (80042ac <OC4Config+0xd0>)
 800425c:	4293      	cmp	r3, r2
 800425e:	d003      	beq.n	8004268 <OC4Config+0x8c>
 8004260:	687b      	ldr	r3, [r7, #4]
 8004262:	4a13      	ldr	r2, [pc, #76]	; (80042b0 <OC4Config+0xd4>)
 8004264:	4293      	cmp	r3, r2
 8004266:	d107      	bne.n	8004278 <OC4Config+0x9c>
 8004268:	697b      	ldr	r3, [r7, #20]
 800426a:	f423 4280 	bic.w	r2, r3, #16384	; 0x4000
 800426e:	683b      	ldr	r3, [r7, #0]
 8004270:	699b      	ldr	r3, [r3, #24]
 8004272:	019b      	lsls	r3, r3, #6
 8004274:	4313      	orrs	r3, r2
 8004276:	617b      	str	r3, [r7, #20]
 8004278:	687b      	ldr	r3, [r7, #4]
 800427a:	697a      	ldr	r2, [r7, #20]
 800427c:	605a      	str	r2, [r3, #4]
 800427e:	687b      	ldr	r3, [r7, #4]
 8004280:	68fa      	ldr	r2, [r7, #12]
 8004282:	61da      	str	r2, [r3, #28]
 8004284:	683b      	ldr	r3, [r7, #0]
 8004286:	68db      	ldr	r3, [r3, #12]
 8004288:	4619      	mov	r1, r3
 800428a:	6878      	ldr	r0, [r7, #4]
 800428c:	f7ff fcee 	bl	8003c6c <LL_TIM_OC_SetCompareCH4>
 8004290:	687b      	ldr	r3, [r7, #4]
 8004292:	693a      	ldr	r2, [r7, #16]
 8004294:	621a      	str	r2, [r3, #32]
 8004296:	2300      	movs	r3, #0
 8004298:	4618      	mov	r0, r3
 800429a:	3718      	adds	r7, #24
 800429c:	46bd      	mov	sp, r7
 800429e:	bd80      	pop	{r7, pc}
 80042a0:	40012c00 	.word	0x40012c00
 80042a4:	40013400 	.word	0x40013400
 80042a8:	40014000 	.word	0x40014000
 80042ac:	40014400 	.word	0x40014400
 80042b0:	40014800 	.word	0x40014800

080042b4 <OC5Config>:
 80042b4:	b580      	push	{r7, lr}
 80042b6:	b084      	sub	sp, #16
 80042b8:	af00      	add	r7, sp, #0
 80042ba:	6078      	str	r0, [r7, #4]
 80042bc:	6039      	str	r1, [r7, #0]
 80042be:	687b      	ldr	r3, [r7, #4]
 80042c0:	6a1b      	ldr	r3, [r3, #32]
 80042c2:	f423 3280 	bic.w	r2, r3, #65536	; 0x10000
 80042c6:	687b      	ldr	r3, [r7, #4]
 80042c8:	621a      	str	r2, [r3, #32]
 80042ca:	687b      	ldr	r3, [r7, #4]
 80042cc:	6a1b      	ldr	r3, [r3, #32]
 80042ce:	60fb      	str	r3, [r7, #12]
 80042d0:	687b      	ldr	r3, [r7, #4]
 80042d2:	6d5b      	ldr	r3, [r3, #84]	; 0x54
 80042d4:	60bb      	str	r3, [r7, #8]
 80042d6:	68bb      	ldr	r3, [r7, #8]
 80042d8:	f423 3380 	bic.w	r3, r3, #65536	; 0x10000
 80042dc:	f023 0370 	bic.w	r3, r3, #112	; 0x70
 80042e0:	683a      	ldr	r2, [r7, #0]
 80042e2:	6812      	ldr	r2, [r2, #0]
 80042e4:	4313      	orrs	r3, r2
 80042e6:	60bb      	str	r3, [r7, #8]
 80042e8:	68fb      	ldr	r3, [r7, #12]
 80042ea:	f423 3200 	bic.w	r2, r3, #131072	; 0x20000
 80042ee:	683b      	ldr	r3, [r7, #0]
 80042f0:	691b      	ldr	r3, [r3, #16]
 80042f2:	041b      	lsls	r3, r3, #16
 80042f4:	4313      	orrs	r3, r2
 80042f6:	60fb      	str	r3, [r7, #12]
 80042f8:	68fb      	ldr	r3, [r7, #12]
 80042fa:	f423 3280 	bic.w	r2, r3, #65536	; 0x10000
 80042fe:	683b      	ldr	r3, [r7, #0]
 8004300:	685b      	ldr	r3, [r3, #4]
 8004302:	041b      	lsls	r3, r3, #16
 8004304:	4313      	orrs	r3, r2
 8004306:	60fb      	str	r3, [r7, #12]
 8004308:	687b      	ldr	r3, [r7, #4]
 800430a:	4a17      	ldr	r2, [pc, #92]	; (8004368 <OC5Config+0xb4>)
 800430c:	4293      	cmp	r3, r2
 800430e:	d00f      	beq.n	8004330 <OC5Config+0x7c>
 8004310:	687b      	ldr	r3, [r7, #4]
 8004312:	4a16      	ldr	r2, [pc, #88]	; (800436c <OC5Config+0xb8>)
 8004314:	4293      	cmp	r3, r2
 8004316:	d00b      	beq.n	8004330 <OC5Config+0x7c>
 8004318:	687b      	ldr	r3, [r7, #4]
 800431a:	4a15      	ldr	r2, [pc, #84]	; (8004370 <OC5Config+0xbc>)
 800431c:	4293      	cmp	r3, r2
 800431e:	d007      	beq.n	8004330 <OC5Config+0x7c>
 8004320:	687b      	ldr	r3, [r7, #4]
 8004322:	4a14      	ldr	r2, [pc, #80]	; (8004374 <OC5Config+0xc0>)
 8004324:	4293      	cmp	r3, r2
 8004326:	d003      	beq.n	8004330 <OC5Config+0x7c>
 8004328:	687b      	ldr	r3, [r7, #4]
 800432a:	4a13      	ldr	r2, [pc, #76]	; (8004378 <OC5Config+0xc4>)
 800432c:	4293      	cmp	r3, r2
 800432e:	d109      	bne.n	8004344 <OC5Config+0x90>
 8004330:	687b      	ldr	r3, [r7, #4]
 8004332:	685b      	ldr	r3, [r3, #4]
 8004334:	f423 3280 	bic.w	r2, r3, #65536	; 0x10000
 8004338:	683b      	ldr	r3, [r7, #0]
 800433a:	699b      	ldr	r3, [r3, #24]
 800433c:	021b      	lsls	r3, r3, #8
 800433e:	431a      	orrs	r2, r3
 8004340:	687b      	ldr	r3, [r7, #4]
 8004342:	605a      	str	r2, [r3, #4]
 8004344:	687b      	ldr	r3, [r7, #4]
 8004346:	68ba      	ldr	r2, [r7, #8]
 8004348:	655a      	str	r2, [r3, #84]	; 0x54
 800434a:	683b      	ldr	r3, [r7, #0]
 800434c:	68db      	ldr	r3, [r3, #12]
 800434e:	4619      	mov	r1, r3
 8004350:	6878      	ldr	r0, [r7, #4]
 8004352:	f7ff fc99 	bl	8003c88 <LL_TIM_OC_SetCompareCH5>
 8004356:	687b      	ldr	r3, [r7, #4]
 8004358:	68fa      	ldr	r2, [r7, #12]
 800435a:	621a      	str	r2, [r3, #32]
 800435c:	2300      	movs	r3, #0
 800435e:	4618      	mov	r0, r3
 8004360:	3710      	adds	r7, #16
 8004362:	46bd      	mov	sp, r7
 8004364:	bd80      	pop	{r7, pc}
 8004366:	bf00      	nop
 8004368:	40012c00 	.word	0x40012c00
 800436c:	40013400 	.word	0x40013400
 8004370:	40014000 	.word	0x40014000
 8004374:	40014400 	.word	0x40014400
 8004378:	40014800 	.word	0x40014800

0800437c <OC6Config>:
 800437c:	b580      	push	{r7, lr}
 800437e:	b084      	sub	sp, #16
 8004380:	af00      	add	r7, sp, #0
 8004382:	6078      	str	r0, [r7, #4]
 8004384:	6039      	str	r1, [r7, #0]
 8004386:	687b      	ldr	r3, [r7, #4]
 8004388:	6a1b      	ldr	r3, [r3, #32]
 800438a:	f423 1280 	bic.w	r2, r3, #1048576	; 0x100000
 800438e:	687b      	ldr	r3, [r7, #4]
 8004390:	621a      	str	r2, [r3, #32]
 8004392:	687b      	ldr	r3, [r7, #4]
 8004394:	6a1b      	ldr	r3, [r3, #32]
 8004396:	60fb      	str	r3, [r7, #12]
 8004398:	687b      	ldr	r3, [r7, #4]
 800439a:	6d5b      	ldr	r3, [r3, #84]	; 0x54
 800439c:	60bb      	str	r3, [r7, #8]
 800439e:	68bb      	ldr	r3, [r7, #8]
 80043a0:	f023 7380 	bic.w	r3, r3, #16777216	; 0x1000000
 80043a4:	f423 43e0 	bic.w	r3, r3, #28672	; 0x7000
 80043a8:	683a      	ldr	r2, [r7, #0]
 80043aa:	6812      	ldr	r2, [r2, #0]
 80043ac:	0212      	lsls	r2, r2, #8
 80043ae:	4313      	orrs	r3, r2
 80043b0:	60bb      	str	r3, [r7, #8]
 80043b2:	68fb      	ldr	r3, [r7, #12]
 80043b4:	f423 1200 	bic.w	r2, r3, #2097152	; 0x200000
 80043b8:	683b      	ldr	r3, [r7, #0]
 80043ba:	691b      	ldr	r3, [r3, #16]
 80043bc:	051b      	lsls	r3, r3, #20
 80043be:	4313      	orrs	r3, r2
 80043c0:	60fb      	str	r3, [r7, #12]
 80043c2:	68fb      	ldr	r3, [r7, #12]
 80043c4:	f423 1280 	bic.w	r2, r3, #1048576	; 0x100000
 80043c8:	683b      	ldr	r3, [r7, #0]
 80043ca:	685b      	ldr	r3, [r3, #4]
 80043cc:	051b      	lsls	r3, r3, #20
 80043ce:	4313      	orrs	r3, r2
 80043d0:	60fb      	str	r3, [r7, #12]
 80043d2:	687b      	ldr	r3, [r7, #4]
 80043d4:	4a16      	ldr	r2, [pc, #88]	; (8004430 <OC6Config+0xb4>)
 80043d6:	4293      	cmp	r3, r2
 80043d8:	d00f      	beq.n	80043fa <OC6Config+0x7e>
 80043da:	687b      	ldr	r3, [r7, #4]
 80043dc:	4a15      	ldr	r2, [pc, #84]	; (8004434 <OC6Config+0xb8>)
 80043de:	4293      	cmp	r3, r2
 80043e0:	d00b      	beq.n	80043fa <OC6Config+0x7e>
 80043e2:	687b      	ldr	r3, [r7, #4]
 80043e4:	4a14      	ldr	r2, [pc, #80]	; (8004438 <OC6Config+0xbc>)
 80043e6:	4293      	cmp	r3, r2
 80043e8:	d007      	beq.n	80043fa <OC6Config+0x7e>
 80043ea:	687b      	ldr	r3, [r7, #4]
 80043ec:	4a13      	ldr	r2, [pc, #76]	; (800443c <OC6Config+0xc0>)
 80043ee:	4293      	cmp	r3, r2
 80043f0:	d003      	beq.n	80043fa <OC6Config+0x7e>
 80043f2:	687b      	ldr	r3, [r7, #4]
 80043f4:	4a12      	ldr	r2, [pc, #72]	; (8004440 <OC6Config+0xc4>)
 80043f6:	4293      	cmp	r3, r2
 80043f8:	d109      	bne.n	800440e <OC6Config+0x92>
 80043fa:	687b      	ldr	r3, [r7, #4]
 80043fc:	685b      	ldr	r3, [r3, #4]
 80043fe:	f423 2280 	bic.w	r2, r3, #262144	; 0x40000
 8004402:	683b      	ldr	r3, [r7, #0]
 8004404:	699b      	ldr	r3, [r3, #24]
 8004406:	029b      	lsls	r3, r3, #10
 8004408:	431a      	orrs	r2, r3
 800440a:	687b      	ldr	r3, [r7, #4]
 800440c:	605a      	str	r2, [r3, #4]
 800440e:	687b      	ldr	r3, [r7, #4]
 8004410:	68ba      	ldr	r2, [r7, #8]
 8004412:	655a      	str	r2, [r3, #84]	; 0x54
 8004414:	683b      	ldr	r3, [r7, #0]
 8004416:	68db      	ldr	r3, [r3, #12]
 8004418:	4619      	mov	r1, r3
 800441a:	6878      	ldr	r0, [r7, #4]
 800441c:	f7ff fc44 	bl	8003ca8 <LL_TIM_OC_SetCompareCH6>
 8004420:	687b      	ldr	r3, [r7, #4]
 8004422:	68fa      	ldr	r2, [r7, #12]
 8004424:	621a      	str	r2, [r3, #32]
 8004426:	2300      	movs	r3, #0
 8004428:	4618      	mov	r0, r3
 800442a:	3710      	adds	r7, #16
 800442c:	46bd      	mov	sp, r7
 800442e:	bd80      	pop	{r7, pc}
 8004430:	40012c00 	.word	0x40012c00
 8004434:	40013400 	.word	0x40013400
 8004438:	40014000 	.word	0x40014000
 800443c:	40014400 	.word	0x40014400
 8004440:	40014800 	.word	0x40014800

08004444 <LL_USART_IsEnabled>:
 8004444:	b480      	push	{r7}
 8004446:	b083      	sub	sp, #12
 8004448:	af00      	add	r7, sp, #0
 800444a:	6078      	str	r0, [r7, #4]
 800444c:	687b      	ldr	r3, [r7, #4]
 800444e:	681b      	ldr	r3, [r3, #0]
 8004450:	f003 0301 	and.w	r3, r3, #1
 8004454:	2b01      	cmp	r3, #1
 8004456:	d101      	bne.n	800445c <LL_USART_IsEnabled+0x18>
 8004458:	2301      	movs	r3, #1
 800445a:	e000      	b.n	800445e <LL_USART_IsEnabled+0x1a>
 800445c:	2300      	movs	r3, #0
 800445e:	4618      	mov	r0, r3
 8004460:	370c      	adds	r7, #12
 8004462:	46bd      	mov	sp, r7
 8004464:	f85d 7b04 	ldr.w	r7, [sp], #4
 8004468:	4770      	bx	lr

0800446a <LL_USART_SetStopBitsLength>:
 800446a:	b480      	push	{r7}
 800446c:	b083      	sub	sp, #12
 800446e:	af00      	add	r7, sp, #0
 8004470:	6078      	str	r0, [r7, #4]
 8004472:	6039      	str	r1, [r7, #0]
 8004474:	687b      	ldr	r3, [r7, #4]
 8004476:	685b      	ldr	r3, [r3, #4]
 8004478:	f423 5240 	bic.w	r2, r3, #12288	; 0x3000
 800447c:	683b      	ldr	r3, [r7, #0]
 800447e:	431a      	orrs	r2, r3
 8004480:	687b      	ldr	r3, [r7, #4]
 8004482:	605a      	str	r2, [r3, #4]
 8004484:	bf00      	nop
 8004486:	370c      	adds	r7, #12
 8004488:	46bd      	mov	sp, r7
 800448a:	f85d 7b04 	ldr.w	r7, [sp], #4
 800448e:	4770      	bx	lr

08004490 <LL_USART_SetHWFlowCtrl>:
 8004490:	b480      	push	{r7}
 8004492:	b083      	sub	sp, #12
 8004494:	af00      	add	r7, sp, #0
 8004496:	6078      	str	r0, [r7, #4]
 8004498:	6039      	str	r1, [r7, #0]
 800449a:	687b      	ldr	r3, [r7, #4]
 800449c:	689b      	ldr	r3, [r3, #8]
 800449e:	f423 7240 	bic.w	r2, r3, #768	; 0x300
 80044a2:	683b      	ldr	r3, [r7, #0]
 80044a4:	431a      	orrs	r2, r3
 80044a6:	687b      	ldr	r3, [r7, #4]
 80044a8:	609a      	str	r2, [r3, #8]
 80044aa:	bf00      	nop
 80044ac:	370c      	adds	r7, #12
 80044ae:	46bd      	mov	sp, r7
 80044b0:	f85d 7b04 	ldr.w	r7, [sp], #4
 80044b4:	4770      	bx	lr

080044b6 <LL_USART_SetBaudRate>:
 80044b6:	b480      	push	{r7}
 80044b8:	b087      	sub	sp, #28
 80044ba:	af00      	add	r7, sp, #0
 80044bc:	60f8      	str	r0, [r7, #12]
 80044be:	60b9      	str	r1, [r7, #8]
 80044c0:	607a      	str	r2, [r7, #4]
 80044c2:	603b      	str	r3, [r7, #0]
 80044c4:	687b      	ldr	r3, [r7, #4]
 80044c6:	f5b3 4f00 	cmp.w	r3, #32768	; 0x8000
 80044ca:	d11a      	bne.n	8004502 <LL_USART_SetBaudRate+0x4c>
 80044cc:	68bb      	ldr	r3, [r7, #8]
 80044ce:	005a      	lsls	r2, r3, #1
 80044d0:	683b      	ldr	r3, [r7, #0]
 80044d2:	085b      	lsrs	r3, r3, #1
 80044d4:	441a      	add	r2, r3
 80044d6:	683b      	ldr	r3, [r7, #0]
 80044d8:	fbb2 f3f3 	udiv	r3, r2, r3
 80044dc:	b29b      	uxth	r3, r3
 80044de:	617b      	str	r3, [r7, #20]
 80044e0:	697a      	ldr	r2, [r7, #20]
 80044e2:	f64f 73f0 	movw	r3, #65520	; 0xfff0
 80044e6:	4013      	ands	r3, r2
 80044e8:	613b      	str	r3, [r7, #16]
 80044ea:	697b      	ldr	r3, [r7, #20]
 80044ec:	085b      	lsrs	r3, r3, #1
 80044ee:	b29b      	uxth	r3, r3
 80044f0:	f003 0307 	and.w	r3, r3, #7
 80044f4:	693a      	ldr	r2, [r7, #16]
 80044f6:	4313      	orrs	r3, r2
 80044f8:	613b      	str	r3, [r7, #16]
 80044fa:	68fb      	ldr	r3, [r7, #12]
 80044fc:	693a      	ldr	r2, [r7, #16]
 80044fe:	60da      	str	r2, [r3, #12]
 8004500:	e00a      	b.n	8004518 <LL_USART_SetBaudRate+0x62>
 8004502:	683b      	ldr	r3, [r7, #0]
 8004504:	085a      	lsrs	r2, r3, #1
 8004506:	68bb      	ldr	r3, [r7, #8]
 8004508:	441a      	add	r2, r3
 800450a:	683b      	ldr	r3, [r7, #0]
 800450c:	fbb2 f3f3 	udiv	r3, r2, r3
 8004510:	b29b      	uxth	r3, r3
 8004512:	461a      	mov	r2, r3
 8004514:	68fb      	ldr	r3, [r7, #12]
 8004516:	60da      	str	r2, [r3, #12]
 8004518:	bf00      	nop
 800451a:	371c      	adds	r7, #28
 800451c:	46bd      	mov	sp, r7
 800451e:	f85d 7b04 	ldr.w	r7, [sp], #4
 8004522:	4770      	bx	lr

08004524 <LL_USART_Init>:
 8004524:	b580      	push	{r7, lr}
 8004526:	b084      	sub	sp, #16
 8004528:	af00      	add	r7, sp, #0
 800452a:	6078      	str	r0, [r7, #4]
 800452c:	6039      	str	r1, [r7, #0]
 800452e:	2301      	movs	r3, #1
 8004530:	73fb      	strb	r3, [r7, #15]
 8004532:	2300      	movs	r3, #0
 8004534:	60bb      	str	r3, [r7, #8]
 8004536:	6878      	ldr	r0, [r7, #4]
 8004538:	f7ff ff84 	bl	8004444 <LL_USART_IsEnabled>
 800453c:	4603      	mov	r3, r0
 800453e:	2b00      	cmp	r3, #0
 8004540:	d15b      	bne.n	80045fa <LL_USART_Init+0xd6>
 8004542:	687b      	ldr	r3, [r7, #4]
 8004544:	681a      	ldr	r2, [r3, #0]
 8004546:	4b2f      	ldr	r3, [pc, #188]	; (8004604 <LL_USART_Init+0xe0>)
 8004548:	4013      	ands	r3, r2
 800454a:	683a      	ldr	r2, [r7, #0]
 800454c:	6851      	ldr	r1, [r2, #4]
 800454e:	683a      	ldr	r2, [r7, #0]
 8004550:	68d2      	ldr	r2, [r2, #12]
 8004552:	4311      	orrs	r1, r2
 8004554:	683a      	ldr	r2, [r7, #0]
 8004556:	6912      	ldr	r2, [r2, #16]
 8004558:	4311      	orrs	r1, r2
 800455a:	683a      	ldr	r2, [r7, #0]
 800455c:	6992      	ldr	r2, [r2, #24]
 800455e:	430a      	orrs	r2, r1
 8004560:	431a      	orrs	r2, r3
 8004562:	687b      	ldr	r3, [r7, #4]
 8004564:	601a      	str	r2, [r3, #0]
 8004566:	683b      	ldr	r3, [r7, #0]
 8004568:	689b      	ldr	r3, [r3, #8]
 800456a:	4619      	mov	r1, r3
 800456c:	6878      	ldr	r0, [r7, #4]
 800456e:	f7ff ff7c 	bl	800446a <LL_USART_SetStopBitsLength>
 8004572:	683b      	ldr	r3, [r7, #0]
 8004574:	695b      	ldr	r3, [r3, #20]
 8004576:	4619      	mov	r1, r3
 8004578:	6878      	ldr	r0, [r7, #4]
 800457a:	f7ff ff89 	bl	8004490 <LL_USART_SetHWFlowCtrl>
 800457e:	687b      	ldr	r3, [r7, #4]
 8004580:	4a21      	ldr	r2, [pc, #132]	; (8004608 <LL_USART_Init+0xe4>)
 8004582:	4293      	cmp	r3, r2
 8004584:	d104      	bne.n	8004590 <LL_USART_Init+0x6c>
 8004586:	2003      	movs	r0, #3
 8004588:	f7ff f84c 	bl	8003624 <LL_RCC_GetUSARTClockFreq>
 800458c:	60b8      	str	r0, [r7, #8]
 800458e:	e023      	b.n	80045d8 <LL_USART_Init+0xb4>
 8004590:	687b      	ldr	r3, [r7, #4]
 8004592:	4a1e      	ldr	r2, [pc, #120]	; (800460c <LL_USART_Init+0xe8>)
 8004594:	4293      	cmp	r3, r2
 8004596:	d104      	bne.n	80045a2 <LL_USART_Init+0x7e>
 8004598:	200c      	movs	r0, #12
 800459a:	f7ff f843 	bl	8003624 <LL_RCC_GetUSARTClockFreq>
 800459e:	60b8      	str	r0, [r7, #8]
 80045a0:	e01a      	b.n	80045d8 <LL_USART_Init+0xb4>
 80045a2:	687b      	ldr	r3, [r7, #4]
 80045a4:	4a1a      	ldr	r2, [pc, #104]	; (8004610 <LL_USART_Init+0xec>)
 80045a6:	4293      	cmp	r3, r2
 80045a8:	d104      	bne.n	80045b4 <LL_USART_Init+0x90>
 80045aa:	2030      	movs	r0, #48	; 0x30
 80045ac:	f7ff f83a 	bl	8003624 <LL_RCC_GetUSARTClockFreq>
 80045b0:	60b8      	str	r0, [r7, #8]
 80045b2:	e011      	b.n	80045d8 <LL_USART_Init+0xb4>
 80045b4:	687b      	ldr	r3, [r7, #4]
 80045b6:	4a17      	ldr	r2, [pc, #92]	; (8004614 <LL_USART_Init+0xf0>)
 80045b8:	4293      	cmp	r3, r2
 80045ba:	d104      	bne.n	80045c6 <LL_USART_Init+0xa2>
 80045bc:	20c0      	movs	r0, #192	; 0xc0
 80045be:	f7ff f913 	bl	80037e8 <LL_RCC_GetUARTClockFreq>
 80045c2:	60b8      	str	r0, [r7, #8]
 80045c4:	e008      	b.n	80045d8 <LL_USART_Init+0xb4>
 80045c6:	687b      	ldr	r3, [r7, #4]
 80045c8:	4a13      	ldr	r2, [pc, #76]	; (8004618 <LL_USART_Init+0xf4>)
 80045ca:	4293      	cmp	r3, r2
 80045cc:	d104      	bne.n	80045d8 <LL_USART_Init+0xb4>
 80045ce:	f44f 7040 	mov.w	r0, #768	; 0x300
 80045d2:	f7ff f909 	bl	80037e8 <LL_RCC_GetUARTClockFreq>
 80045d6:	60b8      	str	r0, [r7, #8]
 80045d8:	68bb      	ldr	r3, [r7, #8]
 80045da:	2b00      	cmp	r3, #0
 80045dc:	d00d      	beq.n	80045fa <LL_USART_Init+0xd6>
 80045de:	683b      	ldr	r3, [r7, #0]
 80045e0:	681b      	ldr	r3, [r3, #0]
 80045e2:	2b00      	cmp	r3, #0
 80045e4:	d009      	beq.n	80045fa <LL_USART_Init+0xd6>
 80045e6:	2300      	movs	r3, #0
 80045e8:	73fb      	strb	r3, [r7, #15]
 80045ea:	683b      	ldr	r3, [r7, #0]
 80045ec:	699a      	ldr	r2, [r3, #24]
 80045ee:	683b      	ldr	r3, [r7, #0]
 80045f0:	681b      	ldr	r3, [r3, #0]
 80045f2:	68b9      	ldr	r1, [r7, #8]
 80045f4:	6878      	ldr	r0, [r7, #4]
 80045f6:	f7ff ff5e 	bl	80044b6 <LL_USART_SetBaudRate>
 80045fa:	7bfb      	ldrb	r3, [r7, #15]
 80045fc:	4618      	mov	r0, r3
 80045fe:	3710      	adds	r7, #16
 8004600:	46bd      	mov	sp, r7
 8004602:	bd80      	pop	{r7, pc}
 8004604:	efff69f3 	.word	0xefff69f3
 8004608:	40013800 	.word	0x40013800
 800460c:	40004400 	.word	0x40004400
 8004610:	40004800 	.word	0x40004800
 8004614:	40004c00 	.word	0x40004c00
 8004618:	40005000 	.word	0x40005000

0800461c <LL_InitTick>:
 800461c:	b480      	push	{r7}
 800461e:	b083      	sub	sp, #12
 8004620:	af00      	add	r7, sp, #0
 8004622:	6078      	str	r0, [r7, #4]
 8004624:	6039      	str	r1, [r7, #0]
 8004626:	687a      	ldr	r2, [r7, #4]
 8004628:	683b      	ldr	r3, [r7, #0]
 800462a:	fbb2 f3f3 	udiv	r3, r2, r3
 800462e:	4a07      	ldr	r2, [pc, #28]	; (800464c <LL_InitTick+0x30>)
 8004630:	3b01      	subs	r3, #1
 8004632:	6053      	str	r3, [r2, #4]
 8004634:	4b05      	ldr	r3, [pc, #20]	; (800464c <LL_InitTick+0x30>)
 8004636:	2200      	movs	r2, #0
 8004638:	609a      	str	r2, [r3, #8]
 800463a:	4b04      	ldr	r3, [pc, #16]	; (800464c <LL_InitTick+0x30>)
 800463c:	2205      	movs	r2, #5
 800463e:	601a      	str	r2, [r3, #0]
 8004640:	bf00      	nop
 8004642:	370c      	adds	r7, #12
 8004644:	46bd      	mov	sp, r7
 8004646:	f85d 7b04 	ldr.w	r7, [sp], #4
 800464a:	4770      	bx	lr
 800464c:	e000e010 	.word	0xe000e010

08004650 <LL_Init1msTick>:
 8004650:	b580      	push	{r7, lr}
 8004652:	b082      	sub	sp, #8
 8004654:	af00      	add	r7, sp, #0
 8004656:	6078      	str	r0, [r7, #4]
 8004658:	f44f 717a 	mov.w	r1, #1000	; 0x3e8
 800465c:	6878      	ldr	r0, [r7, #4]
 800465e:	f7ff ffdd 	bl	800461c <LL_InitTick>
 8004662:	bf00      	nop
 8004664:	3708      	adds	r7, #8
 8004666:	46bd      	mov	sp, r7
 8004668:	bd80      	pop	{r7, pc}
	...

0800466c <LL_SetSystemCoreClock>:
 800466c:	b480      	push	{r7}
 800466e:	b083      	sub	sp, #12
 8004670:	af00      	add	r7, sp, #0
 8004672:	6078      	str	r0, [r7, #4]
 8004674:	4a04      	ldr	r2, [pc, #16]	; (8004688 <LL_SetSystemCoreClock+0x1c>)
 8004676:	687b      	ldr	r3, [r7, #4]
 8004678:	6013      	str	r3, [r2, #0]
 800467a:	bf00      	nop
 800467c:	370c      	adds	r7, #12
 800467e:	46bd      	mov	sp, r7
 8004680:	f85d 7b04 	ldr.w	r7, [sp], #4
 8004684:	4770      	bx	lr
 8004686:	bf00      	nop
 8004688:	20000000 	.word	0x20000000

0800468c <std>:
 800468c:	2300      	movs	r3, #0
 800468e:	b510      	push	{r4, lr}
 8004690:	4604      	mov	r4, r0
 8004692:	e9c0 3300 	strd	r3, r3, [r0]
 8004696:	e9c0 3304 	strd	r3, r3, [r0, #16]
 800469a:	6083      	str	r3, [r0, #8]
 800469c:	8181      	strh	r1, [r0, #12]
 800469e:	6643      	str	r3, [r0, #100]	; 0x64
 80046a0:	81c2      	strh	r2, [r0, #14]
 80046a2:	6183      	str	r3, [r0, #24]
 80046a4:	4619      	mov	r1, r3
 80046a6:	2208      	movs	r2, #8
 80046a8:	305c      	adds	r0, #92	; 0x5c
 80046aa:	f000 f906 	bl	80048ba <memset>
 80046ae:	4b0d      	ldr	r3, [pc, #52]	; (80046e4 <std+0x58>)
 80046b0:	6263      	str	r3, [r4, #36]	; 0x24
 80046b2:	4b0d      	ldr	r3, [pc, #52]	; (80046e8 <std+0x5c>)
 80046b4:	62a3      	str	r3, [r4, #40]	; 0x28
 80046b6:	4b0d      	ldr	r3, [pc, #52]	; (80046ec <std+0x60>)
 80046b8:	62e3      	str	r3, [r4, #44]	; 0x2c
 80046ba:	4b0d      	ldr	r3, [pc, #52]	; (80046f0 <std+0x64>)
 80046bc:	6323      	str	r3, [r4, #48]	; 0x30
 80046be:	4b0d      	ldr	r3, [pc, #52]	; (80046f4 <std+0x68>)
 80046c0:	6224      	str	r4, [r4, #32]
 80046c2:	429c      	cmp	r4, r3
 80046c4:	d006      	beq.n	80046d4 <std+0x48>
 80046c6:	f103 0268 	add.w	r2, r3, #104	; 0x68
 80046ca:	4294      	cmp	r4, r2
 80046cc:	d002      	beq.n	80046d4 <std+0x48>
 80046ce:	33d0      	adds	r3, #208	; 0xd0
 80046d0:	429c      	cmp	r4, r3
 80046d2:	d105      	bne.n	80046e0 <std+0x54>
 80046d4:	f104 0058 	add.w	r0, r4, #88	; 0x58
 80046d8:	e8bd 4010 	ldmia.w	sp!, {r4, lr}
 80046dc:	f000 b966 	b.w	80049ac <__retarget_lock_init_recursive>
 80046e0:	bd10      	pop	{r4, pc}
 80046e2:	bf00      	nop
 80046e4:	08004835 	.word	0x08004835
 80046e8:	08004857 	.word	0x08004857
 80046ec:	0800488f 	.word	0x0800488f
 80046f0:	080048b3 	.word	0x080048b3
 80046f4:	200000c4 	.word	0x200000c4

080046f8 <stdio_exit_handler>:
 80046f8:	4a02      	ldr	r2, [pc, #8]	; (8004704 <stdio_exit_handler+0xc>)
 80046fa:	4903      	ldr	r1, [pc, #12]	; (8004708 <stdio_exit_handler+0x10>)
 80046fc:	4803      	ldr	r0, [pc, #12]	; (800470c <stdio_exit_handler+0x14>)
 80046fe:	f000 b869 	b.w	80047d4 <_fwalk_sglue>
 8004702:	bf00      	nop
 8004704:	20000004 	.word	0x20000004
 8004708:	08005259 	.word	0x08005259
 800470c:	20000010 	.word	0x20000010

08004710 <cleanup_stdio>:
 8004710:	6841      	ldr	r1, [r0, #4]
 8004712:	4b0c      	ldr	r3, [pc, #48]	; (8004744 <cleanup_stdio+0x34>)
 8004714:	4299      	cmp	r1, r3
 8004716:	b510      	push	{r4, lr}
 8004718:	4604      	mov	r4, r0
 800471a:	d001      	beq.n	8004720 <cleanup_stdio+0x10>
 800471c:	f000 fd9c 	bl	8005258 <_fflush_r>
 8004720:	68a1      	ldr	r1, [r4, #8]
 8004722:	4b09      	ldr	r3, [pc, #36]	; (8004748 <cleanup_stdio+0x38>)
 8004724:	4299      	cmp	r1, r3
 8004726:	d002      	beq.n	800472e <cleanup_stdio+0x1e>
 8004728:	4620      	mov	r0, r4
 800472a:	f000 fd95 	bl	8005258 <_fflush_r>
 800472e:	68e1      	ldr	r1, [r4, #12]
 8004730:	4b06      	ldr	r3, [pc, #24]	; (800474c <cleanup_stdio+0x3c>)
 8004732:	4299      	cmp	r1, r3
 8004734:	d004      	beq.n	8004740 <cleanup_stdio+0x30>
 8004736:	4620      	mov	r0, r4
 8004738:	e8bd 4010 	ldmia.w	sp!, {r4, lr}
 800473c:	f000 bd8c 	b.w	8005258 <_fflush_r>
 8004740:	bd10      	pop	{r4, pc}
 8004742:	bf00      	nop
 8004744:	200000c4 	.word	0x200000c4
 8004748:	2000012c 	.word	0x2000012c
 800474c:	20000194 	.word	0x20000194

08004750 <global_stdio_init.part.0>:
 8004750:	b510      	push	{r4, lr}
 8004752:	4b0b      	ldr	r3, [pc, #44]	; (8004780 <global_stdio_init.part.0+0x30>)
 8004754:	4c0b      	ldr	r4, [pc, #44]	; (8004784 <global_stdio_init.part.0+0x34>)
 8004756:	4a0c      	ldr	r2, [pc, #48]	; (8004788 <global_stdio_init.part.0+0x38>)
 8004758:	601a      	str	r2, [r3, #0]
 800475a:	4620      	mov	r0, r4
 800475c:	2200      	movs	r2, #0
 800475e:	2104      	movs	r1, #4
 8004760:	f7ff ff94 	bl	800468c <std>
 8004764:	f104 0068 	add.w	r0, r4, #104	; 0x68
 8004768:	2201      	movs	r2, #1
 800476a:	2109      	movs	r1, #9
 800476c:	f7ff ff8e 	bl	800468c <std>
 8004770:	f104 00d0 	add.w	r0, r4, #208	; 0xd0
 8004774:	2202      	movs	r2, #2
 8004776:	e8bd 4010 	ldmia.w	sp!, {r4, lr}
 800477a:	2112      	movs	r1, #18
 800477c:	f7ff bf86 	b.w	800468c <std>
 8004780:	200001fc 	.word	0x200001fc
 8004784:	200000c4 	.word	0x200000c4
 8004788:	080046f9 	.word	0x080046f9

0800478c <__sfp_lock_acquire>:
 800478c:	4801      	ldr	r0, [pc, #4]	; (8004794 <__sfp_lock_acquire+0x8>)
 800478e:	f000 b90e 	b.w	80049ae <__retarget_lock_acquire_recursive>
 8004792:	bf00      	nop
 8004794:	20000205 	.word	0x20000205

08004798 <__sfp_lock_release>:
 8004798:	4801      	ldr	r0, [pc, #4]	; (80047a0 <__sfp_lock_release+0x8>)
 800479a:	f000 b909 	b.w	80049b0 <__retarget_lock_release_recursive>
 800479e:	bf00      	nop
 80047a0:	20000205 	.word	0x20000205

080047a4 <__sinit>:
 80047a4:	b510      	push	{r4, lr}
 80047a6:	4604      	mov	r4, r0
 80047a8:	f7ff fff0 	bl	800478c <__sfp_lock_acquire>
 80047ac:	6a23      	ldr	r3, [r4, #32]
 80047ae:	b11b      	cbz	r3, 80047b8 <__sinit+0x14>
 80047b0:	e8bd 4010 	ldmia.w	sp!, {r4, lr}
 80047b4:	f7ff bff0 	b.w	8004798 <__sfp_lock_release>
 80047b8:	4b04      	ldr	r3, [pc, #16]	; (80047cc <__sinit+0x28>)
 80047ba:	6223      	str	r3, [r4, #32]
 80047bc:	4b04      	ldr	r3, [pc, #16]	; (80047d0 <__sinit+0x2c>)
 80047be:	681b      	ldr	r3, [r3, #0]
 80047c0:	2b00      	cmp	r3, #0
 80047c2:	d1f5      	bne.n	80047b0 <__sinit+0xc>
 80047c4:	f7ff ffc4 	bl	8004750 <global_stdio_init.part.0>
 80047c8:	e7f2      	b.n	80047b0 <__sinit+0xc>
 80047ca:	bf00      	nop
 80047cc:	08004711 	.word	0x08004711
 80047d0:	200001fc 	.word	0x200001fc

080047d4 <_fwalk_sglue>:
 80047d4:	e92d 43f8 	stmdb	sp!, {r3, r4, r5, r6, r7, r8, r9, lr}
 80047d8:	4607      	mov	r7, r0
 80047da:	4688      	mov	r8, r1
 80047dc:	4614      	mov	r4, r2
 80047de:	2600      	movs	r6, #0
 80047e0:	e9d4 9501 	ldrd	r9, r5, [r4, #4]
 80047e4:	f1b9 0901 	subs.w	r9, r9, #1
 80047e8:	d505      	bpl.n	80047f6 <_fwalk_sglue+0x22>
 80047ea:	6824      	ldr	r4, [r4, #0]
 80047ec:	2c00      	cmp	r4, #0
 80047ee:	d1f7      	bne.n	80047e0 <_fwalk_sglue+0xc>
 80047f0:	4630      	mov	r0, r6
 80047f2:	e8bd 83f8 	ldmia.w	sp!, {r3, r4, r5, r6, r7, r8, r9, pc}
 80047f6:	89ab      	ldrh	r3, [r5, #12]
 80047f8:	2b01      	cmp	r3, #1
 80047fa:	d907      	bls.n	800480c <_fwalk_sglue+0x38>
 80047fc:	f9b5 300e 	ldrsh.w	r3, [r5, #14]
 8004800:	3301      	adds	r3, #1
 8004802:	d003      	beq.n	800480c <_fwalk_sglue+0x38>
 8004804:	4629      	mov	r1, r5
 8004806:	4638      	mov	r0, r7
 8004808:	47c0      	blx	r8
 800480a:	4306      	orrs	r6, r0
 800480c:	3568      	adds	r5, #104	; 0x68
 800480e:	e7e9      	b.n	80047e4 <_fwalk_sglue+0x10>

08004810 <iprintf>:
 8004810:	b40f      	push	{r0, r1, r2, r3}
 8004812:	b507      	push	{r0, r1, r2, lr}
 8004814:	4906      	ldr	r1, [pc, #24]	; (8004830 <iprintf+0x20>)
 8004816:	ab04      	add	r3, sp, #16
 8004818:	6808      	ldr	r0, [r1, #0]
 800481a:	f853 2b04 	ldr.w	r2, [r3], #4
 800481e:	6881      	ldr	r1, [r0, #8]
 8004820:	9301      	str	r3, [sp, #4]
 8004822:	f000 f9e9 	bl	8004bf8 <_vfiprintf_r>
 8004826:	b003      	add	sp, #12
 8004828:	f85d eb04 	ldr.w	lr, [sp], #4
 800482c:	b004      	add	sp, #16
 800482e:	4770      	bx	lr
 8004830:	2000005c 	.word	0x2000005c

08004834 <__sread>:
 8004834:	b510      	push	{r4, lr}
 8004836:	460c      	mov	r4, r1
 8004838:	f9b1 100e 	ldrsh.w	r1, [r1, #14]
 800483c:	f000 f868 	bl	8004910 <_read_r>
 8004840:	2800      	cmp	r0, #0
 8004842:	bfab      	itete	ge
 8004844:	6d63      	ldrge	r3, [r4, #84]	; 0x54
 8004846:	89a3      	ldrhlt	r3, [r4, #12]
 8004848:	181b      	addge	r3, r3, r0
 800484a:	f423 5380 	biclt.w	r3, r3, #4096	; 0x1000
 800484e:	bfac      	ite	ge
 8004850:	6563      	strge	r3, [r4, #84]	; 0x54
 8004852:	81a3      	strhlt	r3, [r4, #12]
 8004854:	bd10      	pop	{r4, pc}

08004856 <__swrite>:
 8004856:	e92d 41f0 	stmdb	sp!, {r4, r5, r6, r7, r8, lr}
 800485a:	461f      	mov	r7, r3
 800485c:	898b      	ldrh	r3, [r1, #12]
 800485e:	05db      	lsls	r3, r3, #23
 8004860:	4605      	mov	r5, r0
 8004862:	460c      	mov	r4, r1
 8004864:	4616      	mov	r6, r2
 8004866:	d505      	bpl.n	8004874 <__swrite+0x1e>
 8004868:	f9b1 100e 	ldrsh.w	r1, [r1, #14]
 800486c:	2302      	movs	r3, #2
 800486e:	2200      	movs	r2, #0
 8004870:	f000 f83c 	bl	80048ec <_lseek_r>
 8004874:	89a3      	ldrh	r3, [r4, #12]
 8004876:	f9b4 100e 	ldrsh.w	r1, [r4, #14]
 800487a:	f423 5380 	bic.w	r3, r3, #4096	; 0x1000
 800487e:	81a3      	strh	r3, [r4, #12]
 8004880:	4632      	mov	r2, r6
 8004882:	463b      	mov	r3, r7
 8004884:	4628      	mov	r0, r5
 8004886:	e8bd 41f0 	ldmia.w	sp!, {r4, r5, r6, r7, r8, lr}
 800488a:	f000 b853 	b.w	8004934 <_write_r>

0800488e <__sseek>:
 800488e:	b510      	push	{r4, lr}
 8004890:	460c      	mov	r4, r1
 8004892:	f9b1 100e 	ldrsh.w	r1, [r1, #14]
 8004896:	f000 f829 	bl	80048ec <_lseek_r>
 800489a:	1c43      	adds	r3, r0, #1
 800489c:	89a3      	ldrh	r3, [r4, #12]
 800489e:	bf15      	itete	ne
 80048a0:	6560      	strne	r0, [r4, #84]	; 0x54
 80048a2:	f423 5380 	biceq.w	r3, r3, #4096	; 0x1000
 80048a6:	f443 5380 	orrne.w	r3, r3, #4096	; 0x1000
 80048aa:	81a3      	strheq	r3, [r4, #12]
 80048ac:	bf18      	it	ne
 80048ae:	81a3      	strhne	r3, [r4, #12]
 80048b0:	bd10      	pop	{r4, pc}

080048b2 <__sclose>:
 80048b2:	f9b1 100e 	ldrsh.w	r1, [r1, #14]
 80048b6:	f000 b809 	b.w	80048cc <_close_r>

080048ba <memset>:
 80048ba:	4402      	add	r2, r0
 80048bc:	4603      	mov	r3, r0
 80048be:	4293      	cmp	r3, r2
 80048c0:	d100      	bne.n	80048c4 <memset+0xa>
 80048c2:	4770      	bx	lr
 80048c4:	f803 1b01 	strb.w	r1, [r3], #1
 80048c8:	e7f9      	b.n	80048be <memset+0x4>
	...

080048cc <_close_r>:
 80048cc:	b538      	push	{r3, r4, r5, lr}
 80048ce:	4d06      	ldr	r5, [pc, #24]	; (80048e8 <_close_r+0x1c>)
 80048d0:	2300      	movs	r3, #0
 80048d2:	4604      	mov	r4, r0
 80048d4:	4608      	mov	r0, r1
 80048d6:	602b      	str	r3, [r5, #0]
 80048d8:	f7fe f97b 	bl	8002bd2 <_close>
 80048dc:	1c43      	adds	r3, r0, #1
 80048de:	d102      	bne.n	80048e6 <_close_r+0x1a>
 80048e0:	682b      	ldr	r3, [r5, #0]
 80048e2:	b103      	cbz	r3, 80048e6 <_close_r+0x1a>
 80048e4:	6023      	str	r3, [r4, #0]
 80048e6:	bd38      	pop	{r3, r4, r5, pc}
 80048e8:	20000200 	.word	0x20000200

080048ec <_lseek_r>:
 80048ec:	b538      	push	{r3, r4, r5, lr}
 80048ee:	4d07      	ldr	r5, [pc, #28]	; (800490c <_lseek_r+0x20>)
 80048f0:	4604      	mov	r4, r0
 80048f2:	4608      	mov	r0, r1
 80048f4:	4611      	mov	r1, r2
 80048f6:	2200      	movs	r2, #0
 80048f8:	602a      	str	r2, [r5, #0]
 80048fa:	461a      	mov	r2, r3
 80048fc:	f7fe f990 	bl	8002c20 <_lseek>
 8004900:	1c43      	adds	r3, r0, #1
 8004902:	d102      	bne.n	800490a <_lseek_r+0x1e>
 8004904:	682b      	ldr	r3, [r5, #0]
 8004906:	b103      	cbz	r3, 800490a <_lseek_r+0x1e>
 8004908:	6023      	str	r3, [r4, #0]
 800490a:	bd38      	pop	{r3, r4, r5, pc}
 800490c:	20000200 	.word	0x20000200

08004910 <_read_r>:
 8004910:	b538      	push	{r3, r4, r5, lr}
 8004912:	4d07      	ldr	r5, [pc, #28]	; (8004930 <_read_r+0x20>)
 8004914:	4604      	mov	r4, r0
 8004916:	4608      	mov	r0, r1
 8004918:	4611      	mov	r1, r2
 800491a:	2200      	movs	r2, #0
 800491c:	602a      	str	r2, [r5, #0]
 800491e:	461a      	mov	r2, r3
 8004920:	f7fe f93a 	bl	8002b98 <_read>
 8004924:	1c43      	adds	r3, r0, #1
 8004926:	d102      	bne.n	800492e <_read_r+0x1e>
 8004928:	682b      	ldr	r3, [r5, #0]
 800492a:	b103      	cbz	r3, 800492e <_read_r+0x1e>
 800492c:	6023      	str	r3, [r4, #0]
 800492e:	bd38      	pop	{r3, r4, r5, pc}
 8004930:	20000200 	.word	0x20000200

08004934 <_write_r>:
 8004934:	b538      	push	{r3, r4, r5, lr}
 8004936:	4d07      	ldr	r5, [pc, #28]	; (8004954 <_write_r+0x20>)
 8004938:	4604      	mov	r4, r0
 800493a:	4608      	mov	r0, r1
 800493c:	4611      	mov	r1, r2
 800493e:	2200      	movs	r2, #0
 8004940:	602a      	str	r2, [r5, #0]
 8004942:	461a      	mov	r2, r3
 8004944:	f7fc faf4 	bl	8000f30 <_write>
 8004948:	1c43      	adds	r3, r0, #1
 800494a:	d102      	bne.n	8004952 <_write_r+0x1e>
 800494c:	682b      	ldr	r3, [r5, #0]
 800494e:	b103      	cbz	r3, 8004952 <_write_r+0x1e>
 8004950:	6023      	str	r3, [r4, #0]
 8004952:	bd38      	pop	{r3, r4, r5, pc}
 8004954:	20000200 	.word	0x20000200

08004958 <__errno>:
 8004958:	4b01      	ldr	r3, [pc, #4]	; (8004960 <__errno+0x8>)
 800495a:	6818      	ldr	r0, [r3, #0]
 800495c:	4770      	bx	lr
 800495e:	bf00      	nop
 8004960:	2000005c 	.word	0x2000005c

08004964 <__libc_init_array>:
 8004964:	b570      	push	{r4, r5, r6, lr}
 8004966:	4d0d      	ldr	r5, [pc, #52]	; (800499c <__libc_init_array+0x38>)
 8004968:	4c0d      	ldr	r4, [pc, #52]	; (80049a0 <__libc_init_array+0x3c>)
 800496a:	1b64      	subs	r4, r4, r5
 800496c:	10a4      	asrs	r4, r4, #2
 800496e:	2600      	movs	r6, #0
 8004970:	42a6      	cmp	r6, r4
 8004972:	d109      	bne.n	8004988 <__libc_init_array+0x24>
 8004974:	4d0b      	ldr	r5, [pc, #44]	; (80049a4 <__libc_init_array+0x40>)
 8004976:	4c0c      	ldr	r4, [pc, #48]	; (80049a8 <__libc_init_array+0x44>)
 8004978:	f001 fe62 	bl	8006640 <_init>
 800497c:	1b64      	subs	r4, r4, r5
 800497e:	10a4      	asrs	r4, r4, #2
 8004980:	2600      	movs	r6, #0
 8004982:	42a6      	cmp	r6, r4
 8004984:	d105      	bne.n	8004992 <__libc_init_array+0x2e>
 8004986:	bd70      	pop	{r4, r5, r6, pc}
 8004988:	f855 3b04 	ldr.w	r3, [r5], #4
 800498c:	4798      	blx	r3
 800498e:	3601      	adds	r6, #1
 8004990:	e7ee      	b.n	8004970 <__libc_init_array+0xc>
 8004992:	f855 3b04 	ldr.w	r3, [r5], #4
 8004996:	4798      	blx	r3
 8004998:	3601      	adds	r6, #1
 800499a:	e7f2      	b.n	8004982 <__libc_init_array+0x1e>
 800499c:	080068f0 	.word	0x080068f0
 80049a0:	080068f0 	.word	0x080068f0
 80049a4:	080068f0 	.word	0x080068f0
 80049a8:	080068f4 	.word	0x080068f4

080049ac <__retarget_lock_init_recursive>:
 80049ac:	4770      	bx	lr

080049ae <__retarget_lock_acquire_recursive>:
 80049ae:	4770      	bx	lr

080049b0 <__retarget_lock_release_recursive>:
 80049b0:	4770      	bx	lr
	...

080049b4 <_free_r>:
 80049b4:	b537      	push	{r0, r1, r2, r4, r5, lr}
 80049b6:	2900      	cmp	r1, #0
 80049b8:	d044      	beq.n	8004a44 <_free_r+0x90>
 80049ba:	f851 3c04 	ldr.w	r3, [r1, #-4]
 80049be:	9001      	str	r0, [sp, #4]
 80049c0:	2b00      	cmp	r3, #0
 80049c2:	f1a1 0404 	sub.w	r4, r1, #4
 80049c6:	bfb8      	it	lt
 80049c8:	18e4      	addlt	r4, r4, r3
 80049ca:	f000 f8df 	bl	8004b8c <__malloc_lock>
 80049ce:	4a1e      	ldr	r2, [pc, #120]	; (8004a48 <_free_r+0x94>)
 80049d0:	9801      	ldr	r0, [sp, #4]
 80049d2:	6813      	ldr	r3, [r2, #0]
 80049d4:	b933      	cbnz	r3, 80049e4 <_free_r+0x30>
 80049d6:	6063      	str	r3, [r4, #4]
 80049d8:	6014      	str	r4, [r2, #0]
 80049da:	b003      	add	sp, #12
 80049dc:	e8bd 4030 	ldmia.w	sp!, {r4, r5, lr}
 80049e0:	f000 b8da 	b.w	8004b98 <__malloc_unlock>
 80049e4:	42a3      	cmp	r3, r4
 80049e6:	d908      	bls.n	80049fa <_free_r+0x46>
 80049e8:	6825      	ldr	r5, [r4, #0]
 80049ea:	1961      	adds	r1, r4, r5
 80049ec:	428b      	cmp	r3, r1
 80049ee:	bf01      	itttt	eq
 80049f0:	6819      	ldreq	r1, [r3, #0]
 80049f2:	685b      	ldreq	r3, [r3, #4]
 80049f4:	1949      	addeq	r1, r1, r5
 80049f6:	6021      	streq	r1, [r4, #0]
 80049f8:	e7ed      	b.n	80049d6 <_free_r+0x22>
 80049fa:	461a      	mov	r2, r3
 80049fc:	685b      	ldr	r3, [r3, #4]
 80049fe:	b10b      	cbz	r3, 8004a04 <_free_r+0x50>
 8004a00:	42a3      	cmp	r3, r4
 8004a02:	d9fa      	bls.n	80049fa <_free_r+0x46>
 8004a04:	6811      	ldr	r1, [r2, #0]
 8004a06:	1855      	adds	r5, r2, r1
 8004a08:	42a5      	cmp	r5, r4
 8004a0a:	d10b      	bne.n	8004a24 <_free_r+0x70>
 8004a0c:	6824      	ldr	r4, [r4, #0]
 8004a0e:	4421      	add	r1, r4
 8004a10:	1854      	adds	r4, r2, r1
 8004a12:	42a3      	cmp	r3, r4
 8004a14:	6011      	str	r1, [r2, #0]
 8004a16:	d1e0      	bne.n	80049da <_free_r+0x26>
 8004a18:	681c      	ldr	r4, [r3, #0]
 8004a1a:	685b      	ldr	r3, [r3, #4]
 8004a1c:	6053      	str	r3, [r2, #4]
 8004a1e:	440c      	add	r4, r1
 8004a20:	6014      	str	r4, [r2, #0]
 8004a22:	e7da      	b.n	80049da <_free_r+0x26>
 8004a24:	d902      	bls.n	8004a2c <_free_r+0x78>
 8004a26:	230c      	movs	r3, #12
 8004a28:	6003      	str	r3, [r0, #0]
 8004a2a:	e7d6      	b.n	80049da <_free_r+0x26>
 8004a2c:	6825      	ldr	r5, [r4, #0]
 8004a2e:	1961      	adds	r1, r4, r5
 8004a30:	428b      	cmp	r3, r1
 8004a32:	bf04      	itt	eq
 8004a34:	6819      	ldreq	r1, [r3, #0]
 8004a36:	685b      	ldreq	r3, [r3, #4]
 8004a38:	6063      	str	r3, [r4, #4]
 8004a3a:	bf04      	itt	eq
 8004a3c:	1949      	addeq	r1, r1, r5
 8004a3e:	6021      	streq	r1, [r4, #0]
 8004a40:	6054      	str	r4, [r2, #4]
 8004a42:	e7ca      	b.n	80049da <_free_r+0x26>
 8004a44:	b003      	add	sp, #12
 8004a46:	bd30      	pop	{r4, r5, pc}
 8004a48:	20000208 	.word	0x20000208

08004a4c <sbrk_aligned>:
 8004a4c:	b570      	push	{r4, r5, r6, lr}
 8004a4e:	4e0e      	ldr	r6, [pc, #56]	; (8004a88 <sbrk_aligned+0x3c>)
 8004a50:	460c      	mov	r4, r1
 8004a52:	6831      	ldr	r1, [r6, #0]
 8004a54:	4605      	mov	r5, r0
 8004a56:	b911      	cbnz	r1, 8004a5e <sbrk_aligned+0x12>
 8004a58:	f000 fcbc 	bl	80053d4 <_sbrk_r>
 8004a5c:	6030      	str	r0, [r6, #0]
 8004a5e:	4621      	mov	r1, r4
 8004a60:	4628      	mov	r0, r5
 8004a62:	f000 fcb7 	bl	80053d4 <_sbrk_r>
 8004a66:	1c43      	adds	r3, r0, #1
 8004a68:	d00a      	beq.n	8004a80 <sbrk_aligned+0x34>
 8004a6a:	1cc4      	adds	r4, r0, #3
 8004a6c:	f024 0403 	bic.w	r4, r4, #3
 8004a70:	42a0      	cmp	r0, r4
 8004a72:	d007      	beq.n	8004a84 <sbrk_aligned+0x38>
 8004a74:	1a21      	subs	r1, r4, r0
 8004a76:	4628      	mov	r0, r5
 8004a78:	f000 fcac 	bl	80053d4 <_sbrk_r>
 8004a7c:	3001      	adds	r0, #1
 8004a7e:	d101      	bne.n	8004a84 <sbrk_aligned+0x38>
 8004a80:	f04f 34ff 	mov.w	r4, #4294967295
 8004a84:	4620      	mov	r0, r4
 8004a86:	bd70      	pop	{r4, r5, r6, pc}
 8004a88:	2000020c 	.word	0x2000020c

08004a8c <_malloc_r>:
 8004a8c:	e92d 43f8 	stmdb	sp!, {r3, r4, r5, r6, r7, r8, r9, lr}
 8004a90:	1ccd      	adds	r5, r1, #3
 8004a92:	f025 0503 	bic.w	r5, r5, #3
 8004a96:	3508      	adds	r5, #8
 8004a98:	2d0c      	cmp	r5, #12
 8004a9a:	bf38      	it	cc
 8004a9c:	250c      	movcc	r5, #12
 8004a9e:	2d00      	cmp	r5, #0
 8004aa0:	4607      	mov	r7, r0
 8004aa2:	db01      	blt.n	8004aa8 <_malloc_r+0x1c>
 8004aa4:	42a9      	cmp	r1, r5
 8004aa6:	d905      	bls.n	8004ab4 <_malloc_r+0x28>
 8004aa8:	230c      	movs	r3, #12
 8004aaa:	603b      	str	r3, [r7, #0]
 8004aac:	2600      	movs	r6, #0
 8004aae:	4630      	mov	r0, r6
 8004ab0:	e8bd 83f8 	ldmia.w	sp!, {r3, r4, r5, r6, r7, r8, r9, pc}
 8004ab4:	f8df 80d0 	ldr.w	r8, [pc, #208]	; 8004b88 <_malloc_r+0xfc>
 8004ab8:	f000 f868 	bl	8004b8c <__malloc_lock>
 8004abc:	f8d8 3000 	ldr.w	r3, [r8]
 8004ac0:	461c      	mov	r4, r3
 8004ac2:	bb5c      	cbnz	r4, 8004b1c <_malloc_r+0x90>
 8004ac4:	4629      	mov	r1, r5
 8004ac6:	4638      	mov	r0, r7
 8004ac8:	f7ff ffc0 	bl	8004a4c <sbrk_aligned>
 8004acc:	1c43      	adds	r3, r0, #1
 8004ace:	4604      	mov	r4, r0
 8004ad0:	d155      	bne.n	8004b7e <_malloc_r+0xf2>
 8004ad2:	f8d8 4000 	ldr.w	r4, [r8]
 8004ad6:	4626      	mov	r6, r4
 8004ad8:	2e00      	cmp	r6, #0
 8004ada:	d145      	bne.n	8004b68 <_malloc_r+0xdc>
 8004adc:	2c00      	cmp	r4, #0
 8004ade:	d048      	beq.n	8004b72 <_malloc_r+0xe6>
 8004ae0:	6823      	ldr	r3, [r4, #0]
 8004ae2:	4631      	mov	r1, r6
 8004ae4:	4638      	mov	r0, r7
 8004ae6:	eb04 0903 	add.w	r9, r4, r3
 8004aea:	f000 fc73 	bl	80053d4 <_sbrk_r>
 8004aee:	4581      	cmp	r9, r0
 8004af0:	d13f      	bne.n	8004b72 <_malloc_r+0xe6>
 8004af2:	6821      	ldr	r1, [r4, #0]
 8004af4:	1a6d      	subs	r5, r5, r1
 8004af6:	4629      	mov	r1, r5
 8004af8:	4638      	mov	r0, r7
 8004afa:	f7ff ffa7 	bl	8004a4c <sbrk_aligned>
 8004afe:	3001      	adds	r0, #1
 8004b00:	d037      	beq.n	8004b72 <_malloc_r+0xe6>
 8004b02:	6823      	ldr	r3, [r4, #0]
 8004b04:	442b      	add	r3, r5
 8004b06:	6023      	str	r3, [r4, #0]
 8004b08:	f8d8 3000 	ldr.w	r3, [r8]
 8004b0c:	2b00      	cmp	r3, #0
 8004b0e:	d038      	beq.n	8004b82 <_malloc_r+0xf6>
 8004b10:	685a      	ldr	r2, [r3, #4]
 8004b12:	42a2      	cmp	r2, r4
 8004b14:	d12b      	bne.n	8004b6e <_malloc_r+0xe2>
 8004b16:	2200      	movs	r2, #0
 8004b18:	605a      	str	r2, [r3, #4]
 8004b1a:	e00f      	b.n	8004b3c <_malloc_r+0xb0>
 8004b1c:	6822      	ldr	r2, [r4, #0]
 8004b1e:	1b52      	subs	r2, r2, r5
 8004b20:	d41f      	bmi.n	8004b62 <_malloc_r+0xd6>
 8004b22:	2a0b      	cmp	r2, #11
 8004b24:	d917      	bls.n	8004b56 <_malloc_r+0xca>
 8004b26:	1961      	adds	r1, r4, r5
 8004b28:	42a3      	cmp	r3, r4
 8004b2a:	6025      	str	r5, [r4, #0]
 8004b2c:	bf18      	it	ne
 8004b2e:	6059      	strne	r1, [r3, #4]
 8004b30:	6863      	ldr	r3, [r4, #4]
 8004b32:	bf08      	it	eq
 8004b34:	f8c8 1000 	streq.w	r1, [r8]
 8004b38:	5162      	str	r2, [r4, r5]
 8004b3a:	604b      	str	r3, [r1, #4]
 8004b3c:	4638      	mov	r0, r7
 8004b3e:	f104 060b 	add.w	r6, r4, #11
 8004b42:	f000 f829 	bl	8004b98 <__malloc_unlock>
 8004b46:	f026 0607 	bic.w	r6, r6, #7
 8004b4a:	1d23      	adds	r3, r4, #4
 8004b4c:	1af2      	subs	r2, r6, r3
 8004b4e:	d0ae      	beq.n	8004aae <_malloc_r+0x22>
 8004b50:	1b9b      	subs	r3, r3, r6
 8004b52:	50a3      	str	r3, [r4, r2]
 8004b54:	e7ab      	b.n	8004aae <_malloc_r+0x22>
 8004b56:	42a3      	cmp	r3, r4
 8004b58:	6862      	ldr	r2, [r4, #4]
 8004b5a:	d1dd      	bne.n	8004b18 <_malloc_r+0x8c>
 8004b5c:	f8c8 2000 	str.w	r2, [r8]
 8004b60:	e7ec      	b.n	8004b3c <_malloc_r+0xb0>
 8004b62:	4623      	mov	r3, r4
 8004b64:	6864      	ldr	r4, [r4, #4]
 8004b66:	e7ac      	b.n	8004ac2 <_malloc_r+0x36>
 8004b68:	4634      	mov	r4, r6
 8004b6a:	6876      	ldr	r6, [r6, #4]
 8004b6c:	e7b4      	b.n	8004ad8 <_malloc_r+0x4c>
 8004b6e:	4613      	mov	r3, r2
 8004b70:	e7cc      	b.n	8004b0c <_malloc_r+0x80>
 8004b72:	230c      	movs	r3, #12
 8004b74:	603b      	str	r3, [r7, #0]
 8004b76:	4638      	mov	r0, r7
 8004b78:	f000 f80e 	bl	8004b98 <__malloc_unlock>
 8004b7c:	e797      	b.n	8004aae <_malloc_r+0x22>
 8004b7e:	6025      	str	r5, [r4, #0]
 8004b80:	e7dc      	b.n	8004b3c <_malloc_r+0xb0>
 8004b82:	605b      	str	r3, [r3, #4]
 8004b84:	deff      	udf	#255	; 0xff
 8004b86:	bf00      	nop
 8004b88:	20000208 	.word	0x20000208

08004b8c <__malloc_lock>:
 8004b8c:	4801      	ldr	r0, [pc, #4]	; (8004b94 <__malloc_lock+0x8>)
 8004b8e:	f7ff bf0e 	b.w	80049ae <__retarget_lock_acquire_recursive>
 8004b92:	bf00      	nop
 8004b94:	20000204 	.word	0x20000204

08004b98 <__malloc_unlock>:
 8004b98:	4801      	ldr	r0, [pc, #4]	; (8004ba0 <__malloc_unlock+0x8>)
 8004b9a:	f7ff bf09 	b.w	80049b0 <__retarget_lock_release_recursive>
 8004b9e:	bf00      	nop
 8004ba0:	20000204 	.word	0x20000204

08004ba4 <__sfputc_r>:
 8004ba4:	6893      	ldr	r3, [r2, #8]
 8004ba6:	3b01      	subs	r3, #1
 8004ba8:	2b00      	cmp	r3, #0
 8004baa:	b410      	push	{r4}
 8004bac:	6093      	str	r3, [r2, #8]
 8004bae:	da08      	bge.n	8004bc2 <__sfputc_r+0x1e>
 8004bb0:	6994      	ldr	r4, [r2, #24]
 8004bb2:	42a3      	cmp	r3, r4
 8004bb4:	db01      	blt.n	8004bba <__sfputc_r+0x16>
 8004bb6:	290a      	cmp	r1, #10
 8004bb8:	d103      	bne.n	8004bc2 <__sfputc_r+0x1e>
 8004bba:	f85d 4b04 	ldr.w	r4, [sp], #4
 8004bbe:	f000 bb73 	b.w	80052a8 <__swbuf_r>
 8004bc2:	6813      	ldr	r3, [r2, #0]
 8004bc4:	1c58      	adds	r0, r3, #1
 8004bc6:	6010      	str	r0, [r2, #0]
 8004bc8:	7019      	strb	r1, [r3, #0]
 8004bca:	4608      	mov	r0, r1
 8004bcc:	f85d 4b04 	ldr.w	r4, [sp], #4
 8004bd0:	4770      	bx	lr

08004bd2 <__sfputs_r>:
 8004bd2:	b5f8      	push	{r3, r4, r5, r6, r7, lr}
 8004bd4:	4606      	mov	r6, r0
 8004bd6:	460f      	mov	r7, r1
 8004bd8:	4614      	mov	r4, r2
 8004bda:	18d5      	adds	r5, r2, r3
 8004bdc:	42ac      	cmp	r4, r5
 8004bde:	d101      	bne.n	8004be4 <__sfputs_r+0x12>
 8004be0:	2000      	movs	r0, #0
 8004be2:	e007      	b.n	8004bf4 <__sfputs_r+0x22>
 8004be4:	f814 1b01 	ldrb.w	r1, [r4], #1
 8004be8:	463a      	mov	r2, r7
 8004bea:	4630      	mov	r0, r6
 8004bec:	f7ff ffda 	bl	8004ba4 <__sfputc_r>
 8004bf0:	1c43      	adds	r3, r0, #1
 8004bf2:	d1f3      	bne.n	8004bdc <__sfputs_r+0xa>
 8004bf4:	bdf8      	pop	{r3, r4, r5, r6, r7, pc}
	...

08004bf8 <_vfiprintf_r>:
 8004bf8:	e92d 4ff0 	stmdb	sp!, {r4, r5, r6, r7, r8, r9, sl, fp, lr}
 8004bfc:	460d      	mov	r5, r1
 8004bfe:	b09d      	sub	sp, #116	; 0x74
 8004c00:	4614      	mov	r4, r2
 8004c02:	4698      	mov	r8, r3
 8004c04:	4606      	mov	r6, r0
 8004c06:	b118      	cbz	r0, 8004c10 <_vfiprintf_r+0x18>
 8004c08:	6a03      	ldr	r3, [r0, #32]
 8004c0a:	b90b      	cbnz	r3, 8004c10 <_vfiprintf_r+0x18>
 8004c0c:	f7ff fdca 	bl	80047a4 <__sinit>
 8004c10:	6e6b      	ldr	r3, [r5, #100]	; 0x64
 8004c12:	07d9      	lsls	r1, r3, #31
 8004c14:	d405      	bmi.n	8004c22 <_vfiprintf_r+0x2a>
 8004c16:	89ab      	ldrh	r3, [r5, #12]
 8004c18:	059a      	lsls	r2, r3, #22
 8004c1a:	d402      	bmi.n	8004c22 <_vfiprintf_r+0x2a>
 8004c1c:	6da8      	ldr	r0, [r5, #88]	; 0x58
 8004c1e:	f7ff fec6 	bl	80049ae <__retarget_lock_acquire_recursive>
 8004c22:	89ab      	ldrh	r3, [r5, #12]
 8004c24:	071b      	lsls	r3, r3, #28
 8004c26:	d501      	bpl.n	8004c2c <_vfiprintf_r+0x34>
 8004c28:	692b      	ldr	r3, [r5, #16]
 8004c2a:	b99b      	cbnz	r3, 8004c54 <_vfiprintf_r+0x5c>
 8004c2c:	4629      	mov	r1, r5
 8004c2e:	4630      	mov	r0, r6
 8004c30:	f000 fb78 	bl	8005324 <__swsetup_r>
 8004c34:	b170      	cbz	r0, 8004c54 <_vfiprintf_r+0x5c>
 8004c36:	6e6b      	ldr	r3, [r5, #100]	; 0x64
 8004c38:	07dc      	lsls	r4, r3, #31
 8004c3a:	d504      	bpl.n	8004c46 <_vfiprintf_r+0x4e>
 8004c3c:	f04f 30ff 	mov.w	r0, #4294967295
 8004c40:	b01d      	add	sp, #116	; 0x74
 8004c42:	e8bd 8ff0 	ldmia.w	sp!, {r4, r5, r6, r7, r8, r9, sl, fp, pc}
 8004c46:	89ab      	ldrh	r3, [r5, #12]
 8004c48:	0598      	lsls	r0, r3, #22
 8004c4a:	d4f7      	bmi.n	8004c3c <_vfiprintf_r+0x44>
 8004c4c:	6da8      	ldr	r0, [r5, #88]	; 0x58
 8004c4e:	f7ff feaf 	bl	80049b0 <__retarget_lock_release_recursive>
 8004c52:	e7f3      	b.n	8004c3c <_vfiprintf_r+0x44>
 8004c54:	2300      	movs	r3, #0
 8004c56:	9309      	str	r3, [sp, #36]	; 0x24
 8004c58:	2320      	movs	r3, #32
 8004c5a:	f88d 3029 	strb.w	r3, [sp, #41]	; 0x29
 8004c5e:	f8cd 800c 	str.w	r8, [sp, #12]
 8004c62:	2330      	movs	r3, #48	; 0x30
 8004c64:	f8df 81b0 	ldr.w	r8, [pc, #432]	; 8004e18 <_vfiprintf_r+0x220>
 8004c68:	f88d 302a 	strb.w	r3, [sp, #42]	; 0x2a
 8004c6c:	f04f 0901 	mov.w	r9, #1
 8004c70:	4623      	mov	r3, r4
 8004c72:	469a      	mov	sl, r3
 8004c74:	f813 2b01 	ldrb.w	r2, [r3], #1
 8004c78:	b10a      	cbz	r2, 8004c7e <_vfiprintf_r+0x86>
 8004c7a:	2a25      	cmp	r2, #37	; 0x25
 8004c7c:	d1f9      	bne.n	8004c72 <_vfiprintf_r+0x7a>
 8004c7e:	ebba 0b04 	subs.w	fp, sl, r4
 8004c82:	d00b      	beq.n	8004c9c <_vfiprintf_r+0xa4>
 8004c84:	465b      	mov	r3, fp
 8004c86:	4622      	mov	r2, r4
 8004c88:	4629      	mov	r1, r5
 8004c8a:	4630      	mov	r0, r6
 8004c8c:	f7ff ffa1 	bl	8004bd2 <__sfputs_r>
 8004c90:	3001      	adds	r0, #1
 8004c92:	f000 80a9 	beq.w	8004de8 <_vfiprintf_r+0x1f0>
 8004c96:	9a09      	ldr	r2, [sp, #36]	; 0x24
 8004c98:	445a      	add	r2, fp
 8004c9a:	9209      	str	r2, [sp, #36]	; 0x24
 8004c9c:	f89a 3000 	ldrb.w	r3, [sl]
 8004ca0:	2b00      	cmp	r3, #0
 8004ca2:	f000 80a1 	beq.w	8004de8 <_vfiprintf_r+0x1f0>
 8004ca6:	2300      	movs	r3, #0
 8004ca8:	f04f 32ff 	mov.w	r2, #4294967295
 8004cac:	e9cd 2305 	strd	r2, r3, [sp, #20]
 8004cb0:	f10a 0a01 	add.w	sl, sl, #1
 8004cb4:	9304      	str	r3, [sp, #16]
 8004cb6:	9307      	str	r3, [sp, #28]
 8004cb8:	f88d 3053 	strb.w	r3, [sp, #83]	; 0x53
 8004cbc:	931a      	str	r3, [sp, #104]	; 0x68
 8004cbe:	4654      	mov	r4, sl
 8004cc0:	2205      	movs	r2, #5
 8004cc2:	f814 1b01 	ldrb.w	r1, [r4], #1
 8004cc6:	4854      	ldr	r0, [pc, #336]	; (8004e18 <_vfiprintf_r+0x220>)
 8004cc8:	f7fb fa82 	bl	80001d0 <memchr>
 8004ccc:	9a04      	ldr	r2, [sp, #16]
 8004cce:	b9d8      	cbnz	r0, 8004d08 <_vfiprintf_r+0x110>
 8004cd0:	06d1      	lsls	r1, r2, #27
 8004cd2:	bf44      	itt	mi
 8004cd4:	2320      	movmi	r3, #32
 8004cd6:	f88d 3053 	strbmi.w	r3, [sp, #83]	; 0x53
 8004cda:	0713      	lsls	r3, r2, #28
 8004cdc:	bf44      	itt	mi
 8004cde:	232b      	movmi	r3, #43	; 0x2b
 8004ce0:	f88d 3053 	strbmi.w	r3, [sp, #83]	; 0x53
 8004ce4:	f89a 3000 	ldrb.w	r3, [sl]
 8004ce8:	2b2a      	cmp	r3, #42	; 0x2a
 8004cea:	d015      	beq.n	8004d18 <_vfiprintf_r+0x120>
 8004cec:	9a07      	ldr	r2, [sp, #28]
 8004cee:	4654      	mov	r4, sl
 8004cf0:	2000      	movs	r0, #0
 8004cf2:	f04f 0c0a 	mov.w	ip, #10
 8004cf6:	4621      	mov	r1, r4
 8004cf8:	f811 3b01 	ldrb.w	r3, [r1], #1
 8004cfc:	3b30      	subs	r3, #48	; 0x30
 8004cfe:	2b09      	cmp	r3, #9
 8004d00:	d94d      	bls.n	8004d9e <_vfiprintf_r+0x1a6>
 8004d02:	b1b0      	cbz	r0, 8004d32 <_vfiprintf_r+0x13a>
 8004d04:	9207      	str	r2, [sp, #28]
 8004d06:	e014      	b.n	8004d32 <_vfiprintf_r+0x13a>
 8004d08:	eba0 0308 	sub.w	r3, r0, r8
 8004d0c:	fa09 f303 	lsl.w	r3, r9, r3
 8004d10:	4313      	orrs	r3, r2
 8004d12:	9304      	str	r3, [sp, #16]
 8004d14:	46a2      	mov	sl, r4
 8004d16:	e7d2      	b.n	8004cbe <_vfiprintf_r+0xc6>
 8004d18:	9b03      	ldr	r3, [sp, #12]
 8004d1a:	1d19      	adds	r1, r3, #4
 8004d1c:	681b      	ldr	r3, [r3, #0]
 8004d1e:	9103      	str	r1, [sp, #12]
 8004d20:	2b00      	cmp	r3, #0
 8004d22:	bfbb      	ittet	lt
 8004d24:	425b      	neglt	r3, r3
 8004d26:	f042 0202 	orrlt.w	r2, r2, #2
 8004d2a:	9307      	strge	r3, [sp, #28]
 8004d2c:	9307      	strlt	r3, [sp, #28]
 8004d2e:	bfb8      	it	lt
 8004d30:	9204      	strlt	r2, [sp, #16]
 8004d32:	7823      	ldrb	r3, [r4, #0]
 8004d34:	2b2e      	cmp	r3, #46	; 0x2e
 8004d36:	d10c      	bne.n	8004d52 <_vfiprintf_r+0x15a>
 8004d38:	7863      	ldrb	r3, [r4, #1]
 8004d3a:	2b2a      	cmp	r3, #42	; 0x2a
 8004d3c:	d134      	bne.n	8004da8 <_vfiprintf_r+0x1b0>
 8004d3e:	9b03      	ldr	r3, [sp, #12]
 8004d40:	1d1a      	adds	r2, r3, #4
 8004d42:	681b      	ldr	r3, [r3, #0]
 8004d44:	9203      	str	r2, [sp, #12]
 8004d46:	2b00      	cmp	r3, #0
 8004d48:	bfb8      	it	lt
 8004d4a:	f04f 33ff 	movlt.w	r3, #4294967295
 8004d4e:	3402      	adds	r4, #2
 8004d50:	9305      	str	r3, [sp, #20]
 8004d52:	f8df a0d4 	ldr.w	sl, [pc, #212]	; 8004e28 <_vfiprintf_r+0x230>
 8004d56:	7821      	ldrb	r1, [r4, #0]
 8004d58:	2203      	movs	r2, #3
 8004d5a:	4650      	mov	r0, sl
 8004d5c:	f7fb fa38 	bl	80001d0 <memchr>
 8004d60:	b138      	cbz	r0, 8004d72 <_vfiprintf_r+0x17a>
 8004d62:	9b04      	ldr	r3, [sp, #16]
 8004d64:	eba0 000a 	sub.w	r0, r0, sl
 8004d68:	2240      	movs	r2, #64	; 0x40
 8004d6a:	4082      	lsls	r2, r0
 8004d6c:	4313      	orrs	r3, r2
 8004d6e:	3401      	adds	r4, #1
 8004d70:	9304      	str	r3, [sp, #16]
 8004d72:	f814 1b01 	ldrb.w	r1, [r4], #1
 8004d76:	4829      	ldr	r0, [pc, #164]	; (8004e1c <_vfiprintf_r+0x224>)
 8004d78:	f88d 1028 	strb.w	r1, [sp, #40]	; 0x28
 8004d7c:	2206      	movs	r2, #6
 8004d7e:	f7fb fa27 	bl	80001d0 <memchr>
 8004d82:	2800      	cmp	r0, #0
 8004d84:	d03f      	beq.n	8004e06 <_vfiprintf_r+0x20e>
 8004d86:	4b26      	ldr	r3, [pc, #152]	; (8004e20 <_vfiprintf_r+0x228>)
 8004d88:	bb1b      	cbnz	r3, 8004dd2 <_vfiprintf_r+0x1da>
 8004d8a:	9b03      	ldr	r3, [sp, #12]
 8004d8c:	3307      	adds	r3, #7
 8004d8e:	f023 0307 	bic.w	r3, r3, #7
 8004d92:	3308      	adds	r3, #8
 8004d94:	9303      	str	r3, [sp, #12]
 8004d96:	9b09      	ldr	r3, [sp, #36]	; 0x24
 8004d98:	443b      	add	r3, r7
 8004d9a:	9309      	str	r3, [sp, #36]	; 0x24
 8004d9c:	e768      	b.n	8004c70 <_vfiprintf_r+0x78>
 8004d9e:	fb0c 3202 	mla	r2, ip, r2, r3
 8004da2:	460c      	mov	r4, r1
 8004da4:	2001      	movs	r0, #1
 8004da6:	e7a6      	b.n	8004cf6 <_vfiprintf_r+0xfe>
 8004da8:	2300      	movs	r3, #0
 8004daa:	3401      	adds	r4, #1
 8004dac:	9305      	str	r3, [sp, #20]
 8004dae:	4619      	mov	r1, r3
 8004db0:	f04f 0c0a 	mov.w	ip, #10
 8004db4:	4620      	mov	r0, r4
 8004db6:	f810 2b01 	ldrb.w	r2, [r0], #1
 8004dba:	3a30      	subs	r2, #48	; 0x30
 8004dbc:	2a09      	cmp	r2, #9
 8004dbe:	d903      	bls.n	8004dc8 <_vfiprintf_r+0x1d0>
 8004dc0:	2b00      	cmp	r3, #0
 8004dc2:	d0c6      	beq.n	8004d52 <_vfiprintf_r+0x15a>
 8004dc4:	9105      	str	r1, [sp, #20]
 8004dc6:	e7c4      	b.n	8004d52 <_vfiprintf_r+0x15a>
 8004dc8:	fb0c 2101 	mla	r1, ip, r1, r2
 8004dcc:	4604      	mov	r4, r0
 8004dce:	2301      	movs	r3, #1
 8004dd0:	e7f0      	b.n	8004db4 <_vfiprintf_r+0x1bc>
 8004dd2:	ab03      	add	r3, sp, #12
 8004dd4:	9300      	str	r3, [sp, #0]
 8004dd6:	462a      	mov	r2, r5
 8004dd8:	4b12      	ldr	r3, [pc, #72]	; (8004e24 <_vfiprintf_r+0x22c>)
 8004dda:	a904      	add	r1, sp, #16
 8004ddc:	4630      	mov	r0, r6
 8004dde:	f3af 8000 	nop.w
 8004de2:	4607      	mov	r7, r0
 8004de4:	1c78      	adds	r0, r7, #1
 8004de6:	d1d6      	bne.n	8004d96 <_vfiprintf_r+0x19e>
 8004de8:	6e6b      	ldr	r3, [r5, #100]	; 0x64
 8004dea:	07d9      	lsls	r1, r3, #31
 8004dec:	d405      	bmi.n	8004dfa <_vfiprintf_r+0x202>
 8004dee:	89ab      	ldrh	r3, [r5, #12]
 8004df0:	059a      	lsls	r2, r3, #22
 8004df2:	d402      	bmi.n	8004dfa <_vfiprintf_r+0x202>
 8004df4:	6da8      	ldr	r0, [r5, #88]	; 0x58
 8004df6:	f7ff fddb 	bl	80049b0 <__retarget_lock_release_recursive>
 8004dfa:	89ab      	ldrh	r3, [r5, #12]
 8004dfc:	065b      	lsls	r3, r3, #25
 8004dfe:	f53f af1d 	bmi.w	8004c3c <_vfiprintf_r+0x44>
 8004e02:	9809      	ldr	r0, [sp, #36]	; 0x24
 8004e04:	e71c      	b.n	8004c40 <_vfiprintf_r+0x48>
 8004e06:	ab03      	add	r3, sp, #12
 8004e08:	9300      	str	r3, [sp, #0]
 8004e0a:	462a      	mov	r2, r5
 8004e0c:	4b05      	ldr	r3, [pc, #20]	; (8004e24 <_vfiprintf_r+0x22c>)
 8004e0e:	a904      	add	r1, sp, #16
 8004e10:	4630      	mov	r0, r6
 8004e12:	f000 f879 	bl	8004f08 <_printf_i>
 8004e16:	e7e4      	b.n	8004de2 <_vfiprintf_r+0x1ea>
 8004e18:	080066e1 	.word	0x080066e1
 8004e1c:	080066eb 	.word	0x080066eb
 8004e20:	00000000 	.word	0x00000000
 8004e24:	08004bd3 	.word	0x08004bd3
 8004e28:	080066e7 	.word	0x080066e7

08004e2c <_printf_common>:
 8004e2c:	e92d 47f0 	stmdb	sp!, {r4, r5, r6, r7, r8, r9, sl, lr}
 8004e30:	4616      	mov	r6, r2
 8004e32:	4699      	mov	r9, r3
 8004e34:	688a      	ldr	r2, [r1, #8]
 8004e36:	690b      	ldr	r3, [r1, #16]
 8004e38:	f8dd 8020 	ldr.w	r8, [sp, #32]
 8004e3c:	4293      	cmp	r3, r2
 8004e3e:	bfb8      	it	lt
 8004e40:	4613      	movlt	r3, r2
 8004e42:	6033      	str	r3, [r6, #0]
 8004e44:	f891 2043 	ldrb.w	r2, [r1, #67]	; 0x43
 8004e48:	4607      	mov	r7, r0
 8004e4a:	460c      	mov	r4, r1
 8004e4c:	b10a      	cbz	r2, 8004e52 <_printf_common+0x26>
 8004e4e:	3301      	adds	r3, #1
 8004e50:	6033      	str	r3, [r6, #0]
 8004e52:	6823      	ldr	r3, [r4, #0]
 8004e54:	0699      	lsls	r1, r3, #26
 8004e56:	bf42      	ittt	mi
 8004e58:	6833      	ldrmi	r3, [r6, #0]
 8004e5a:	3302      	addmi	r3, #2
 8004e5c:	6033      	strmi	r3, [r6, #0]
 8004e5e:	6825      	ldr	r5, [r4, #0]
 8004e60:	f015 0506 	ands.w	r5, r5, #6
 8004e64:	d106      	bne.n	8004e74 <_printf_common+0x48>
 8004e66:	f104 0a19 	add.w	sl, r4, #25
 8004e6a:	68e3      	ldr	r3, [r4, #12]
 8004e6c:	6832      	ldr	r2, [r6, #0]
 8004e6e:	1a9b      	subs	r3, r3, r2
 8004e70:	42ab      	cmp	r3, r5
 8004e72:	dc26      	bgt.n	8004ec2 <_printf_common+0x96>
 8004e74:	f894 2043 	ldrb.w	r2, [r4, #67]	; 0x43
 8004e78:	1e13      	subs	r3, r2, #0
 8004e7a:	6822      	ldr	r2, [r4, #0]
 8004e7c:	bf18      	it	ne
 8004e7e:	2301      	movne	r3, #1
 8004e80:	0692      	lsls	r2, r2, #26
 8004e82:	d42b      	bmi.n	8004edc <_printf_common+0xb0>
 8004e84:	f104 0243 	add.w	r2, r4, #67	; 0x43
 8004e88:	4649      	mov	r1, r9
 8004e8a:	4638      	mov	r0, r7
 8004e8c:	47c0      	blx	r8
 8004e8e:	3001      	adds	r0, #1
 8004e90:	d01e      	beq.n	8004ed0 <_printf_common+0xa4>
 8004e92:	6823      	ldr	r3, [r4, #0]
 8004e94:	6922      	ldr	r2, [r4, #16]
 8004e96:	f003 0306 	and.w	r3, r3, #6
 8004e9a:	2b04      	cmp	r3, #4
 8004e9c:	bf02      	ittt	eq
 8004e9e:	68e5      	ldreq	r5, [r4, #12]
 8004ea0:	6833      	ldreq	r3, [r6, #0]
 8004ea2:	1aed      	subeq	r5, r5, r3
 8004ea4:	68a3      	ldr	r3, [r4, #8]
 8004ea6:	bf0c      	ite	eq
 8004ea8:	ea25 75e5 	biceq.w	r5, r5, r5, asr #31
 8004eac:	2500      	movne	r5, #0
 8004eae:	4293      	cmp	r3, r2
 8004eb0:	bfc4      	itt	gt
 8004eb2:	1a9b      	subgt	r3, r3, r2
 8004eb4:	18ed      	addgt	r5, r5, r3
 8004eb6:	2600      	movs	r6, #0
 8004eb8:	341a      	adds	r4, #26
 8004eba:	42b5      	cmp	r5, r6
 8004ebc:	d11a      	bne.n	8004ef4 <_printf_common+0xc8>
 8004ebe:	2000      	movs	r0, #0
 8004ec0:	e008      	b.n	8004ed4 <_printf_common+0xa8>
 8004ec2:	2301      	movs	r3, #1
 8004ec4:	4652      	mov	r2, sl
 8004ec6:	4649      	mov	r1, r9
 8004ec8:	4638      	mov	r0, r7
 8004eca:	47c0      	blx	r8
 8004ecc:	3001      	adds	r0, #1
 8004ece:	d103      	bne.n	8004ed8 <_printf_common+0xac>
 8004ed0:	f04f 30ff 	mov.w	r0, #4294967295
 8004ed4:	e8bd 87f0 	ldmia.w	sp!, {r4, r5, r6, r7, r8, r9, sl, pc}
 8004ed8:	3501      	adds	r5, #1
 8004eda:	e7c6      	b.n	8004e6a <_printf_common+0x3e>
 8004edc:	18e1      	adds	r1, r4, r3
 8004ede:	1c5a      	adds	r2, r3, #1
 8004ee0:	2030      	movs	r0, #48	; 0x30
 8004ee2:	f881 0043 	strb.w	r0, [r1, #67]	; 0x43
 8004ee6:	4422      	add	r2, r4
 8004ee8:	f894 1045 	ldrb.w	r1, [r4, #69]	; 0x45
 8004eec:	f882 1043 	strb.w	r1, [r2, #67]	; 0x43
 8004ef0:	3302      	adds	r3, #2
 8004ef2:	e7c7      	b.n	8004e84 <_printf_common+0x58>
 8004ef4:	2301      	movs	r3, #1
 8004ef6:	4622      	mov	r2, r4
 8004ef8:	4649      	mov	r1, r9
 8004efa:	4638      	mov	r0, r7
 8004efc:	47c0      	blx	r8
 8004efe:	3001      	adds	r0, #1
 8004f00:	d0e6      	beq.n	8004ed0 <_printf_common+0xa4>
 8004f02:	3601      	adds	r6, #1
 8004f04:	e7d9      	b.n	8004eba <_printf_common+0x8e>
	...

08004f08 <_printf_i>:
 8004f08:	e92d 47ff 	stmdb	sp!, {r0, r1, r2, r3, r4, r5, r6, r7, r8, r9, sl, lr}
 8004f0c:	7e0f      	ldrb	r7, [r1, #24]
 8004f0e:	9d0c      	ldr	r5, [sp, #48]	; 0x30
 8004f10:	2f78      	cmp	r7, #120	; 0x78
 8004f12:	4691      	mov	r9, r2
 8004f14:	4680      	mov	r8, r0
 8004f16:	460c      	mov	r4, r1
 8004f18:	469a      	mov	sl, r3
 8004f1a:	f101 0243 	add.w	r2, r1, #67	; 0x43
 8004f1e:	d807      	bhi.n	8004f30 <_printf_i+0x28>
 8004f20:	2f62      	cmp	r7, #98	; 0x62
 8004f22:	d80a      	bhi.n	8004f3a <_printf_i+0x32>
 8004f24:	2f00      	cmp	r7, #0
 8004f26:	f000 80d4 	beq.w	80050d2 <_printf_i+0x1ca>
 8004f2a:	2f58      	cmp	r7, #88	; 0x58
 8004f2c:	f000 80c0 	beq.w	80050b0 <_printf_i+0x1a8>
 8004f30:	f104 0542 	add.w	r5, r4, #66	; 0x42
 8004f34:	f884 7042 	strb.w	r7, [r4, #66]	; 0x42
 8004f38:	e03a      	b.n	8004fb0 <_printf_i+0xa8>
 8004f3a:	f1a7 0363 	sub.w	r3, r7, #99	; 0x63
 8004f3e:	2b15      	cmp	r3, #21
 8004f40:	d8f6      	bhi.n	8004f30 <_printf_i+0x28>
 8004f42:	a101      	add	r1, pc, #4	; (adr r1, 8004f48 <_printf_i+0x40>)
 8004f44:	f851 f023 	ldr.w	pc, [r1, r3, lsl #2]
 8004f48:	08004fa1 	.word	0x08004fa1
 8004f4c:	08004fb5 	.word	0x08004fb5
 8004f50:	08004f31 	.word	0x08004f31
 8004f54:	08004f31 	.word	0x08004f31
 8004f58:	08004f31 	.word	0x08004f31
 8004f5c:	08004f31 	.word	0x08004f31
 8004f60:	08004fb5 	.word	0x08004fb5
 8004f64:	08004f31 	.word	0x08004f31
 8004f68:	08004f31 	.word	0x08004f31
 8004f6c:	08004f31 	.word	0x08004f31
 8004f70:	08004f31 	.word	0x08004f31
 8004f74:	080050b9 	.word	0x080050b9
 8004f78:	08004fe1 	.word	0x08004fe1
 8004f7c:	08005073 	.word	0x08005073
 8004f80:	08004f31 	.word	0x08004f31
 8004f84:	08004f31 	.word	0x08004f31
 8004f88:	080050db 	.word	0x080050db
 8004f8c:	08004f31 	.word	0x08004f31
 8004f90:	08004fe1 	.word	0x08004fe1
 8004f94:	08004f31 	.word	0x08004f31
 8004f98:	08004f31 	.word	0x08004f31
 8004f9c:	0800507b 	.word	0x0800507b
 8004fa0:	682b      	ldr	r3, [r5, #0]
 8004fa2:	1d1a      	adds	r2, r3, #4
 8004fa4:	681b      	ldr	r3, [r3, #0]
 8004fa6:	602a      	str	r2, [r5, #0]
 8004fa8:	f104 0542 	add.w	r5, r4, #66	; 0x42
 8004fac:	f884 3042 	strb.w	r3, [r4, #66]	; 0x42
 8004fb0:	2301      	movs	r3, #1
 8004fb2:	e09f      	b.n	80050f4 <_printf_i+0x1ec>
 8004fb4:	6820      	ldr	r0, [r4, #0]
 8004fb6:	682b      	ldr	r3, [r5, #0]
 8004fb8:	0607      	lsls	r7, r0, #24
 8004fba:	f103 0104 	add.w	r1, r3, #4
 8004fbe:	6029      	str	r1, [r5, #0]
 8004fc0:	d501      	bpl.n	8004fc6 <_printf_i+0xbe>
 8004fc2:	681e      	ldr	r6, [r3, #0]
 8004fc4:	e003      	b.n	8004fce <_printf_i+0xc6>
 8004fc6:	0646      	lsls	r6, r0, #25
 8004fc8:	d5fb      	bpl.n	8004fc2 <_printf_i+0xba>
 8004fca:	f9b3 6000 	ldrsh.w	r6, [r3]
 8004fce:	2e00      	cmp	r6, #0
 8004fd0:	da03      	bge.n	8004fda <_printf_i+0xd2>
 8004fd2:	232d      	movs	r3, #45	; 0x2d
 8004fd4:	4276      	negs	r6, r6
 8004fd6:	f884 3043 	strb.w	r3, [r4, #67]	; 0x43
 8004fda:	485a      	ldr	r0, [pc, #360]	; (8005144 <_printf_i+0x23c>)
 8004fdc:	230a      	movs	r3, #10
 8004fde:	e012      	b.n	8005006 <_printf_i+0xfe>
 8004fe0:	682b      	ldr	r3, [r5, #0]
 8004fe2:	6820      	ldr	r0, [r4, #0]
 8004fe4:	1d19      	adds	r1, r3, #4
 8004fe6:	6029      	str	r1, [r5, #0]
 8004fe8:	0605      	lsls	r5, r0, #24
 8004fea:	d501      	bpl.n	8004ff0 <_printf_i+0xe8>
 8004fec:	681e      	ldr	r6, [r3, #0]
 8004fee:	e002      	b.n	8004ff6 <_printf_i+0xee>
 8004ff0:	0641      	lsls	r1, r0, #25
 8004ff2:	d5fb      	bpl.n	8004fec <_printf_i+0xe4>
 8004ff4:	881e      	ldrh	r6, [r3, #0]
 8004ff6:	4853      	ldr	r0, [pc, #332]	; (8005144 <_printf_i+0x23c>)
 8004ff8:	2f6f      	cmp	r7, #111	; 0x6f
 8004ffa:	bf0c      	ite	eq
 8004ffc:	2308      	moveq	r3, #8
 8004ffe:	230a      	movne	r3, #10
 8005000:	2100      	movs	r1, #0
 8005002:	f884 1043 	strb.w	r1, [r4, #67]	; 0x43
 8005006:	6865      	ldr	r5, [r4, #4]
 8005008:	60a5      	str	r5, [r4, #8]
 800500a:	2d00      	cmp	r5, #0
 800500c:	bfa2      	ittt	ge
 800500e:	6821      	ldrge	r1, [r4, #0]
 8005010:	f021 0104 	bicge.w	r1, r1, #4
 8005014:	6021      	strge	r1, [r4, #0]
 8005016:	b90e      	cbnz	r6, 800501c <_printf_i+0x114>
 8005018:	2d00      	cmp	r5, #0
 800501a:	d04b      	beq.n	80050b4 <_printf_i+0x1ac>
 800501c:	4615      	mov	r5, r2
 800501e:	fbb6 f1f3 	udiv	r1, r6, r3
 8005022:	fb03 6711 	mls	r7, r3, r1, r6
 8005026:	5dc7      	ldrb	r7, [r0, r7]
 8005028:	f805 7d01 	strb.w	r7, [r5, #-1]!
 800502c:	4637      	mov	r7, r6
 800502e:	42bb      	cmp	r3, r7
 8005030:	460e      	mov	r6, r1
 8005032:	d9f4      	bls.n	800501e <_printf_i+0x116>
 8005034:	2b08      	cmp	r3, #8
 8005036:	d10b      	bne.n	8005050 <_printf_i+0x148>
 8005038:	6823      	ldr	r3, [r4, #0]
 800503a:	07de      	lsls	r6, r3, #31
 800503c:	d508      	bpl.n	8005050 <_printf_i+0x148>
 800503e:	6923      	ldr	r3, [r4, #16]
 8005040:	6861      	ldr	r1, [r4, #4]
 8005042:	4299      	cmp	r1, r3
 8005044:	bfde      	ittt	le
 8005046:	2330      	movle	r3, #48	; 0x30
 8005048:	f805 3c01 	strble.w	r3, [r5, #-1]
 800504c:	f105 35ff 	addle.w	r5, r5, #4294967295
 8005050:	1b52      	subs	r2, r2, r5
 8005052:	6122      	str	r2, [r4, #16]
 8005054:	f8cd a000 	str.w	sl, [sp]
 8005058:	464b      	mov	r3, r9
 800505a:	aa03      	add	r2, sp, #12
 800505c:	4621      	mov	r1, r4
 800505e:	4640      	mov	r0, r8
 8005060:	f7ff fee4 	bl	8004e2c <_printf_common>
 8005064:	3001      	adds	r0, #1
 8005066:	d14a      	bne.n	80050fe <_printf_i+0x1f6>
 8005068:	f04f 30ff 	mov.w	r0, #4294967295
 800506c:	b004      	add	sp, #16
 800506e:	e8bd 87f0 	ldmia.w	sp!, {r4, r5, r6, r7, r8, r9, sl, pc}
 8005072:	6823      	ldr	r3, [r4, #0]
 8005074:	f043 0320 	orr.w	r3, r3, #32
 8005078:	6023      	str	r3, [r4, #0]
 800507a:	4833      	ldr	r0, [pc, #204]	; (8005148 <_printf_i+0x240>)
 800507c:	2778      	movs	r7, #120	; 0x78
 800507e:	f884 7045 	strb.w	r7, [r4, #69]	; 0x45
 8005082:	6823      	ldr	r3, [r4, #0]
 8005084:	6829      	ldr	r1, [r5, #0]
 8005086:	061f      	lsls	r7, r3, #24
 8005088:	f851 6b04 	ldr.w	r6, [r1], #4
 800508c:	d402      	bmi.n	8005094 <_printf_i+0x18c>
 800508e:	065f      	lsls	r7, r3, #25
 8005090:	bf48      	it	mi
 8005092:	b2b6      	uxthmi	r6, r6
 8005094:	07df      	lsls	r7, r3, #31
 8005096:	bf48      	it	mi
 8005098:	f043 0320 	orrmi.w	r3, r3, #32
 800509c:	6029      	str	r1, [r5, #0]
 800509e:	bf48      	it	mi
 80050a0:	6023      	strmi	r3, [r4, #0]
 80050a2:	b91e      	cbnz	r6, 80050ac <_printf_i+0x1a4>
 80050a4:	6823      	ldr	r3, [r4, #0]
 80050a6:	f023 0320 	bic.w	r3, r3, #32
 80050aa:	6023      	str	r3, [r4, #0]
 80050ac:	2310      	movs	r3, #16
 80050ae:	e7a7      	b.n	8005000 <_printf_i+0xf8>
 80050b0:	4824      	ldr	r0, [pc, #144]	; (8005144 <_printf_i+0x23c>)
 80050b2:	e7e4      	b.n	800507e <_printf_i+0x176>
 80050b4:	4615      	mov	r5, r2
 80050b6:	e7bd      	b.n	8005034 <_printf_i+0x12c>
 80050b8:	682b      	ldr	r3, [r5, #0]
 80050ba:	6826      	ldr	r6, [r4, #0]
 80050bc:	6961      	ldr	r1, [r4, #20]
 80050be:	1d18      	adds	r0, r3, #4
 80050c0:	6028      	str	r0, [r5, #0]
 80050c2:	0635      	lsls	r5, r6, #24
 80050c4:	681b      	ldr	r3, [r3, #0]
 80050c6:	d501      	bpl.n	80050cc <_printf_i+0x1c4>
 80050c8:	6019      	str	r1, [r3, #0]
 80050ca:	e002      	b.n	80050d2 <_printf_i+0x1ca>
 80050cc:	0670      	lsls	r0, r6, #25
 80050ce:	d5fb      	bpl.n	80050c8 <_printf_i+0x1c0>
 80050d0:	8019      	strh	r1, [r3, #0]
 80050d2:	2300      	movs	r3, #0
 80050d4:	6123      	str	r3, [r4, #16]
 80050d6:	4615      	mov	r5, r2
 80050d8:	e7bc      	b.n	8005054 <_printf_i+0x14c>
 80050da:	682b      	ldr	r3, [r5, #0]
 80050dc:	1d1a      	adds	r2, r3, #4
 80050de:	602a      	str	r2, [r5, #0]
 80050e0:	681d      	ldr	r5, [r3, #0]
 80050e2:	6862      	ldr	r2, [r4, #4]
 80050e4:	2100      	movs	r1, #0
 80050e6:	4628      	mov	r0, r5
 80050e8:	f7fb f872 	bl	80001d0 <memchr>
 80050ec:	b108      	cbz	r0, 80050f2 <_printf_i+0x1ea>
 80050ee:	1b40      	subs	r0, r0, r5
 80050f0:	6060      	str	r0, [r4, #4]
 80050f2:	6863      	ldr	r3, [r4, #4]
 80050f4:	6123      	str	r3, [r4, #16]
 80050f6:	2300      	movs	r3, #0
 80050f8:	f884 3043 	strb.w	r3, [r4, #67]	; 0x43
 80050fc:	e7aa      	b.n	8005054 <_printf_i+0x14c>
 80050fe:	6923      	ldr	r3, [r4, #16]
 8005100:	462a      	mov	r2, r5
 8005102:	4649      	mov	r1, r9
 8005104:	4640      	mov	r0, r8
 8005106:	47d0      	blx	sl
 8005108:	3001      	adds	r0, #1
 800510a:	d0ad      	beq.n	8005068 <_printf_i+0x160>
 800510c:	6823      	ldr	r3, [r4, #0]
 800510e:	079b      	lsls	r3, r3, #30
 8005110:	d413      	bmi.n	800513a <_printf_i+0x232>
 8005112:	68e0      	ldr	r0, [r4, #12]
 8005114:	9b03      	ldr	r3, [sp, #12]
 8005116:	4298      	cmp	r0, r3
 8005118:	bfb8      	it	lt
 800511a:	4618      	movlt	r0, r3
 800511c:	e7a6      	b.n	800506c <_printf_i+0x164>
 800511e:	2301      	movs	r3, #1
 8005120:	4632      	mov	r2, r6
 8005122:	4649      	mov	r1, r9
 8005124:	4640      	mov	r0, r8
 8005126:	47d0      	blx	sl
 8005128:	3001      	adds	r0, #1
 800512a:	d09d      	beq.n	8005068 <_printf_i+0x160>
 800512c:	3501      	adds	r5, #1
 800512e:	68e3      	ldr	r3, [r4, #12]
 8005130:	9903      	ldr	r1, [sp, #12]
 8005132:	1a5b      	subs	r3, r3, r1
 8005134:	42ab      	cmp	r3, r5
 8005136:	dcf2      	bgt.n	800511e <_printf_i+0x216>
 8005138:	e7eb      	b.n	8005112 <_printf_i+0x20a>
 800513a:	2500      	movs	r5, #0
 800513c:	f104 0619 	add.w	r6, r4, #25
 8005140:	e7f5      	b.n	800512e <_printf_i+0x226>
 8005142:	bf00      	nop
 8005144:	080066f2 	.word	0x080066f2
 8005148:	08006703 	.word	0x08006703

0800514c <__sflush_r>:
 800514c:	898a      	ldrh	r2, [r1, #12]
 800514e:	e92d 41f0 	stmdb	sp!, {r4, r5, r6, r7, r8, lr}
 8005152:	4605      	mov	r5, r0
 8005154:	0710      	lsls	r0, r2, #28
 8005156:	460c      	mov	r4, r1
 8005158:	d458      	bmi.n	800520c <__sflush_r+0xc0>
 800515a:	684b      	ldr	r3, [r1, #4]
 800515c:	2b00      	cmp	r3, #0
 800515e:	dc05      	bgt.n	800516c <__sflush_r+0x20>
 8005160:	6c0b      	ldr	r3, [r1, #64]	; 0x40
 8005162:	2b00      	cmp	r3, #0
 8005164:	dc02      	bgt.n	800516c <__sflush_r+0x20>
 8005166:	2000      	movs	r0, #0
 8005168:	e8bd 81f0 	ldmia.w	sp!, {r4, r5, r6, r7, r8, pc}
 800516c:	6ae6      	ldr	r6, [r4, #44]	; 0x2c
 800516e:	2e00      	cmp	r6, #0
 8005170:	d0f9      	beq.n	8005166 <__sflush_r+0x1a>
 8005172:	2300      	movs	r3, #0
 8005174:	f412 5280 	ands.w	r2, r2, #4096	; 0x1000
 8005178:	682f      	ldr	r7, [r5, #0]
 800517a:	6a21      	ldr	r1, [r4, #32]
 800517c:	602b      	str	r3, [r5, #0]
 800517e:	d032      	beq.n	80051e6 <__sflush_r+0x9a>
 8005180:	6d60      	ldr	r0, [r4, #84]	; 0x54
 8005182:	89a3      	ldrh	r3, [r4, #12]
 8005184:	075a      	lsls	r2, r3, #29
 8005186:	d505      	bpl.n	8005194 <__sflush_r+0x48>
 8005188:	6863      	ldr	r3, [r4, #4]
 800518a:	1ac0      	subs	r0, r0, r3
 800518c:	6b63      	ldr	r3, [r4, #52]	; 0x34
 800518e:	b10b      	cbz	r3, 8005194 <__sflush_r+0x48>
 8005190:	6c23      	ldr	r3, [r4, #64]	; 0x40
 8005192:	1ac0      	subs	r0, r0, r3
 8005194:	2300      	movs	r3, #0
 8005196:	4602      	mov	r2, r0
 8005198:	6ae6      	ldr	r6, [r4, #44]	; 0x2c
 800519a:	6a21      	ldr	r1, [r4, #32]
 800519c:	4628      	mov	r0, r5
 800519e:	47b0      	blx	r6
 80051a0:	1c43      	adds	r3, r0, #1
 80051a2:	89a3      	ldrh	r3, [r4, #12]
 80051a4:	d106      	bne.n	80051b4 <__sflush_r+0x68>
 80051a6:	6829      	ldr	r1, [r5, #0]
 80051a8:	291d      	cmp	r1, #29
 80051aa:	d82b      	bhi.n	8005204 <__sflush_r+0xb8>
 80051ac:	4a29      	ldr	r2, [pc, #164]	; (8005254 <__sflush_r+0x108>)
 80051ae:	410a      	asrs	r2, r1
 80051b0:	07d6      	lsls	r6, r2, #31
 80051b2:	d427      	bmi.n	8005204 <__sflush_r+0xb8>
 80051b4:	2200      	movs	r2, #0
 80051b6:	6062      	str	r2, [r4, #4]
 80051b8:	04d9      	lsls	r1, r3, #19
 80051ba:	6922      	ldr	r2, [r4, #16]
 80051bc:	6022      	str	r2, [r4, #0]
 80051be:	d504      	bpl.n	80051ca <__sflush_r+0x7e>
 80051c0:	1c42      	adds	r2, r0, #1
 80051c2:	d101      	bne.n	80051c8 <__sflush_r+0x7c>
 80051c4:	682b      	ldr	r3, [r5, #0]
 80051c6:	b903      	cbnz	r3, 80051ca <__sflush_r+0x7e>
 80051c8:	6560      	str	r0, [r4, #84]	; 0x54
 80051ca:	6b61      	ldr	r1, [r4, #52]	; 0x34
 80051cc:	602f      	str	r7, [r5, #0]
 80051ce:	2900      	cmp	r1, #0
 80051d0:	d0c9      	beq.n	8005166 <__sflush_r+0x1a>
 80051d2:	f104 0344 	add.w	r3, r4, #68	; 0x44
 80051d6:	4299      	cmp	r1, r3
 80051d8:	d002      	beq.n	80051e0 <__sflush_r+0x94>
 80051da:	4628      	mov	r0, r5
 80051dc:	f7ff fbea 	bl	80049b4 <_free_r>
 80051e0:	2000      	movs	r0, #0
 80051e2:	6360      	str	r0, [r4, #52]	; 0x34
 80051e4:	e7c0      	b.n	8005168 <__sflush_r+0x1c>
 80051e6:	2301      	movs	r3, #1
 80051e8:	4628      	mov	r0, r5
 80051ea:	47b0      	blx	r6
 80051ec:	1c41      	adds	r1, r0, #1
 80051ee:	d1c8      	bne.n	8005182 <__sflush_r+0x36>
 80051f0:	682b      	ldr	r3, [r5, #0]
 80051f2:	2b00      	cmp	r3, #0
 80051f4:	d0c5      	beq.n	8005182 <__sflush_r+0x36>
 80051f6:	2b1d      	cmp	r3, #29
 80051f8:	d001      	beq.n	80051fe <__sflush_r+0xb2>
 80051fa:	2b16      	cmp	r3, #22
 80051fc:	d101      	bne.n	8005202 <__sflush_r+0xb6>
 80051fe:	602f      	str	r7, [r5, #0]
 8005200:	e7b1      	b.n	8005166 <__sflush_r+0x1a>
 8005202:	89a3      	ldrh	r3, [r4, #12]
 8005204:	f043 0340 	orr.w	r3, r3, #64	; 0x40
 8005208:	81a3      	strh	r3, [r4, #12]
 800520a:	e7ad      	b.n	8005168 <__sflush_r+0x1c>
 800520c:	690f      	ldr	r7, [r1, #16]
 800520e:	2f00      	cmp	r7, #0
 8005210:	d0a9      	beq.n	8005166 <__sflush_r+0x1a>
 8005212:	0793      	lsls	r3, r2, #30
 8005214:	680e      	ldr	r6, [r1, #0]
 8005216:	bf08      	it	eq
 8005218:	694b      	ldreq	r3, [r1, #20]
 800521a:	600f      	str	r7, [r1, #0]
 800521c:	bf18      	it	ne
 800521e:	2300      	movne	r3, #0
 8005220:	eba6 0807 	sub.w	r8, r6, r7
 8005224:	608b      	str	r3, [r1, #8]
 8005226:	f1b8 0f00 	cmp.w	r8, #0
 800522a:	dd9c      	ble.n	8005166 <__sflush_r+0x1a>
 800522c:	6a21      	ldr	r1, [r4, #32]
 800522e:	6aa6      	ldr	r6, [r4, #40]	; 0x28
 8005230:	4643      	mov	r3, r8
 8005232:	463a      	mov	r2, r7
 8005234:	4628      	mov	r0, r5
 8005236:	47b0      	blx	r6
 8005238:	2800      	cmp	r0, #0
 800523a:	dc06      	bgt.n	800524a <__sflush_r+0xfe>
 800523c:	89a3      	ldrh	r3, [r4, #12]
 800523e:	f043 0340 	orr.w	r3, r3, #64	; 0x40
 8005242:	81a3      	strh	r3, [r4, #12]
 8005244:	f04f 30ff 	mov.w	r0, #4294967295
 8005248:	e78e      	b.n	8005168 <__sflush_r+0x1c>
 800524a:	4407      	add	r7, r0
 800524c:	eba8 0800 	sub.w	r8, r8, r0
 8005250:	e7e9      	b.n	8005226 <__sflush_r+0xda>
 8005252:	bf00      	nop
 8005254:	dfbffffe 	.word	0xdfbffffe

08005258 <_fflush_r>:
 8005258:	b538      	push	{r3, r4, r5, lr}
 800525a:	690b      	ldr	r3, [r1, #16]
 800525c:	4605      	mov	r5, r0
 800525e:	460c      	mov	r4, r1
 8005260:	b913      	cbnz	r3, 8005268 <_fflush_r+0x10>
 8005262:	2500      	movs	r5, #0
 8005264:	4628      	mov	r0, r5
 8005266:	bd38      	pop	{r3, r4, r5, pc}
 8005268:	b118      	cbz	r0, 8005272 <_fflush_r+0x1a>
 800526a:	6a03      	ldr	r3, [r0, #32]
 800526c:	b90b      	cbnz	r3, 8005272 <_fflush_r+0x1a>
 800526e:	f7ff fa99 	bl	80047a4 <__sinit>
 8005272:	f9b4 300c 	ldrsh.w	r3, [r4, #12]
 8005276:	2b00      	cmp	r3, #0
 8005278:	d0f3      	beq.n	8005262 <_fflush_r+0xa>
 800527a:	6e62      	ldr	r2, [r4, #100]	; 0x64
 800527c:	07d0      	lsls	r0, r2, #31
 800527e:	d404      	bmi.n	800528a <_fflush_r+0x32>
 8005280:	0599      	lsls	r1, r3, #22
 8005282:	d402      	bmi.n	800528a <_fflush_r+0x32>
 8005284:	6da0      	ldr	r0, [r4, #88]	; 0x58
 8005286:	f7ff fb92 	bl	80049ae <__retarget_lock_acquire_recursive>
 800528a:	4628      	mov	r0, r5
 800528c:	4621      	mov	r1, r4
 800528e:	f7ff ff5d 	bl	800514c <__sflush_r>
 8005292:	6e63      	ldr	r3, [r4, #100]	; 0x64
 8005294:	07da      	lsls	r2, r3, #31
 8005296:	4605      	mov	r5, r0
 8005298:	d4e4      	bmi.n	8005264 <_fflush_r+0xc>
 800529a:	89a3      	ldrh	r3, [r4, #12]
 800529c:	059b      	lsls	r3, r3, #22
 800529e:	d4e1      	bmi.n	8005264 <_fflush_r+0xc>
 80052a0:	6da0      	ldr	r0, [r4, #88]	; 0x58
 80052a2:	f7ff fb85 	bl	80049b0 <__retarget_lock_release_recursive>
 80052a6:	e7dd      	b.n	8005264 <_fflush_r+0xc>

080052a8 <__swbuf_r>:
 80052a8:	b5f8      	push	{r3, r4, r5, r6, r7, lr}
 80052aa:	460e      	mov	r6, r1
 80052ac:	4614      	mov	r4, r2
 80052ae:	4605      	mov	r5, r0
 80052b0:	b118      	cbz	r0, 80052ba <__swbuf_r+0x12>
 80052b2:	6a03      	ldr	r3, [r0, #32]
 80052b4:	b90b      	cbnz	r3, 80052ba <__swbuf_r+0x12>
 80052b6:	f7ff fa75 	bl	80047a4 <__sinit>
 80052ba:	69a3      	ldr	r3, [r4, #24]
 80052bc:	60a3      	str	r3, [r4, #8]
 80052be:	89a3      	ldrh	r3, [r4, #12]
 80052c0:	071a      	lsls	r2, r3, #28
 80052c2:	d525      	bpl.n	8005310 <__swbuf_r+0x68>
 80052c4:	6923      	ldr	r3, [r4, #16]
 80052c6:	b31b      	cbz	r3, 8005310 <__swbuf_r+0x68>
 80052c8:	6823      	ldr	r3, [r4, #0]
 80052ca:	6922      	ldr	r2, [r4, #16]
 80052cc:	1a98      	subs	r0, r3, r2
 80052ce:	6963      	ldr	r3, [r4, #20]
 80052d0:	b2f6      	uxtb	r6, r6
 80052d2:	4283      	cmp	r3, r0
 80052d4:	4637      	mov	r7, r6
 80052d6:	dc04      	bgt.n	80052e2 <__swbuf_r+0x3a>
 80052d8:	4621      	mov	r1, r4
 80052da:	4628      	mov	r0, r5
 80052dc:	f7ff ffbc 	bl	8005258 <_fflush_r>
 80052e0:	b9e0      	cbnz	r0, 800531c <__swbuf_r+0x74>
 80052e2:	68a3      	ldr	r3, [r4, #8]
 80052e4:	3b01      	subs	r3, #1
 80052e6:	60a3      	str	r3, [r4, #8]
 80052e8:	6823      	ldr	r3, [r4, #0]
 80052ea:	1c5a      	adds	r2, r3, #1
 80052ec:	6022      	str	r2, [r4, #0]
 80052ee:	701e      	strb	r6, [r3, #0]
 80052f0:	6962      	ldr	r2, [r4, #20]
 80052f2:	1c43      	adds	r3, r0, #1
 80052f4:	429a      	cmp	r2, r3
 80052f6:	d004      	beq.n	8005302 <__swbuf_r+0x5a>
 80052f8:	89a3      	ldrh	r3, [r4, #12]
 80052fa:	07db      	lsls	r3, r3, #31
 80052fc:	d506      	bpl.n	800530c <__swbuf_r+0x64>
 80052fe:	2e0a      	cmp	r6, #10
 8005300:	d104      	bne.n	800530c <__swbuf_r+0x64>
 8005302:	4621      	mov	r1, r4
 8005304:	4628      	mov	r0, r5
 8005306:	f7ff ffa7 	bl	8005258 <_fflush_r>
 800530a:	b938      	cbnz	r0, 800531c <__swbuf_r+0x74>
 800530c:	4638      	mov	r0, r7
 800530e:	bdf8      	pop	{r3, r4, r5, r6, r7, pc}
 8005310:	4621      	mov	r1, r4
 8005312:	4628      	mov	r0, r5
 8005314:	f000 f806 	bl	8005324 <__swsetup_r>
 8005318:	2800      	cmp	r0, #0
 800531a:	d0d5      	beq.n	80052c8 <__swbuf_r+0x20>
 800531c:	f04f 37ff 	mov.w	r7, #4294967295
 8005320:	e7f4      	b.n	800530c <__swbuf_r+0x64>
	...

08005324 <__swsetup_r>:
 8005324:	b538      	push	{r3, r4, r5, lr}
 8005326:	4b2a      	ldr	r3, [pc, #168]	; (80053d0 <__swsetup_r+0xac>)
 8005328:	4605      	mov	r5, r0
 800532a:	6818      	ldr	r0, [r3, #0]
 800532c:	460c      	mov	r4, r1
 800532e:	b118      	cbz	r0, 8005338 <__swsetup_r+0x14>
 8005330:	6a03      	ldr	r3, [r0, #32]
 8005332:	b90b      	cbnz	r3, 8005338 <__swsetup_r+0x14>
 8005334:	f7ff fa36 	bl	80047a4 <__sinit>
 8005338:	89a3      	ldrh	r3, [r4, #12]
 800533a:	f9b4 200c 	ldrsh.w	r2, [r4, #12]
 800533e:	0718      	lsls	r0, r3, #28
 8005340:	d422      	bmi.n	8005388 <__swsetup_r+0x64>
 8005342:	06d9      	lsls	r1, r3, #27
 8005344:	d407      	bmi.n	8005356 <__swsetup_r+0x32>
 8005346:	2309      	movs	r3, #9
 8005348:	602b      	str	r3, [r5, #0]
 800534a:	f042 0340 	orr.w	r3, r2, #64	; 0x40
 800534e:	81a3      	strh	r3, [r4, #12]
 8005350:	f04f 30ff 	mov.w	r0, #4294967295
 8005354:	e034      	b.n	80053c0 <__swsetup_r+0x9c>
 8005356:	0758      	lsls	r0, r3, #29
 8005358:	d512      	bpl.n	8005380 <__swsetup_r+0x5c>
 800535a:	6b61      	ldr	r1, [r4, #52]	; 0x34
 800535c:	b141      	cbz	r1, 8005370 <__swsetup_r+0x4c>
 800535e:	f104 0344 	add.w	r3, r4, #68	; 0x44
 8005362:	4299      	cmp	r1, r3
 8005364:	d002      	beq.n	800536c <__swsetup_r+0x48>
 8005366:	4628      	mov	r0, r5
 8005368:	f7ff fb24 	bl	80049b4 <_free_r>
 800536c:	2300      	movs	r3, #0
 800536e:	6363      	str	r3, [r4, #52]	; 0x34
 8005370:	89a3      	ldrh	r3, [r4, #12]
 8005372:	f023 0324 	bic.w	r3, r3, #36	; 0x24
 8005376:	81a3      	strh	r3, [r4, #12]
 8005378:	2300      	movs	r3, #0
 800537a:	6063      	str	r3, [r4, #4]
 800537c:	6923      	ldr	r3, [r4, #16]
 800537e:	6023      	str	r3, [r4, #0]
 8005380:	89a3      	ldrh	r3, [r4, #12]
 8005382:	f043 0308 	orr.w	r3, r3, #8
 8005386:	81a3      	strh	r3, [r4, #12]
 8005388:	6923      	ldr	r3, [r4, #16]
 800538a:	b94b      	cbnz	r3, 80053a0 <__swsetup_r+0x7c>
 800538c:	89a3      	ldrh	r3, [r4, #12]
 800538e:	f403 7320 	and.w	r3, r3, #640	; 0x280
 8005392:	f5b3 7f00 	cmp.w	r3, #512	; 0x200
 8005396:	d003      	beq.n	80053a0 <__swsetup_r+0x7c>
 8005398:	4621      	mov	r1, r4
 800539a:	4628      	mov	r0, r5
 800539c:	f000 f850 	bl	8005440 <__smakebuf_r>
 80053a0:	89a0      	ldrh	r0, [r4, #12]
 80053a2:	f9b4 200c 	ldrsh.w	r2, [r4, #12]
 80053a6:	f010 0301 	ands.w	r3, r0, #1
 80053aa:	d00a      	beq.n	80053c2 <__swsetup_r+0x9e>
 80053ac:	2300      	movs	r3, #0
 80053ae:	60a3      	str	r3, [r4, #8]
 80053b0:	6963      	ldr	r3, [r4, #20]
 80053b2:	425b      	negs	r3, r3
 80053b4:	61a3      	str	r3, [r4, #24]
 80053b6:	6923      	ldr	r3, [r4, #16]
 80053b8:	b943      	cbnz	r3, 80053cc <__swsetup_r+0xa8>
 80053ba:	f010 0080 	ands.w	r0, r0, #128	; 0x80
 80053be:	d1c4      	bne.n	800534a <__swsetup_r+0x26>
 80053c0:	bd38      	pop	{r3, r4, r5, pc}
 80053c2:	0781      	lsls	r1, r0, #30
 80053c4:	bf58      	it	pl
 80053c6:	6963      	ldrpl	r3, [r4, #20]
 80053c8:	60a3      	str	r3, [r4, #8]
 80053ca:	e7f4      	b.n	80053b6 <__swsetup_r+0x92>
 80053cc:	2000      	movs	r0, #0
 80053ce:	e7f7      	b.n	80053c0 <__swsetup_r+0x9c>
 80053d0:	2000005c 	.word	0x2000005c

080053d4 <_sbrk_r>:
 80053d4:	b538      	push	{r3, r4, r5, lr}
 80053d6:	4d06      	ldr	r5, [pc, #24]	; (80053f0 <_sbrk_r+0x1c>)
 80053d8:	2300      	movs	r3, #0
 80053da:	4604      	mov	r4, r0
 80053dc:	4608      	mov	r0, r1
 80053de:	602b      	str	r3, [r5, #0]
 80053e0:	f7fd fc2c 	bl	8002c3c <_sbrk>
 80053e4:	1c43      	adds	r3, r0, #1
 80053e6:	d102      	bne.n	80053ee <_sbrk_r+0x1a>
 80053e8:	682b      	ldr	r3, [r5, #0]
 80053ea:	b103      	cbz	r3, 80053ee <_sbrk_r+0x1a>
 80053ec:	6023      	str	r3, [r4, #0]
 80053ee:	bd38      	pop	{r3, r4, r5, pc}
 80053f0:	20000200 	.word	0x20000200

080053f4 <__swhatbuf_r>:
 80053f4:	b570      	push	{r4, r5, r6, lr}
 80053f6:	460c      	mov	r4, r1
 80053f8:	f9b1 100e 	ldrsh.w	r1, [r1, #14]
 80053fc:	2900      	cmp	r1, #0
 80053fe:	b096      	sub	sp, #88	; 0x58
 8005400:	4615      	mov	r5, r2
 8005402:	461e      	mov	r6, r3
 8005404:	da0d      	bge.n	8005422 <__swhatbuf_r+0x2e>
 8005406:	89a3      	ldrh	r3, [r4, #12]
 8005408:	f013 0f80 	tst.w	r3, #128	; 0x80
 800540c:	f04f 0100 	mov.w	r1, #0
 8005410:	bf0c      	ite	eq
 8005412:	f44f 6380 	moveq.w	r3, #1024	; 0x400
 8005416:	2340      	movne	r3, #64	; 0x40
 8005418:	2000      	movs	r0, #0
 800541a:	6031      	str	r1, [r6, #0]
 800541c:	602b      	str	r3, [r5, #0]
 800541e:	b016      	add	sp, #88	; 0x58
 8005420:	bd70      	pop	{r4, r5, r6, pc}
 8005422:	466a      	mov	r2, sp
 8005424:	f000 f848 	bl	80054b8 <_fstat_r>
 8005428:	2800      	cmp	r0, #0
 800542a:	dbec      	blt.n	8005406 <__swhatbuf_r+0x12>
 800542c:	9901      	ldr	r1, [sp, #4]
 800542e:	f401 4170 	and.w	r1, r1, #61440	; 0xf000
 8005432:	f5a1 5300 	sub.w	r3, r1, #8192	; 0x2000
 8005436:	4259      	negs	r1, r3
 8005438:	4159      	adcs	r1, r3
 800543a:	f44f 6380 	mov.w	r3, #1024	; 0x400
 800543e:	e7eb      	b.n	8005418 <__swhatbuf_r+0x24>

08005440 <__smakebuf_r>:
 8005440:	898b      	ldrh	r3, [r1, #12]
 8005442:	b573      	push	{r0, r1, r4, r5, r6, lr}
 8005444:	079d      	lsls	r5, r3, #30
 8005446:	4606      	mov	r6, r0
 8005448:	460c      	mov	r4, r1
 800544a:	d507      	bpl.n	800545c <__smakebuf_r+0x1c>
 800544c:	f104 0347 	add.w	r3, r4, #71	; 0x47
 8005450:	6023      	str	r3, [r4, #0]
 8005452:	6123      	str	r3, [r4, #16]
 8005454:	2301      	movs	r3, #1
 8005456:	6163      	str	r3, [r4, #20]
 8005458:	b002      	add	sp, #8
 800545a:	bd70      	pop	{r4, r5, r6, pc}
 800545c:	ab01      	add	r3, sp, #4
 800545e:	466a      	mov	r2, sp
 8005460:	f7ff ffc8 	bl	80053f4 <__swhatbuf_r>
 8005464:	9900      	ldr	r1, [sp, #0]
 8005466:	4605      	mov	r5, r0
 8005468:	4630      	mov	r0, r6
 800546a:	f7ff fb0f 	bl	8004a8c <_malloc_r>
 800546e:	b948      	cbnz	r0, 8005484 <__smakebuf_r+0x44>
 8005470:	f9b4 300c 	ldrsh.w	r3, [r4, #12]
 8005474:	059a      	lsls	r2, r3, #22
 8005476:	d4ef      	bmi.n	8005458 <__smakebuf_r+0x18>
 8005478:	f023 0303 	bic.w	r3, r3, #3
 800547c:	f043 0302 	orr.w	r3, r3, #2
 8005480:	81a3      	strh	r3, [r4, #12]
 8005482:	e7e3      	b.n	800544c <__smakebuf_r+0xc>
 8005484:	89a3      	ldrh	r3, [r4, #12]
 8005486:	6020      	str	r0, [r4, #0]
 8005488:	f043 0380 	orr.w	r3, r3, #128	; 0x80
 800548c:	81a3      	strh	r3, [r4, #12]
 800548e:	9b00      	ldr	r3, [sp, #0]
 8005490:	6163      	str	r3, [r4, #20]
 8005492:	9b01      	ldr	r3, [sp, #4]
 8005494:	6120      	str	r0, [r4, #16]
 8005496:	b15b      	cbz	r3, 80054b0 <__smakebuf_r+0x70>
 8005498:	f9b4 100e 	ldrsh.w	r1, [r4, #14]
 800549c:	4630      	mov	r0, r6
 800549e:	f000 f81d 	bl	80054dc <_isatty_r>
 80054a2:	b128      	cbz	r0, 80054b0 <__smakebuf_r+0x70>
 80054a4:	89a3      	ldrh	r3, [r4, #12]
 80054a6:	f023 0303 	bic.w	r3, r3, #3
 80054aa:	f043 0301 	orr.w	r3, r3, #1
 80054ae:	81a3      	strh	r3, [r4, #12]
 80054b0:	89a3      	ldrh	r3, [r4, #12]
 80054b2:	431d      	orrs	r5, r3
 80054b4:	81a5      	strh	r5, [r4, #12]
 80054b6:	e7cf      	b.n	8005458 <__smakebuf_r+0x18>

080054b8 <_fstat_r>:
 80054b8:	b538      	push	{r3, r4, r5, lr}
 80054ba:	4d07      	ldr	r5, [pc, #28]	; (80054d8 <_fstat_r+0x20>)
 80054bc:	2300      	movs	r3, #0
 80054be:	4604      	mov	r4, r0
 80054c0:	4608      	mov	r0, r1
 80054c2:	4611      	mov	r1, r2
 80054c4:	602b      	str	r3, [r5, #0]
 80054c6:	f7fd fb90 	bl	8002bea <_fstat>
 80054ca:	1c43      	adds	r3, r0, #1
 80054cc:	d102      	bne.n	80054d4 <_fstat_r+0x1c>
 80054ce:	682b      	ldr	r3, [r5, #0]
 80054d0:	b103      	cbz	r3, 80054d4 <_fstat_r+0x1c>
 80054d2:	6023      	str	r3, [r4, #0]
 80054d4:	bd38      	pop	{r3, r4, r5, pc}
 80054d6:	bf00      	nop
 80054d8:	20000200 	.word	0x20000200

080054dc <_isatty_r>:
 80054dc:	b538      	push	{r3, r4, r5, lr}
 80054de:	4d06      	ldr	r5, [pc, #24]	; (80054f8 <_isatty_r+0x1c>)
 80054e0:	2300      	movs	r3, #0
 80054e2:	4604      	mov	r4, r0
 80054e4:	4608      	mov	r0, r1
 80054e6:	602b      	str	r3, [r5, #0]
 80054e8:	f7fd fb8f 	bl	8002c0a <_isatty>
 80054ec:	1c43      	adds	r3, r0, #1
 80054ee:	d102      	bne.n	80054f6 <_isatty_r+0x1a>
 80054f0:	682b      	ldr	r3, [r5, #0]
 80054f2:	b103      	cbz	r3, 80054f6 <_isatty_r+0x1a>
 80054f4:	6023      	str	r3, [r4, #0]
 80054f6:	bd38      	pop	{r3, r4, r5, pc}
 80054f8:	20000200 	.word	0x20000200
 80054fc:	00000000 	.word	0x00000000

08005500 <tan>:
 8005500:	b51f      	push	{r0, r1, r2, r3, r4, lr}
 8005502:	ec53 2b10 	vmov	r2, r3, d0
 8005506:	4816      	ldr	r0, [pc, #88]	; (8005560 <tan+0x60>)
 8005508:	f023 4100 	bic.w	r1, r3, #2147483648	; 0x80000000
 800550c:	4281      	cmp	r1, r0
 800550e:	dc07      	bgt.n	8005520 <tan+0x20>
 8005510:	ed9f 1b11 	vldr	d1, [pc, #68]	; 8005558 <tan+0x58>
 8005514:	2001      	movs	r0, #1
 8005516:	b005      	add	sp, #20
 8005518:	f85d eb04 	ldr.w	lr, [sp], #4
 800551c:	f000 b824 	b.w	8005568 <__kernel_tan>
 8005520:	4810      	ldr	r0, [pc, #64]	; (8005564 <tan+0x64>)
 8005522:	4281      	cmp	r1, r0
 8005524:	dd09      	ble.n	800553a <tan+0x3a>
 8005526:	ee10 0a10 	vmov	r0, s0
 800552a:	4619      	mov	r1, r3
 800552c:	f7fa fea4 	bl	8000278 <__aeabi_dsub>
 8005530:	ec41 0b10 	vmov	d0, r0, r1
 8005534:	b005      	add	sp, #20
 8005536:	f85d fb04 	ldr.w	pc, [sp], #4
 800553a:	4668      	mov	r0, sp
 800553c:	f000 fa20 	bl	8005980 <__ieee754_rem_pio2>
 8005540:	0040      	lsls	r0, r0, #1
 8005542:	f000 0002 	and.w	r0, r0, #2
 8005546:	ed9d 1b02 	vldr	d1, [sp, #8]
 800554a:	ed9d 0b00 	vldr	d0, [sp]
 800554e:	f1c0 0001 	rsb	r0, r0, #1
 8005552:	f000 f809 	bl	8005568 <__kernel_tan>
 8005556:	e7ed      	b.n	8005534 <tan+0x34>
	...
 8005560:	3fe921fb 	.word	0x3fe921fb
 8005564:	7fefffff 	.word	0x7fefffff

08005568 <__kernel_tan>:
 8005568:	e92d 4ff0 	stmdb	sp!, {r4, r5, r6, r7, r8, r9, sl, fp, lr}
 800556c:	ed2d 8b06 	vpush	{d8-d10}
 8005570:	ec5b ab10 	vmov	sl, fp, d0
 8005574:	4be0      	ldr	r3, [pc, #896]	; (80058f8 <__kernel_tan+0x390>)
 8005576:	b083      	sub	sp, #12
 8005578:	f02b 4700 	bic.w	r7, fp, #2147483648	; 0x80000000
 800557c:	429f      	cmp	r7, r3
 800557e:	ec59 8b11 	vmov	r8, r9, d1
 8005582:	4606      	mov	r6, r0
 8005584:	f8cd b000 	str.w	fp, [sp]
 8005588:	dc61      	bgt.n	800564e <__kernel_tan+0xe6>
 800558a:	ee10 0a10 	vmov	r0, s0
 800558e:	4659      	mov	r1, fp
 8005590:	f7fb fac4 	bl	8000b1c <__aeabi_d2iz>
 8005594:	4605      	mov	r5, r0
 8005596:	2800      	cmp	r0, #0
 8005598:	f040 8083 	bne.w	80056a2 <__kernel_tan+0x13a>
 800559c:	1c73      	adds	r3, r6, #1
 800559e:	4652      	mov	r2, sl
 80055a0:	4313      	orrs	r3, r2
 80055a2:	433b      	orrs	r3, r7
 80055a4:	d112      	bne.n	80055cc <__kernel_tan+0x64>
 80055a6:	ec4b ab10 	vmov	d0, sl, fp
 80055aa:	f000 fbef 	bl	8005d8c <fabs>
 80055ae:	49d3      	ldr	r1, [pc, #844]	; (80058fc <__kernel_tan+0x394>)
 80055b0:	ec53 2b10 	vmov	r2, r3, d0
 80055b4:	2000      	movs	r0, #0
 80055b6:	f7fb f941 	bl	800083c <__aeabi_ddiv>
 80055ba:	4682      	mov	sl, r0
 80055bc:	468b      	mov	fp, r1
 80055be:	ec4b ab10 	vmov	d0, sl, fp
 80055c2:	b003      	add	sp, #12
 80055c4:	ecbd 8b06 	vpop	{d8-d10}
 80055c8:	e8bd 8ff0 	ldmia.w	sp!, {r4, r5, r6, r7, r8, r9, sl, fp, pc}
 80055cc:	2e01      	cmp	r6, #1
 80055ce:	d0f6      	beq.n	80055be <__kernel_tan+0x56>
 80055d0:	4642      	mov	r2, r8
 80055d2:	464b      	mov	r3, r9
 80055d4:	4650      	mov	r0, sl
 80055d6:	4659      	mov	r1, fp
 80055d8:	f7fa fe50 	bl	800027c <__adddf3>
 80055dc:	4602      	mov	r2, r0
 80055de:	460b      	mov	r3, r1
 80055e0:	460f      	mov	r7, r1
 80055e2:	2000      	movs	r0, #0
 80055e4:	49c6      	ldr	r1, [pc, #792]	; (8005900 <__kernel_tan+0x398>)
 80055e6:	f7fb f929 	bl	800083c <__aeabi_ddiv>
 80055ea:	e9cd 0100 	strd	r0, r1, [sp]
 80055ee:	e9dd 2300 	ldrd	r2, r3, [sp]
 80055f2:	462e      	mov	r6, r5
 80055f4:	4652      	mov	r2, sl
 80055f6:	462c      	mov	r4, r5
 80055f8:	4630      	mov	r0, r6
 80055fa:	461d      	mov	r5, r3
 80055fc:	4639      	mov	r1, r7
 80055fe:	465b      	mov	r3, fp
 8005600:	f7fa fe3a 	bl	8000278 <__aeabi_dsub>
 8005604:	4602      	mov	r2, r0
 8005606:	460b      	mov	r3, r1
 8005608:	4640      	mov	r0, r8
 800560a:	4649      	mov	r1, r9
 800560c:	f7fa fe34 	bl	8000278 <__aeabi_dsub>
 8005610:	4632      	mov	r2, r6
 8005612:	462b      	mov	r3, r5
 8005614:	f7fa ffe8 	bl	80005e8 <__aeabi_dmul>
 8005618:	4632      	mov	r2, r6
 800561a:	4680      	mov	r8, r0
 800561c:	4689      	mov	r9, r1
 800561e:	462b      	mov	r3, r5
 8005620:	4630      	mov	r0, r6
 8005622:	4639      	mov	r1, r7
 8005624:	f7fa ffe0 	bl	80005e8 <__aeabi_dmul>
 8005628:	4bb4      	ldr	r3, [pc, #720]	; (80058fc <__kernel_tan+0x394>)
 800562a:	2200      	movs	r2, #0
 800562c:	f7fa fe26 	bl	800027c <__adddf3>
 8005630:	4602      	mov	r2, r0
 8005632:	460b      	mov	r3, r1
 8005634:	4640      	mov	r0, r8
 8005636:	4649      	mov	r1, r9
 8005638:	f7fa fe20 	bl	800027c <__adddf3>
 800563c:	e9dd 2300 	ldrd	r2, r3, [sp]
 8005640:	f7fa ffd2 	bl	80005e8 <__aeabi_dmul>
 8005644:	4622      	mov	r2, r4
 8005646:	462b      	mov	r3, r5
 8005648:	f7fa fe18 	bl	800027c <__adddf3>
 800564c:	e7b5      	b.n	80055ba <__kernel_tan+0x52>
 800564e:	4bad      	ldr	r3, [pc, #692]	; (8005904 <__kernel_tan+0x39c>)
 8005650:	429f      	cmp	r7, r3
 8005652:	dd26      	ble.n	80056a2 <__kernel_tan+0x13a>
 8005654:	9b00      	ldr	r3, [sp, #0]
 8005656:	2b00      	cmp	r3, #0
 8005658:	da09      	bge.n	800566e <__kernel_tan+0x106>
 800565a:	f10b 4300 	add.w	r3, fp, #2147483648	; 0x80000000
 800565e:	469b      	mov	fp, r3
 8005660:	ee10 aa10 	vmov	sl, s0
 8005664:	f109 4300 	add.w	r3, r9, #2147483648	; 0x80000000
 8005668:	ee11 8a10 	vmov	r8, s2
 800566c:	4699      	mov	r9, r3
 800566e:	4652      	mov	r2, sl
 8005670:	465b      	mov	r3, fp
 8005672:	a183      	add	r1, pc, #524	; (adr r1, 8005880 <__kernel_tan+0x318>)
 8005674:	e9d1 0100 	ldrd	r0, r1, [r1]
 8005678:	f7fa fdfe 	bl	8000278 <__aeabi_dsub>
 800567c:	4642      	mov	r2, r8
 800567e:	464b      	mov	r3, r9
 8005680:	4604      	mov	r4, r0
 8005682:	460d      	mov	r5, r1
 8005684:	a180      	add	r1, pc, #512	; (adr r1, 8005888 <__kernel_tan+0x320>)
 8005686:	e9d1 0100 	ldrd	r0, r1, [r1]
 800568a:	f7fa fdf5 	bl	8000278 <__aeabi_dsub>
 800568e:	4622      	mov	r2, r4
 8005690:	462b      	mov	r3, r5
 8005692:	f7fa fdf3 	bl	800027c <__adddf3>
 8005696:	f04f 0800 	mov.w	r8, #0
 800569a:	4682      	mov	sl, r0
 800569c:	468b      	mov	fp, r1
 800569e:	f04f 0900 	mov.w	r9, #0
 80056a2:	4652      	mov	r2, sl
 80056a4:	465b      	mov	r3, fp
 80056a6:	4650      	mov	r0, sl
 80056a8:	4659      	mov	r1, fp
 80056aa:	f7fa ff9d 	bl	80005e8 <__aeabi_dmul>
 80056ae:	4602      	mov	r2, r0
 80056b0:	460b      	mov	r3, r1
 80056b2:	ec43 2b18 	vmov	d8, r2, r3
 80056b6:	f7fa ff97 	bl	80005e8 <__aeabi_dmul>
 80056ba:	ec53 2b18 	vmov	r2, r3, d8
 80056be:	4604      	mov	r4, r0
 80056c0:	460d      	mov	r5, r1
 80056c2:	4650      	mov	r0, sl
 80056c4:	4659      	mov	r1, fp
 80056c6:	f7fa ff8f 	bl	80005e8 <__aeabi_dmul>
 80056ca:	a371      	add	r3, pc, #452	; (adr r3, 8005890 <__kernel_tan+0x328>)
 80056cc:	e9d3 2300 	ldrd	r2, r3, [r3]
 80056d0:	ec41 0b19 	vmov	d9, r0, r1
 80056d4:	4620      	mov	r0, r4
 80056d6:	4629      	mov	r1, r5
 80056d8:	f7fa ff86 	bl	80005e8 <__aeabi_dmul>
 80056dc:	a36e      	add	r3, pc, #440	; (adr r3, 8005898 <__kernel_tan+0x330>)
 80056de:	e9d3 2300 	ldrd	r2, r3, [r3]
 80056e2:	f7fa fdcb 	bl	800027c <__adddf3>
 80056e6:	4622      	mov	r2, r4
 80056e8:	462b      	mov	r3, r5
 80056ea:	f7fa ff7d 	bl	80005e8 <__aeabi_dmul>
 80056ee:	a36c      	add	r3, pc, #432	; (adr r3, 80058a0 <__kernel_tan+0x338>)
 80056f0:	e9d3 2300 	ldrd	r2, r3, [r3]
 80056f4:	f7fa fdc2 	bl	800027c <__adddf3>
 80056f8:	4622      	mov	r2, r4
 80056fa:	462b      	mov	r3, r5
 80056fc:	f7fa ff74 	bl	80005e8 <__aeabi_dmul>
 8005700:	a369      	add	r3, pc, #420	; (adr r3, 80058a8 <__kernel_tan+0x340>)
 8005702:	e9d3 2300 	ldrd	r2, r3, [r3]
 8005706:	f7fa fdb9 	bl	800027c <__adddf3>
 800570a:	4622      	mov	r2, r4
 800570c:	462b      	mov	r3, r5
 800570e:	f7fa ff6b 	bl	80005e8 <__aeabi_dmul>
 8005712:	a367      	add	r3, pc, #412	; (adr r3, 80058b0 <__kernel_tan+0x348>)
 8005714:	e9d3 2300 	ldrd	r2, r3, [r3]
 8005718:	f7fa fdb0 	bl	800027c <__adddf3>
 800571c:	4622      	mov	r2, r4
 800571e:	462b      	mov	r3, r5
 8005720:	f7fa ff62 	bl	80005e8 <__aeabi_dmul>
 8005724:	a364      	add	r3, pc, #400	; (adr r3, 80058b8 <__kernel_tan+0x350>)
 8005726:	e9d3 2300 	ldrd	r2, r3, [r3]
 800572a:	f7fa fda7 	bl	800027c <__adddf3>
 800572e:	ec53 2b18 	vmov	r2, r3, d8
 8005732:	f7fa ff59 	bl	80005e8 <__aeabi_dmul>
 8005736:	a362      	add	r3, pc, #392	; (adr r3, 80058c0 <__kernel_tan+0x358>)
 8005738:	e9d3 2300 	ldrd	r2, r3, [r3]
 800573c:	ec41 0b1a 	vmov	d10, r0, r1
 8005740:	4620      	mov	r0, r4
 8005742:	4629      	mov	r1, r5
 8005744:	f7fa ff50 	bl	80005e8 <__aeabi_dmul>
 8005748:	a35f      	add	r3, pc, #380	; (adr r3, 80058c8 <__kernel_tan+0x360>)
 800574a:	e9d3 2300 	ldrd	r2, r3, [r3]
 800574e:	f7fa fd95 	bl	800027c <__adddf3>
 8005752:	4622      	mov	r2, r4
 8005754:	462b      	mov	r3, r5
 8005756:	f7fa ff47 	bl	80005e8 <__aeabi_dmul>
 800575a:	a35d      	add	r3, pc, #372	; (adr r3, 80058d0 <__kernel_tan+0x368>)
 800575c:	e9d3 2300 	ldrd	r2, r3, [r3]
 8005760:	f7fa fd8c 	bl	800027c <__adddf3>
 8005764:	4622      	mov	r2, r4
 8005766:	462b      	mov	r3, r5
 8005768:	f7fa ff3e 	bl	80005e8 <__aeabi_dmul>
 800576c:	a35a      	add	r3, pc, #360	; (adr r3, 80058d8 <__kernel_tan+0x370>)
 800576e:	e9d3 2300 	ldrd	r2, r3, [r3]
 8005772:	f7fa fd83 	bl	800027c <__adddf3>
 8005776:	4622      	mov	r2, r4
 8005778:	462b      	mov	r3, r5
 800577a:	f7fa ff35 	bl	80005e8 <__aeabi_dmul>
 800577e:	a358      	add	r3, pc, #352	; (adr r3, 80058e0 <__kernel_tan+0x378>)
 8005780:	e9d3 2300 	ldrd	r2, r3, [r3]
 8005784:	f7fa fd7a 	bl	800027c <__adddf3>
 8005788:	4622      	mov	r2, r4
 800578a:	462b      	mov	r3, r5
 800578c:	f7fa ff2c 	bl	80005e8 <__aeabi_dmul>
 8005790:	a355      	add	r3, pc, #340	; (adr r3, 80058e8 <__kernel_tan+0x380>)
 8005792:	e9d3 2300 	ldrd	r2, r3, [r3]
 8005796:	f7fa fd71 	bl	800027c <__adddf3>
 800579a:	4602      	mov	r2, r0
 800579c:	460b      	mov	r3, r1
 800579e:	ec51 0b1a 	vmov	r0, r1, d10
 80057a2:	f7fa fd6b 	bl	800027c <__adddf3>
 80057a6:	ec53 2b19 	vmov	r2, r3, d9
 80057aa:	f7fa ff1d 	bl	80005e8 <__aeabi_dmul>
 80057ae:	4642      	mov	r2, r8
 80057b0:	464b      	mov	r3, r9
 80057b2:	f7fa fd63 	bl	800027c <__adddf3>
 80057b6:	ec53 2b18 	vmov	r2, r3, d8
 80057ba:	f7fa ff15 	bl	80005e8 <__aeabi_dmul>
 80057be:	4642      	mov	r2, r8
 80057c0:	464b      	mov	r3, r9
 80057c2:	f7fa fd5b 	bl	800027c <__adddf3>
 80057c6:	a34a      	add	r3, pc, #296	; (adr r3, 80058f0 <__kernel_tan+0x388>)
 80057c8:	e9d3 2300 	ldrd	r2, r3, [r3]
 80057cc:	4604      	mov	r4, r0
 80057ce:	460d      	mov	r5, r1
 80057d0:	ec51 0b19 	vmov	r0, r1, d9
 80057d4:	f7fa ff08 	bl	80005e8 <__aeabi_dmul>
 80057d8:	4622      	mov	r2, r4
 80057da:	462b      	mov	r3, r5
 80057dc:	f7fa fd4e 	bl	800027c <__adddf3>
 80057e0:	460b      	mov	r3, r1
 80057e2:	ec41 0b18 	vmov	d8, r0, r1
 80057e6:	4602      	mov	r2, r0
 80057e8:	4659      	mov	r1, fp
 80057ea:	4650      	mov	r0, sl
 80057ec:	f7fa fd46 	bl	800027c <__adddf3>
 80057f0:	4b44      	ldr	r3, [pc, #272]	; (8005904 <__kernel_tan+0x39c>)
 80057f2:	429f      	cmp	r7, r3
 80057f4:	4604      	mov	r4, r0
 80057f6:	460d      	mov	r5, r1
 80057f8:	f340 8086 	ble.w	8005908 <__kernel_tan+0x3a0>
 80057fc:	4630      	mov	r0, r6
 80057fe:	f7fa fe89 	bl	8000514 <__aeabi_i2d>
 8005802:	4622      	mov	r2, r4
 8005804:	4680      	mov	r8, r0
 8005806:	4689      	mov	r9, r1
 8005808:	462b      	mov	r3, r5
 800580a:	4620      	mov	r0, r4
 800580c:	4629      	mov	r1, r5
 800580e:	f7fa feeb 	bl	80005e8 <__aeabi_dmul>
 8005812:	4642      	mov	r2, r8
 8005814:	4606      	mov	r6, r0
 8005816:	460f      	mov	r7, r1
 8005818:	464b      	mov	r3, r9
 800581a:	4620      	mov	r0, r4
 800581c:	4629      	mov	r1, r5
 800581e:	f7fa fd2d 	bl	800027c <__adddf3>
 8005822:	4602      	mov	r2, r0
 8005824:	460b      	mov	r3, r1
 8005826:	4630      	mov	r0, r6
 8005828:	4639      	mov	r1, r7
 800582a:	f7fb f807 	bl	800083c <__aeabi_ddiv>
 800582e:	ec53 2b18 	vmov	r2, r3, d8
 8005832:	f7fa fd21 	bl	8000278 <__aeabi_dsub>
 8005836:	4602      	mov	r2, r0
 8005838:	460b      	mov	r3, r1
 800583a:	4650      	mov	r0, sl
 800583c:	4659      	mov	r1, fp
 800583e:	f7fa fd1b 	bl	8000278 <__aeabi_dsub>
 8005842:	4602      	mov	r2, r0
 8005844:	460b      	mov	r3, r1
 8005846:	f7fa fd19 	bl	800027c <__adddf3>
 800584a:	4602      	mov	r2, r0
 800584c:	460b      	mov	r3, r1
 800584e:	4640      	mov	r0, r8
 8005850:	4649      	mov	r1, r9
 8005852:	f7fa fd11 	bl	8000278 <__aeabi_dsub>
 8005856:	9b00      	ldr	r3, [sp, #0]
 8005858:	ea4f 7aa3 	mov.w	sl, r3, asr #30
 800585c:	f00a 0a02 	and.w	sl, sl, #2
 8005860:	4604      	mov	r4, r0
 8005862:	f1ca 0001 	rsb	r0, sl, #1
 8005866:	460d      	mov	r5, r1
 8005868:	f7fa fe54 	bl	8000514 <__aeabi_i2d>
 800586c:	4602      	mov	r2, r0
 800586e:	460b      	mov	r3, r1
 8005870:	4620      	mov	r0, r4
 8005872:	4629      	mov	r1, r5
 8005874:	f7fa feb8 	bl	80005e8 <__aeabi_dmul>
 8005878:	e69f      	b.n	80055ba <__kernel_tan+0x52>
 800587a:	bf00      	nop
 800587c:	f3af 8000 	nop.w
 8005880:	54442d18 	.word	0x54442d18
 8005884:	3fe921fb 	.word	0x3fe921fb
 8005888:	33145c07 	.word	0x33145c07
 800588c:	3c81a626 	.word	0x3c81a626
 8005890:	74bf7ad4 	.word	0x74bf7ad4
 8005894:	3efb2a70 	.word	0x3efb2a70
 8005898:	32f0a7e9 	.word	0x32f0a7e9
 800589c:	3f12b80f 	.word	0x3f12b80f
 80058a0:	1a8d1068 	.word	0x1a8d1068
 80058a4:	3f3026f7 	.word	0x3f3026f7
 80058a8:	fee08315 	.word	0xfee08315
 80058ac:	3f57dbc8 	.word	0x3f57dbc8
 80058b0:	e96e8493 	.word	0xe96e8493
 80058b4:	3f8226e3 	.word	0x3f8226e3
 80058b8:	1bb341fe 	.word	0x1bb341fe
 80058bc:	3faba1ba 	.word	0x3faba1ba
 80058c0:	db605373 	.word	0xdb605373
 80058c4:	bef375cb 	.word	0xbef375cb
 80058c8:	a03792a6 	.word	0xa03792a6
 80058cc:	3f147e88 	.word	0x3f147e88
 80058d0:	f2f26501 	.word	0xf2f26501
 80058d4:	3f4344d8 	.word	0x3f4344d8
 80058d8:	c9560328 	.word	0xc9560328
 80058dc:	3f6d6d22 	.word	0x3f6d6d22
 80058e0:	8406d637 	.word	0x8406d637
 80058e4:	3f9664f4 	.word	0x3f9664f4
 80058e8:	1110fe7a 	.word	0x1110fe7a
 80058ec:	3fc11111 	.word	0x3fc11111
 80058f0:	55555563 	.word	0x55555563
 80058f4:	3fd55555 	.word	0x3fd55555
 80058f8:	3e2fffff 	.word	0x3e2fffff
 80058fc:	3ff00000 	.word	0x3ff00000
 8005900:	bff00000 	.word	0xbff00000
 8005904:	3fe59427 	.word	0x3fe59427
 8005908:	2e01      	cmp	r6, #1
 800590a:	d02f      	beq.n	800596c <__kernel_tan+0x404>
 800590c:	460f      	mov	r7, r1
 800590e:	4602      	mov	r2, r0
 8005910:	460b      	mov	r3, r1
 8005912:	4689      	mov	r9, r1
 8005914:	2000      	movs	r0, #0
 8005916:	4917      	ldr	r1, [pc, #92]	; (8005974 <__kernel_tan+0x40c>)
 8005918:	f7fa ff90 	bl	800083c <__aeabi_ddiv>
 800591c:	2600      	movs	r6, #0
 800591e:	e9cd 0100 	strd	r0, r1, [sp]
 8005922:	4652      	mov	r2, sl
 8005924:	465b      	mov	r3, fp
 8005926:	4630      	mov	r0, r6
 8005928:	4639      	mov	r1, r7
 800592a:	f7fa fca5 	bl	8000278 <__aeabi_dsub>
 800592e:	e9dd 4500 	ldrd	r4, r5, [sp]
 8005932:	4602      	mov	r2, r0
 8005934:	460b      	mov	r3, r1
 8005936:	ec51 0b18 	vmov	r0, r1, d8
 800593a:	f7fa fc9d 	bl	8000278 <__aeabi_dsub>
 800593e:	4632      	mov	r2, r6
 8005940:	462b      	mov	r3, r5
 8005942:	f7fa fe51 	bl	80005e8 <__aeabi_dmul>
 8005946:	46b0      	mov	r8, r6
 8005948:	460f      	mov	r7, r1
 800594a:	4642      	mov	r2, r8
 800594c:	462b      	mov	r3, r5
 800594e:	4634      	mov	r4, r6
 8005950:	4649      	mov	r1, r9
 8005952:	4606      	mov	r6, r0
 8005954:	4640      	mov	r0, r8
 8005956:	f7fa fe47 	bl	80005e8 <__aeabi_dmul>
 800595a:	4b07      	ldr	r3, [pc, #28]	; (8005978 <__kernel_tan+0x410>)
 800595c:	2200      	movs	r2, #0
 800595e:	f7fa fc8d 	bl	800027c <__adddf3>
 8005962:	4602      	mov	r2, r0
 8005964:	460b      	mov	r3, r1
 8005966:	4630      	mov	r0, r6
 8005968:	4639      	mov	r1, r7
 800596a:	e665      	b.n	8005638 <__kernel_tan+0xd0>
 800596c:	4682      	mov	sl, r0
 800596e:	468b      	mov	fp, r1
 8005970:	e625      	b.n	80055be <__kernel_tan+0x56>
 8005972:	bf00      	nop
 8005974:	bff00000 	.word	0xbff00000
 8005978:	3ff00000 	.word	0x3ff00000
 800597c:	00000000 	.word	0x00000000

08005980 <__ieee754_rem_pio2>:
 8005980:	e92d 4ff0 	stmdb	sp!, {r4, r5, r6, r7, r8, r9, sl, fp, lr}
 8005984:	ed2d 8b02 	vpush	{d8}
 8005988:	ec55 4b10 	vmov	r4, r5, d0
 800598c:	4bca      	ldr	r3, [pc, #808]	; (8005cb8 <__ieee754_rem_pio2+0x338>)
 800598e:	b08b      	sub	sp, #44	; 0x2c
 8005990:	f025 4800 	bic.w	r8, r5, #2147483648	; 0x80000000
 8005994:	4598      	cmp	r8, r3
 8005996:	4682      	mov	sl, r0
 8005998:	9502      	str	r5, [sp, #8]
 800599a:	dc08      	bgt.n	80059ae <__ieee754_rem_pio2+0x2e>
 800599c:	2200      	movs	r2, #0
 800599e:	2300      	movs	r3, #0
 80059a0:	ed80 0b00 	vstr	d0, [r0]
 80059a4:	e9c0 2302 	strd	r2, r3, [r0, #8]
 80059a8:	f04f 0b00 	mov.w	fp, #0
 80059ac:	e028      	b.n	8005a00 <__ieee754_rem_pio2+0x80>
 80059ae:	4bc3      	ldr	r3, [pc, #780]	; (8005cbc <__ieee754_rem_pio2+0x33c>)
 80059b0:	4598      	cmp	r8, r3
 80059b2:	dc78      	bgt.n	8005aa6 <__ieee754_rem_pio2+0x126>
 80059b4:	9b02      	ldr	r3, [sp, #8]
 80059b6:	4ec2      	ldr	r6, [pc, #776]	; (8005cc0 <__ieee754_rem_pio2+0x340>)
 80059b8:	2b00      	cmp	r3, #0
 80059ba:	ee10 0a10 	vmov	r0, s0
 80059be:	a3b0      	add	r3, pc, #704	; (adr r3, 8005c80 <__ieee754_rem_pio2+0x300>)
 80059c0:	e9d3 2300 	ldrd	r2, r3, [r3]
 80059c4:	4629      	mov	r1, r5
 80059c6:	dd39      	ble.n	8005a3c <__ieee754_rem_pio2+0xbc>
 80059c8:	f7fa fc56 	bl	8000278 <__aeabi_dsub>
 80059cc:	45b0      	cmp	r8, r6
 80059ce:	4604      	mov	r4, r0
 80059d0:	460d      	mov	r5, r1
 80059d2:	d01b      	beq.n	8005a0c <__ieee754_rem_pio2+0x8c>
 80059d4:	a3ac      	add	r3, pc, #688	; (adr r3, 8005c88 <__ieee754_rem_pio2+0x308>)
 80059d6:	e9d3 2300 	ldrd	r2, r3, [r3]
 80059da:	f7fa fc4d 	bl	8000278 <__aeabi_dsub>
 80059de:	4602      	mov	r2, r0
 80059e0:	460b      	mov	r3, r1
 80059e2:	e9ca 2300 	strd	r2, r3, [sl]
 80059e6:	4620      	mov	r0, r4
 80059e8:	4629      	mov	r1, r5
 80059ea:	f7fa fc45 	bl	8000278 <__aeabi_dsub>
 80059ee:	a3a6      	add	r3, pc, #664	; (adr r3, 8005c88 <__ieee754_rem_pio2+0x308>)
 80059f0:	e9d3 2300 	ldrd	r2, r3, [r3]
 80059f4:	f7fa fc40 	bl	8000278 <__aeabi_dsub>
 80059f8:	e9ca 0102 	strd	r0, r1, [sl, #8]
 80059fc:	f04f 0b01 	mov.w	fp, #1
 8005a00:	4658      	mov	r0, fp
 8005a02:	b00b      	add	sp, #44	; 0x2c
 8005a04:	ecbd 8b02 	vpop	{d8}
 8005a08:	e8bd 8ff0 	ldmia.w	sp!, {r4, r5, r6, r7, r8, r9, sl, fp, pc}
 8005a0c:	a3a0      	add	r3, pc, #640	; (adr r3, 8005c90 <__ieee754_rem_pio2+0x310>)
 8005a0e:	e9d3 2300 	ldrd	r2, r3, [r3]
 8005a12:	f7fa fc31 	bl	8000278 <__aeabi_dsub>
 8005a16:	a3a0      	add	r3, pc, #640	; (adr r3, 8005c98 <__ieee754_rem_pio2+0x318>)
 8005a18:	e9d3 2300 	ldrd	r2, r3, [r3]
 8005a1c:	4604      	mov	r4, r0
 8005a1e:	460d      	mov	r5, r1
 8005a20:	f7fa fc2a 	bl	8000278 <__aeabi_dsub>
 8005a24:	4602      	mov	r2, r0
 8005a26:	460b      	mov	r3, r1
 8005a28:	e9ca 2300 	strd	r2, r3, [sl]
 8005a2c:	4620      	mov	r0, r4
 8005a2e:	4629      	mov	r1, r5
 8005a30:	f7fa fc22 	bl	8000278 <__aeabi_dsub>
 8005a34:	a398      	add	r3, pc, #608	; (adr r3, 8005c98 <__ieee754_rem_pio2+0x318>)
 8005a36:	e9d3 2300 	ldrd	r2, r3, [r3]
 8005a3a:	e7db      	b.n	80059f4 <__ieee754_rem_pio2+0x74>
 8005a3c:	f7fa fc1e 	bl	800027c <__adddf3>
 8005a40:	45b0      	cmp	r8, r6
 8005a42:	4604      	mov	r4, r0
 8005a44:	460d      	mov	r5, r1
 8005a46:	d016      	beq.n	8005a76 <__ieee754_rem_pio2+0xf6>
 8005a48:	a38f      	add	r3, pc, #572	; (adr r3, 8005c88 <__ieee754_rem_pio2+0x308>)
 8005a4a:	e9d3 2300 	ldrd	r2, r3, [r3]
 8005a4e:	f7fa fc15 	bl	800027c <__adddf3>
 8005a52:	4602      	mov	r2, r0
 8005a54:	460b      	mov	r3, r1
 8005a56:	e9ca 2300 	strd	r2, r3, [sl]
 8005a5a:	4620      	mov	r0, r4
 8005a5c:	4629      	mov	r1, r5
 8005a5e:	f7fa fc0b 	bl	8000278 <__aeabi_dsub>
 8005a62:	a389      	add	r3, pc, #548	; (adr r3, 8005c88 <__ieee754_rem_pio2+0x308>)
 8005a64:	e9d3 2300 	ldrd	r2, r3, [r3]
 8005a68:	f7fa fc08 	bl	800027c <__adddf3>
 8005a6c:	f04f 3bff 	mov.w	fp, #4294967295
 8005a70:	e9ca 0102 	strd	r0, r1, [sl, #8]
 8005a74:	e7c4      	b.n	8005a00 <__ieee754_rem_pio2+0x80>
 8005a76:	a386      	add	r3, pc, #536	; (adr r3, 8005c90 <__ieee754_rem_pio2+0x310>)
 8005a78:	e9d3 2300 	ldrd	r2, r3, [r3]
 8005a7c:	f7fa fbfe 	bl	800027c <__adddf3>
 8005a80:	a385      	add	r3, pc, #532	; (adr r3, 8005c98 <__ieee754_rem_pio2+0x318>)
 8005a82:	e9d3 2300 	ldrd	r2, r3, [r3]
 8005a86:	4604      	mov	r4, r0
 8005a88:	460d      	mov	r5, r1
 8005a8a:	f7fa fbf7 	bl	800027c <__adddf3>
 8005a8e:	4602      	mov	r2, r0
 8005a90:	460b      	mov	r3, r1
 8005a92:	e9ca 2300 	strd	r2, r3, [sl]
 8005a96:	4620      	mov	r0, r4
 8005a98:	4629      	mov	r1, r5
 8005a9a:	f7fa fbed 	bl	8000278 <__aeabi_dsub>
 8005a9e:	a37e      	add	r3, pc, #504	; (adr r3, 8005c98 <__ieee754_rem_pio2+0x318>)
 8005aa0:	e9d3 2300 	ldrd	r2, r3, [r3]
 8005aa4:	e7e0      	b.n	8005a68 <__ieee754_rem_pio2+0xe8>
 8005aa6:	4b87      	ldr	r3, [pc, #540]	; (8005cc4 <__ieee754_rem_pio2+0x344>)
 8005aa8:	4598      	cmp	r8, r3
 8005aaa:	f300 80d8 	bgt.w	8005c5e <__ieee754_rem_pio2+0x2de>
 8005aae:	f000 f96d 	bl	8005d8c <fabs>
 8005ab2:	ec55 4b10 	vmov	r4, r5, d0
 8005ab6:	ee10 0a10 	vmov	r0, s0
 8005aba:	a379      	add	r3, pc, #484	; (adr r3, 8005ca0 <__ieee754_rem_pio2+0x320>)
 8005abc:	e9d3 2300 	ldrd	r2, r3, [r3]
 8005ac0:	4629      	mov	r1, r5
 8005ac2:	f7fa fd91 	bl	80005e8 <__aeabi_dmul>
 8005ac6:	4b80      	ldr	r3, [pc, #512]	; (8005cc8 <__ieee754_rem_pio2+0x348>)
 8005ac8:	2200      	movs	r2, #0
 8005aca:	f7fa fbd7 	bl	800027c <__adddf3>
 8005ace:	f7fb f825 	bl	8000b1c <__aeabi_d2iz>
 8005ad2:	4683      	mov	fp, r0
 8005ad4:	f7fa fd1e 	bl	8000514 <__aeabi_i2d>
 8005ad8:	4602      	mov	r2, r0
 8005ada:	460b      	mov	r3, r1
 8005adc:	ec43 2b18 	vmov	d8, r2, r3
 8005ae0:	a367      	add	r3, pc, #412	; (adr r3, 8005c80 <__ieee754_rem_pio2+0x300>)
 8005ae2:	e9d3 2300 	ldrd	r2, r3, [r3]
 8005ae6:	f7fa fd7f 	bl	80005e8 <__aeabi_dmul>
 8005aea:	4602      	mov	r2, r0
 8005aec:	460b      	mov	r3, r1
 8005aee:	4620      	mov	r0, r4
 8005af0:	4629      	mov	r1, r5
 8005af2:	f7fa fbc1 	bl	8000278 <__aeabi_dsub>
 8005af6:	a364      	add	r3, pc, #400	; (adr r3, 8005c88 <__ieee754_rem_pio2+0x308>)
 8005af8:	e9d3 2300 	ldrd	r2, r3, [r3]
 8005afc:	4606      	mov	r6, r0
 8005afe:	460f      	mov	r7, r1
 8005b00:	ec51 0b18 	vmov	r0, r1, d8
 8005b04:	f7fa fd70 	bl	80005e8 <__aeabi_dmul>
 8005b08:	f1bb 0f1f 	cmp.w	fp, #31
 8005b0c:	4604      	mov	r4, r0
 8005b0e:	460d      	mov	r5, r1
 8005b10:	dc0d      	bgt.n	8005b2e <__ieee754_rem_pio2+0x1ae>
 8005b12:	4b6e      	ldr	r3, [pc, #440]	; (8005ccc <__ieee754_rem_pio2+0x34c>)
 8005b14:	f10b 32ff 	add.w	r2, fp, #4294967295
 8005b18:	f853 3022 	ldr.w	r3, [r3, r2, lsl #2]
 8005b1c:	4543      	cmp	r3, r8
 8005b1e:	d006      	beq.n	8005b2e <__ieee754_rem_pio2+0x1ae>
 8005b20:	4622      	mov	r2, r4
 8005b22:	462b      	mov	r3, r5
 8005b24:	4630      	mov	r0, r6
 8005b26:	4639      	mov	r1, r7
 8005b28:	f7fa fba6 	bl	8000278 <__aeabi_dsub>
 8005b2c:	e00e      	b.n	8005b4c <__ieee754_rem_pio2+0x1cc>
 8005b2e:	462b      	mov	r3, r5
 8005b30:	4622      	mov	r2, r4
 8005b32:	4630      	mov	r0, r6
 8005b34:	4639      	mov	r1, r7
 8005b36:	f7fa fb9f 	bl	8000278 <__aeabi_dsub>
 8005b3a:	ea4f 5328 	mov.w	r3, r8, asr #20
 8005b3e:	9303      	str	r3, [sp, #12]
 8005b40:	f3c1 530a 	ubfx	r3, r1, #20, #11
 8005b44:	ebc3 5318 	rsb	r3, r3, r8, lsr #20
 8005b48:	2b10      	cmp	r3, #16
 8005b4a:	dc02      	bgt.n	8005b52 <__ieee754_rem_pio2+0x1d2>
 8005b4c:	e9ca 0100 	strd	r0, r1, [sl]
 8005b50:	e039      	b.n	8005bc6 <__ieee754_rem_pio2+0x246>
 8005b52:	a34f      	add	r3, pc, #316	; (adr r3, 8005c90 <__ieee754_rem_pio2+0x310>)
 8005b54:	e9d3 2300 	ldrd	r2, r3, [r3]
 8005b58:	ec51 0b18 	vmov	r0, r1, d8
 8005b5c:	f7fa fd44 	bl	80005e8 <__aeabi_dmul>
 8005b60:	4604      	mov	r4, r0
 8005b62:	460d      	mov	r5, r1
 8005b64:	4602      	mov	r2, r0
 8005b66:	460b      	mov	r3, r1
 8005b68:	4630      	mov	r0, r6
 8005b6a:	4639      	mov	r1, r7
 8005b6c:	f7fa fb84 	bl	8000278 <__aeabi_dsub>
 8005b70:	4602      	mov	r2, r0
 8005b72:	460b      	mov	r3, r1
 8005b74:	4680      	mov	r8, r0
 8005b76:	4689      	mov	r9, r1
 8005b78:	4630      	mov	r0, r6
 8005b7a:	4639      	mov	r1, r7
 8005b7c:	f7fa fb7c 	bl	8000278 <__aeabi_dsub>
 8005b80:	4622      	mov	r2, r4
 8005b82:	462b      	mov	r3, r5
 8005b84:	f7fa fb78 	bl	8000278 <__aeabi_dsub>
 8005b88:	a343      	add	r3, pc, #268	; (adr r3, 8005c98 <__ieee754_rem_pio2+0x318>)
 8005b8a:	e9d3 2300 	ldrd	r2, r3, [r3]
 8005b8e:	4604      	mov	r4, r0
 8005b90:	460d      	mov	r5, r1
 8005b92:	ec51 0b18 	vmov	r0, r1, d8
 8005b96:	f7fa fd27 	bl	80005e8 <__aeabi_dmul>
 8005b9a:	4622      	mov	r2, r4
 8005b9c:	462b      	mov	r3, r5
 8005b9e:	f7fa fb6b 	bl	8000278 <__aeabi_dsub>
 8005ba2:	4602      	mov	r2, r0
 8005ba4:	460b      	mov	r3, r1
 8005ba6:	4604      	mov	r4, r0
 8005ba8:	460d      	mov	r5, r1
 8005baa:	4640      	mov	r0, r8
 8005bac:	4649      	mov	r1, r9
 8005bae:	f7fa fb63 	bl	8000278 <__aeabi_dsub>
 8005bb2:	9a03      	ldr	r2, [sp, #12]
 8005bb4:	f3c1 530a 	ubfx	r3, r1, #20, #11
 8005bb8:	1ad3      	subs	r3, r2, r3
 8005bba:	2b31      	cmp	r3, #49	; 0x31
 8005bbc:	dc24      	bgt.n	8005c08 <__ieee754_rem_pio2+0x288>
 8005bbe:	e9ca 0100 	strd	r0, r1, [sl]
 8005bc2:	4646      	mov	r6, r8
 8005bc4:	464f      	mov	r7, r9
 8005bc6:	e9da 8900 	ldrd	r8, r9, [sl]
 8005bca:	4630      	mov	r0, r6
 8005bcc:	4642      	mov	r2, r8
 8005bce:	464b      	mov	r3, r9
 8005bd0:	4639      	mov	r1, r7
 8005bd2:	f7fa fb51 	bl	8000278 <__aeabi_dsub>
 8005bd6:	462b      	mov	r3, r5
 8005bd8:	4622      	mov	r2, r4
 8005bda:	f7fa fb4d 	bl	8000278 <__aeabi_dsub>
 8005bde:	9b02      	ldr	r3, [sp, #8]
 8005be0:	2b00      	cmp	r3, #0
 8005be2:	e9ca 0102 	strd	r0, r1, [sl, #8]
 8005be6:	f6bf af0b 	bge.w	8005a00 <__ieee754_rem_pio2+0x80>
 8005bea:	f109 4300 	add.w	r3, r9, #2147483648	; 0x80000000
 8005bee:	f8ca 3004 	str.w	r3, [sl, #4]
 8005bf2:	f101 4300 	add.w	r3, r1, #2147483648	; 0x80000000
 8005bf6:	f8ca 8000 	str.w	r8, [sl]
 8005bfa:	f8ca 0008 	str.w	r0, [sl, #8]
 8005bfe:	f8ca 300c 	str.w	r3, [sl, #12]
 8005c02:	f1cb 0b00 	rsb	fp, fp, #0
 8005c06:	e6fb      	b.n	8005a00 <__ieee754_rem_pio2+0x80>
 8005c08:	a327      	add	r3, pc, #156	; (adr r3, 8005ca8 <__ieee754_rem_pio2+0x328>)
 8005c0a:	e9d3 2300 	ldrd	r2, r3, [r3]
 8005c0e:	ec51 0b18 	vmov	r0, r1, d8
 8005c12:	f7fa fce9 	bl	80005e8 <__aeabi_dmul>
 8005c16:	4604      	mov	r4, r0
 8005c18:	460d      	mov	r5, r1
 8005c1a:	4602      	mov	r2, r0
 8005c1c:	460b      	mov	r3, r1
 8005c1e:	4640      	mov	r0, r8
 8005c20:	4649      	mov	r1, r9
 8005c22:	f7fa fb29 	bl	8000278 <__aeabi_dsub>
 8005c26:	4602      	mov	r2, r0
 8005c28:	460b      	mov	r3, r1
 8005c2a:	4606      	mov	r6, r0
 8005c2c:	460f      	mov	r7, r1
 8005c2e:	4640      	mov	r0, r8
 8005c30:	4649      	mov	r1, r9
 8005c32:	f7fa fb21 	bl	8000278 <__aeabi_dsub>
 8005c36:	4622      	mov	r2, r4
 8005c38:	462b      	mov	r3, r5
 8005c3a:	f7fa fb1d 	bl	8000278 <__aeabi_dsub>
 8005c3e:	a31c      	add	r3, pc, #112	; (adr r3, 8005cb0 <__ieee754_rem_pio2+0x330>)
 8005c40:	e9d3 2300 	ldrd	r2, r3, [r3]
 8005c44:	4604      	mov	r4, r0
 8005c46:	460d      	mov	r5, r1
 8005c48:	ec51 0b18 	vmov	r0, r1, d8
 8005c4c:	f7fa fccc 	bl	80005e8 <__aeabi_dmul>
 8005c50:	4622      	mov	r2, r4
 8005c52:	462b      	mov	r3, r5
 8005c54:	f7fa fb10 	bl	8000278 <__aeabi_dsub>
 8005c58:	4604      	mov	r4, r0
 8005c5a:	460d      	mov	r5, r1
 8005c5c:	e760      	b.n	8005b20 <__ieee754_rem_pio2+0x1a0>
 8005c5e:	4b1c      	ldr	r3, [pc, #112]	; (8005cd0 <__ieee754_rem_pio2+0x350>)
 8005c60:	4598      	cmp	r8, r3
 8005c62:	dd37      	ble.n	8005cd4 <__ieee754_rem_pio2+0x354>
 8005c64:	ee10 2a10 	vmov	r2, s0
 8005c68:	462b      	mov	r3, r5
 8005c6a:	4620      	mov	r0, r4
 8005c6c:	4629      	mov	r1, r5
 8005c6e:	f7fa fb03 	bl	8000278 <__aeabi_dsub>
 8005c72:	e9ca 0102 	strd	r0, r1, [sl, #8]
 8005c76:	e9ca 0100 	strd	r0, r1, [sl]
 8005c7a:	e695      	b.n	80059a8 <__ieee754_rem_pio2+0x28>
 8005c7c:	f3af 8000 	nop.w
 8005c80:	54400000 	.word	0x54400000
 8005c84:	3ff921fb 	.word	0x3ff921fb
 8005c88:	1a626331 	.word	0x1a626331
 8005c8c:	3dd0b461 	.word	0x3dd0b461
 8005c90:	1a600000 	.word	0x1a600000
 8005c94:	3dd0b461 	.word	0x3dd0b461
 8005c98:	2e037073 	.word	0x2e037073
 8005c9c:	3ba3198a 	.word	0x3ba3198a
 8005ca0:	6dc9c883 	.word	0x6dc9c883
 8005ca4:	3fe45f30 	.word	0x3fe45f30
 8005ca8:	2e000000 	.word	0x2e000000
 8005cac:	3ba3198a 	.word	0x3ba3198a
 8005cb0:	252049c1 	.word	0x252049c1
 8005cb4:	397b839a 	.word	0x397b839a
 8005cb8:	3fe921fb 	.word	0x3fe921fb
 8005cbc:	4002d97b 	.word	0x4002d97b
 8005cc0:	3ff921fb 	.word	0x3ff921fb
 8005cc4:	413921fb 	.word	0x413921fb
 8005cc8:	3fe00000 	.word	0x3fe00000
 8005ccc:	08006714 	.word	0x08006714
 8005cd0:	7fefffff 	.word	0x7fefffff
 8005cd4:	ea4f 5628 	mov.w	r6, r8, asr #20
 8005cd8:	f2a6 4616 	subw	r6, r6, #1046	; 0x416
 8005cdc:	eba8 5106 	sub.w	r1, r8, r6, lsl #20
 8005ce0:	4620      	mov	r0, r4
 8005ce2:	460d      	mov	r5, r1
 8005ce4:	f7fa ff1a 	bl	8000b1c <__aeabi_d2iz>
 8005ce8:	f7fa fc14 	bl	8000514 <__aeabi_i2d>
 8005cec:	4602      	mov	r2, r0
 8005cee:	460b      	mov	r3, r1
 8005cf0:	4620      	mov	r0, r4
 8005cf2:	4629      	mov	r1, r5
 8005cf4:	e9cd 2304 	strd	r2, r3, [sp, #16]
 8005cf8:	f7fa fabe 	bl	8000278 <__aeabi_dsub>
 8005cfc:	4b21      	ldr	r3, [pc, #132]	; (8005d84 <__ieee754_rem_pio2+0x404>)
 8005cfe:	2200      	movs	r2, #0
 8005d00:	f7fa fc72 	bl	80005e8 <__aeabi_dmul>
 8005d04:	460d      	mov	r5, r1
 8005d06:	4604      	mov	r4, r0
 8005d08:	f7fa ff08 	bl	8000b1c <__aeabi_d2iz>
 8005d0c:	f7fa fc02 	bl	8000514 <__aeabi_i2d>
 8005d10:	4602      	mov	r2, r0
 8005d12:	460b      	mov	r3, r1
 8005d14:	4620      	mov	r0, r4
 8005d16:	4629      	mov	r1, r5
 8005d18:	e9cd 2306 	strd	r2, r3, [sp, #24]
 8005d1c:	f7fa faac 	bl	8000278 <__aeabi_dsub>
 8005d20:	4b18      	ldr	r3, [pc, #96]	; (8005d84 <__ieee754_rem_pio2+0x404>)
 8005d22:	2200      	movs	r2, #0
 8005d24:	f7fa fc60 	bl	80005e8 <__aeabi_dmul>
 8005d28:	e9cd 0108 	strd	r0, r1, [sp, #32]
 8005d2c:	f10d 0828 	add.w	r8, sp, #40	; 0x28
 8005d30:	2703      	movs	r7, #3
 8005d32:	2400      	movs	r4, #0
 8005d34:	2500      	movs	r5, #0
 8005d36:	e978 0102 	ldrd	r0, r1, [r8, #-8]!
 8005d3a:	4622      	mov	r2, r4
 8005d3c:	462b      	mov	r3, r5
 8005d3e:	46b9      	mov	r9, r7
 8005d40:	3f01      	subs	r7, #1
 8005d42:	f7fa feb9 	bl	8000ab8 <__aeabi_dcmpeq>
 8005d46:	2800      	cmp	r0, #0
 8005d48:	d1f5      	bne.n	8005d36 <__ieee754_rem_pio2+0x3b6>
 8005d4a:	4b0f      	ldr	r3, [pc, #60]	; (8005d88 <__ieee754_rem_pio2+0x408>)
 8005d4c:	9301      	str	r3, [sp, #4]
 8005d4e:	2302      	movs	r3, #2
 8005d50:	9300      	str	r3, [sp, #0]
 8005d52:	4632      	mov	r2, r6
 8005d54:	464b      	mov	r3, r9
 8005d56:	4651      	mov	r1, sl
 8005d58:	a804      	add	r0, sp, #16
 8005d5a:	f000 f821 	bl	8005da0 <__kernel_rem_pio2>
 8005d5e:	9b02      	ldr	r3, [sp, #8]
 8005d60:	2b00      	cmp	r3, #0
 8005d62:	4683      	mov	fp, r0
 8005d64:	f6bf ae4c 	bge.w	8005a00 <__ieee754_rem_pio2+0x80>
 8005d68:	e9da 2100 	ldrd	r2, r1, [sl]
 8005d6c:	f101 4300 	add.w	r3, r1, #2147483648	; 0x80000000
 8005d70:	e9ca 2300 	strd	r2, r3, [sl]
 8005d74:	e9da 2102 	ldrd	r2, r1, [sl, #8]
 8005d78:	f101 4300 	add.w	r3, r1, #2147483648	; 0x80000000
 8005d7c:	e9ca 2302 	strd	r2, r3, [sl, #8]
 8005d80:	e73f      	b.n	8005c02 <__ieee754_rem_pio2+0x282>
 8005d82:	bf00      	nop
 8005d84:	41700000 	.word	0x41700000
 8005d88:	08006794 	.word	0x08006794

08005d8c <fabs>:
 8005d8c:	ec51 0b10 	vmov	r0, r1, d0
 8005d90:	ee10 2a10 	vmov	r2, s0
 8005d94:	f021 4300 	bic.w	r3, r1, #2147483648	; 0x80000000
 8005d98:	ec43 2b10 	vmov	d0, r2, r3
 8005d9c:	4770      	bx	lr
	...

08005da0 <__kernel_rem_pio2>:
 8005da0:	e92d 4ff0 	stmdb	sp!, {r4, r5, r6, r7, r8, r9, sl, fp, lr}
 8005da4:	ed2d 8b02 	vpush	{d8}
 8005da8:	f5ad 7d19 	sub.w	sp, sp, #612	; 0x264
 8005dac:	f112 0f14 	cmn.w	r2, #20
 8005db0:	9306      	str	r3, [sp, #24]
 8005db2:	9104      	str	r1, [sp, #16]
 8005db4:	4bc2      	ldr	r3, [pc, #776]	; (80060c0 <__kernel_rem_pio2+0x320>)
 8005db6:	99a4      	ldr	r1, [sp, #656]	; 0x290
 8005db8:	9009      	str	r0, [sp, #36]	; 0x24
 8005dba:	f853 3021 	ldr.w	r3, [r3, r1, lsl #2]
 8005dbe:	9300      	str	r3, [sp, #0]
 8005dc0:	9b06      	ldr	r3, [sp, #24]
 8005dc2:	f103 33ff 	add.w	r3, r3, #4294967295
 8005dc6:	bfa8      	it	ge
 8005dc8:	1ed4      	subge	r4, r2, #3
 8005dca:	9305      	str	r3, [sp, #20]
 8005dcc:	bfb2      	itee	lt
 8005dce:	2400      	movlt	r4, #0
 8005dd0:	2318      	movge	r3, #24
 8005dd2:	fb94 f4f3 	sdivge	r4, r4, r3
 8005dd6:	f06f 0317 	mvn.w	r3, #23
 8005dda:	fb04 3303 	mla	r3, r4, r3, r3
 8005dde:	eb03 0a02 	add.w	sl, r3, r2
 8005de2:	9b00      	ldr	r3, [sp, #0]
 8005de4:	9a05      	ldr	r2, [sp, #20]
 8005de6:	ed9f 8bb2 	vldr	d8, [pc, #712]	; 80060b0 <__kernel_rem_pio2+0x310>
 8005dea:	eb03 0802 	add.w	r8, r3, r2
 8005dee:	9ba5      	ldr	r3, [sp, #660]	; 0x294
 8005df0:	1aa7      	subs	r7, r4, r2
 8005df2:	ae20      	add	r6, sp, #128	; 0x80
 8005df4:	eb03 0987 	add.w	r9, r3, r7, lsl #2
 8005df8:	2500      	movs	r5, #0
 8005dfa:	4545      	cmp	r5, r8
 8005dfc:	dd13      	ble.n	8005e26 <__kernel_rem_pio2+0x86>
 8005dfe:	9b06      	ldr	r3, [sp, #24]
 8005e00:	aa20      	add	r2, sp, #128	; 0x80
 8005e02:	eb02 05c3 	add.w	r5, r2, r3, lsl #3
 8005e06:	f50d 7be0 	add.w	fp, sp, #448	; 0x1c0
 8005e0a:	f04f 0800 	mov.w	r8, #0
 8005e0e:	9b00      	ldr	r3, [sp, #0]
 8005e10:	4598      	cmp	r8, r3
 8005e12:	dc31      	bgt.n	8005e78 <__kernel_rem_pio2+0xd8>
 8005e14:	ed9f 7ba6 	vldr	d7, [pc, #664]	; 80060b0 <__kernel_rem_pio2+0x310>
 8005e18:	f8dd 9024 	ldr.w	r9, [sp, #36]	; 0x24
 8005e1c:	ed8d 7b02 	vstr	d7, [sp, #8]
 8005e20:	462f      	mov	r7, r5
 8005e22:	2600      	movs	r6, #0
 8005e24:	e01b      	b.n	8005e5e <__kernel_rem_pio2+0xbe>
 8005e26:	42ef      	cmn	r7, r5
 8005e28:	d407      	bmi.n	8005e3a <__kernel_rem_pio2+0x9a>
 8005e2a:	f859 0025 	ldr.w	r0, [r9, r5, lsl #2]
 8005e2e:	f7fa fb71 	bl	8000514 <__aeabi_i2d>
 8005e32:	e8e6 0102 	strd	r0, r1, [r6], #8
 8005e36:	3501      	adds	r5, #1
 8005e38:	e7df      	b.n	8005dfa <__kernel_rem_pio2+0x5a>
 8005e3a:	ec51 0b18 	vmov	r0, r1, d8
 8005e3e:	e7f8      	b.n	8005e32 <__kernel_rem_pio2+0x92>
 8005e40:	e9d7 2300 	ldrd	r2, r3, [r7]
 8005e44:	e8f9 0102 	ldrd	r0, r1, [r9], #8
 8005e48:	f7fa fbce 	bl	80005e8 <__aeabi_dmul>
 8005e4c:	4602      	mov	r2, r0
 8005e4e:	460b      	mov	r3, r1
 8005e50:	e9dd 0102 	ldrd	r0, r1, [sp, #8]
 8005e54:	f7fa fa12 	bl	800027c <__adddf3>
 8005e58:	e9cd 0102 	strd	r0, r1, [sp, #8]
 8005e5c:	3601      	adds	r6, #1
 8005e5e:	9b05      	ldr	r3, [sp, #20]
 8005e60:	429e      	cmp	r6, r3
 8005e62:	f1a7 0708 	sub.w	r7, r7, #8
 8005e66:	ddeb      	ble.n	8005e40 <__kernel_rem_pio2+0xa0>
 8005e68:	ed9d 7b02 	vldr	d7, [sp, #8]
 8005e6c:	f108 0801 	add.w	r8, r8, #1
 8005e70:	ecab 7b02 	vstmia	fp!, {d7}
 8005e74:	3508      	adds	r5, #8
 8005e76:	e7ca      	b.n	8005e0e <__kernel_rem_pio2+0x6e>
 8005e78:	9b00      	ldr	r3, [sp, #0]
 8005e7a:	aa0c      	add	r2, sp, #48	; 0x30
 8005e7c:	eb02 0383 	add.w	r3, r2, r3, lsl #2
 8005e80:	930b      	str	r3, [sp, #44]	; 0x2c
 8005e82:	9ba5      	ldr	r3, [sp, #660]	; 0x294
 8005e84:	eb03 0384 	add.w	r3, r3, r4, lsl #2
 8005e88:	9c00      	ldr	r4, [sp, #0]
 8005e8a:	930a      	str	r3, [sp, #40]	; 0x28
 8005e8c:	00e3      	lsls	r3, r4, #3
 8005e8e:	9308      	str	r3, [sp, #32]
 8005e90:	ab98      	add	r3, sp, #608	; 0x260
 8005e92:	eb03 03c4 	add.w	r3, r3, r4, lsl #3
 8005e96:	e953 6728 	ldrd	r6, r7, [r3, #-160]	; 0xa0
 8005e9a:	f10d 0830 	add.w	r8, sp, #48	; 0x30
 8005e9e:	ab70      	add	r3, sp, #448	; 0x1c0
 8005ea0:	eb03 05c4 	add.w	r5, r3, r4, lsl #3
 8005ea4:	46c3      	mov	fp, r8
 8005ea6:	46a1      	mov	r9, r4
 8005ea8:	f1b9 0f00 	cmp.w	r9, #0
 8005eac:	f1a5 0508 	sub.w	r5, r5, #8
 8005eb0:	dc77      	bgt.n	8005fa2 <__kernel_rem_pio2+0x202>
 8005eb2:	ec47 6b10 	vmov	d0, r6, r7
 8005eb6:	4650      	mov	r0, sl
 8005eb8:	f000 fac2 	bl	8006440 <scalbn>
 8005ebc:	ec57 6b10 	vmov	r6, r7, d0
 8005ec0:	2200      	movs	r2, #0
 8005ec2:	f04f 537f 	mov.w	r3, #1069547520	; 0x3fc00000
 8005ec6:	ee10 0a10 	vmov	r0, s0
 8005eca:	4639      	mov	r1, r7
 8005ecc:	f7fa fb8c 	bl	80005e8 <__aeabi_dmul>
 8005ed0:	ec41 0b10 	vmov	d0, r0, r1
 8005ed4:	f000 fb34 	bl	8006540 <floor>
 8005ed8:	4b7a      	ldr	r3, [pc, #488]	; (80060c4 <__kernel_rem_pio2+0x324>)
 8005eda:	ec51 0b10 	vmov	r0, r1, d0
 8005ede:	2200      	movs	r2, #0
 8005ee0:	f7fa fb82 	bl	80005e8 <__aeabi_dmul>
 8005ee4:	4602      	mov	r2, r0
 8005ee6:	460b      	mov	r3, r1
 8005ee8:	4630      	mov	r0, r6
 8005eea:	4639      	mov	r1, r7
 8005eec:	f7fa f9c4 	bl	8000278 <__aeabi_dsub>
 8005ef0:	460f      	mov	r7, r1
 8005ef2:	4606      	mov	r6, r0
 8005ef4:	f7fa fe12 	bl	8000b1c <__aeabi_d2iz>
 8005ef8:	9002      	str	r0, [sp, #8]
 8005efa:	f7fa fb0b 	bl	8000514 <__aeabi_i2d>
 8005efe:	4602      	mov	r2, r0
 8005f00:	460b      	mov	r3, r1
 8005f02:	4630      	mov	r0, r6
 8005f04:	4639      	mov	r1, r7
 8005f06:	f7fa f9b7 	bl	8000278 <__aeabi_dsub>
 8005f0a:	f1ba 0f00 	cmp.w	sl, #0
 8005f0e:	4606      	mov	r6, r0
 8005f10:	460f      	mov	r7, r1
 8005f12:	dd6d      	ble.n	8005ff0 <__kernel_rem_pio2+0x250>
 8005f14:	1e61      	subs	r1, r4, #1
 8005f16:	ab0c      	add	r3, sp, #48	; 0x30
 8005f18:	9d02      	ldr	r5, [sp, #8]
 8005f1a:	f853 3021 	ldr.w	r3, [r3, r1, lsl #2]
 8005f1e:	f1ca 0018 	rsb	r0, sl, #24
 8005f22:	fa43 f200 	asr.w	r2, r3, r0
 8005f26:	4415      	add	r5, r2
 8005f28:	4082      	lsls	r2, r0
 8005f2a:	1a9b      	subs	r3, r3, r2
 8005f2c:	aa0c      	add	r2, sp, #48	; 0x30
 8005f2e:	9502      	str	r5, [sp, #8]
 8005f30:	f842 3021 	str.w	r3, [r2, r1, lsl #2]
 8005f34:	f1ca 0217 	rsb	r2, sl, #23
 8005f38:	fa43 fb02 	asr.w	fp, r3, r2
 8005f3c:	f1bb 0f00 	cmp.w	fp, #0
 8005f40:	dd65      	ble.n	800600e <__kernel_rem_pio2+0x26e>
 8005f42:	9b02      	ldr	r3, [sp, #8]
 8005f44:	2200      	movs	r2, #0
 8005f46:	3301      	adds	r3, #1
 8005f48:	9302      	str	r3, [sp, #8]
 8005f4a:	4615      	mov	r5, r2
 8005f4c:	f06f 417f 	mvn.w	r1, #4278190080	; 0xff000000
 8005f50:	4294      	cmp	r4, r2
 8005f52:	f300 809f 	bgt.w	8006094 <__kernel_rem_pio2+0x2f4>
 8005f56:	f1ba 0f00 	cmp.w	sl, #0
 8005f5a:	dd07      	ble.n	8005f6c <__kernel_rem_pio2+0x1cc>
 8005f5c:	f1ba 0f01 	cmp.w	sl, #1
 8005f60:	f000 80c1 	beq.w	80060e6 <__kernel_rem_pio2+0x346>
 8005f64:	f1ba 0f02 	cmp.w	sl, #2
 8005f68:	f000 80c7 	beq.w	80060fa <__kernel_rem_pio2+0x35a>
 8005f6c:	f1bb 0f02 	cmp.w	fp, #2
 8005f70:	d14d      	bne.n	800600e <__kernel_rem_pio2+0x26e>
 8005f72:	4632      	mov	r2, r6
 8005f74:	463b      	mov	r3, r7
 8005f76:	4954      	ldr	r1, [pc, #336]	; (80060c8 <__kernel_rem_pio2+0x328>)
 8005f78:	2000      	movs	r0, #0
 8005f7a:	f7fa f97d 	bl	8000278 <__aeabi_dsub>
 8005f7e:	4606      	mov	r6, r0
 8005f80:	460f      	mov	r7, r1
 8005f82:	2d00      	cmp	r5, #0
 8005f84:	d043      	beq.n	800600e <__kernel_rem_pio2+0x26e>
 8005f86:	4650      	mov	r0, sl
 8005f88:	ed9f 0b4b 	vldr	d0, [pc, #300]	; 80060b8 <__kernel_rem_pio2+0x318>
 8005f8c:	f000 fa58 	bl	8006440 <scalbn>
 8005f90:	4630      	mov	r0, r6
 8005f92:	4639      	mov	r1, r7
 8005f94:	ec53 2b10 	vmov	r2, r3, d0
 8005f98:	f7fa f96e 	bl	8000278 <__aeabi_dsub>
 8005f9c:	4606      	mov	r6, r0
 8005f9e:	460f      	mov	r7, r1
 8005fa0:	e035      	b.n	800600e <__kernel_rem_pio2+0x26e>
 8005fa2:	4b4a      	ldr	r3, [pc, #296]	; (80060cc <__kernel_rem_pio2+0x32c>)
 8005fa4:	2200      	movs	r2, #0
 8005fa6:	4630      	mov	r0, r6
 8005fa8:	4639      	mov	r1, r7
 8005faa:	f7fa fb1d 	bl	80005e8 <__aeabi_dmul>
 8005fae:	f7fa fdb5 	bl	8000b1c <__aeabi_d2iz>
 8005fb2:	f7fa faaf 	bl	8000514 <__aeabi_i2d>
 8005fb6:	4602      	mov	r2, r0
 8005fb8:	460b      	mov	r3, r1
 8005fba:	ec43 2b18 	vmov	d8, r2, r3
 8005fbe:	4b44      	ldr	r3, [pc, #272]	; (80060d0 <__kernel_rem_pio2+0x330>)
 8005fc0:	2200      	movs	r2, #0
 8005fc2:	f7fa fb11 	bl	80005e8 <__aeabi_dmul>
 8005fc6:	4602      	mov	r2, r0
 8005fc8:	460b      	mov	r3, r1
 8005fca:	4630      	mov	r0, r6
 8005fcc:	4639      	mov	r1, r7
 8005fce:	f7fa f953 	bl	8000278 <__aeabi_dsub>
 8005fd2:	f7fa fda3 	bl	8000b1c <__aeabi_d2iz>
 8005fd6:	e9d5 2300 	ldrd	r2, r3, [r5]
 8005fda:	f84b 0b04 	str.w	r0, [fp], #4
 8005fde:	ec51 0b18 	vmov	r0, r1, d8
 8005fe2:	f7fa f94b 	bl	800027c <__adddf3>
 8005fe6:	f109 39ff 	add.w	r9, r9, #4294967295
 8005fea:	4606      	mov	r6, r0
 8005fec:	460f      	mov	r7, r1
 8005fee:	e75b      	b.n	8005ea8 <__kernel_rem_pio2+0x108>
 8005ff0:	d106      	bne.n	8006000 <__kernel_rem_pio2+0x260>
 8005ff2:	1e63      	subs	r3, r4, #1
 8005ff4:	aa0c      	add	r2, sp, #48	; 0x30
 8005ff6:	f852 3023 	ldr.w	r3, [r2, r3, lsl #2]
 8005ffa:	ea4f 5be3 	mov.w	fp, r3, asr #23
 8005ffe:	e79d      	b.n	8005f3c <__kernel_rem_pio2+0x19c>
 8006000:	4b34      	ldr	r3, [pc, #208]	; (80060d4 <__kernel_rem_pio2+0x334>)
 8006002:	2200      	movs	r2, #0
 8006004:	f7fa fd76 	bl	8000af4 <__aeabi_dcmpge>
 8006008:	2800      	cmp	r0, #0
 800600a:	d140      	bne.n	800608e <__kernel_rem_pio2+0x2ee>
 800600c:	4683      	mov	fp, r0
 800600e:	2200      	movs	r2, #0
 8006010:	2300      	movs	r3, #0
 8006012:	4630      	mov	r0, r6
 8006014:	4639      	mov	r1, r7
 8006016:	f7fa fd4f 	bl	8000ab8 <__aeabi_dcmpeq>
 800601a:	2800      	cmp	r0, #0
 800601c:	f000 80c1 	beq.w	80061a2 <__kernel_rem_pio2+0x402>
 8006020:	1e65      	subs	r5, r4, #1
 8006022:	462b      	mov	r3, r5
 8006024:	2200      	movs	r2, #0
 8006026:	9900      	ldr	r1, [sp, #0]
 8006028:	428b      	cmp	r3, r1
 800602a:	da6d      	bge.n	8006108 <__kernel_rem_pio2+0x368>
 800602c:	2a00      	cmp	r2, #0
 800602e:	f000 808a 	beq.w	8006146 <__kernel_rem_pio2+0x3a6>
 8006032:	ab0c      	add	r3, sp, #48	; 0x30
 8006034:	f1aa 0a18 	sub.w	sl, sl, #24
 8006038:	f853 3025 	ldr.w	r3, [r3, r5, lsl #2]
 800603c:	2b00      	cmp	r3, #0
 800603e:	f000 80ae 	beq.w	800619e <__kernel_rem_pio2+0x3fe>
 8006042:	4650      	mov	r0, sl
 8006044:	ed9f 0b1c 	vldr	d0, [pc, #112]	; 80060b8 <__kernel_rem_pio2+0x318>
 8006048:	f000 f9fa 	bl	8006440 <scalbn>
 800604c:	1c6b      	adds	r3, r5, #1
 800604e:	00da      	lsls	r2, r3, #3
 8006050:	9205      	str	r2, [sp, #20]
 8006052:	ec57 6b10 	vmov	r6, r7, d0
 8006056:	aa70      	add	r2, sp, #448	; 0x1c0
 8006058:	f8df 9070 	ldr.w	r9, [pc, #112]	; 80060cc <__kernel_rem_pio2+0x32c>
 800605c:	eb02 0ac3 	add.w	sl, r2, r3, lsl #3
 8006060:	462c      	mov	r4, r5
 8006062:	f04f 0800 	mov.w	r8, #0
 8006066:	2c00      	cmp	r4, #0
 8006068:	f280 80d4 	bge.w	8006214 <__kernel_rem_pio2+0x474>
 800606c:	462c      	mov	r4, r5
 800606e:	2c00      	cmp	r4, #0
 8006070:	f2c0 8102 	blt.w	8006278 <__kernel_rem_pio2+0x4d8>
 8006074:	4b18      	ldr	r3, [pc, #96]	; (80060d8 <__kernel_rem_pio2+0x338>)
 8006076:	461e      	mov	r6, r3
 8006078:	ab70      	add	r3, sp, #448	; 0x1c0
 800607a:	eb03 08c4 	add.w	r8, r3, r4, lsl #3
 800607e:	1b2b      	subs	r3, r5, r4
 8006080:	f04f 0900 	mov.w	r9, #0
 8006084:	f04f 0a00 	mov.w	sl, #0
 8006088:	2700      	movs	r7, #0
 800608a:	9306      	str	r3, [sp, #24]
 800608c:	e0e6      	b.n	800625c <__kernel_rem_pio2+0x4bc>
 800608e:	f04f 0b02 	mov.w	fp, #2
 8006092:	e756      	b.n	8005f42 <__kernel_rem_pio2+0x1a2>
 8006094:	f8d8 3000 	ldr.w	r3, [r8]
 8006098:	bb05      	cbnz	r5, 80060dc <__kernel_rem_pio2+0x33c>
 800609a:	b123      	cbz	r3, 80060a6 <__kernel_rem_pio2+0x306>
 800609c:	f1c3 7380 	rsb	r3, r3, #16777216	; 0x1000000
 80060a0:	f8c8 3000 	str.w	r3, [r8]
 80060a4:	2301      	movs	r3, #1
 80060a6:	3201      	adds	r2, #1
 80060a8:	f108 0804 	add.w	r8, r8, #4
 80060ac:	461d      	mov	r5, r3
 80060ae:	e74f      	b.n	8005f50 <__kernel_rem_pio2+0x1b0>
	...
 80060bc:	3ff00000 	.word	0x3ff00000
 80060c0:	080068e0 	.word	0x080068e0
 80060c4:	40200000 	.word	0x40200000
 80060c8:	3ff00000 	.word	0x3ff00000
 80060cc:	3e700000 	.word	0x3e700000
 80060d0:	41700000 	.word	0x41700000
 80060d4:	3fe00000 	.word	0x3fe00000
 80060d8:	080068a0 	.word	0x080068a0
 80060dc:	1acb      	subs	r3, r1, r3
 80060de:	f8c8 3000 	str.w	r3, [r8]
 80060e2:	462b      	mov	r3, r5
 80060e4:	e7df      	b.n	80060a6 <__kernel_rem_pio2+0x306>
 80060e6:	1e62      	subs	r2, r4, #1
 80060e8:	ab0c      	add	r3, sp, #48	; 0x30
 80060ea:	f853 3022 	ldr.w	r3, [r3, r2, lsl #2]
 80060ee:	f3c3 0316 	ubfx	r3, r3, #0, #23
 80060f2:	a90c      	add	r1, sp, #48	; 0x30
 80060f4:	f841 3022 	str.w	r3, [r1, r2, lsl #2]
 80060f8:	e738      	b.n	8005f6c <__kernel_rem_pio2+0x1cc>
 80060fa:	1e62      	subs	r2, r4, #1
 80060fc:	ab0c      	add	r3, sp, #48	; 0x30
 80060fe:	f853 3022 	ldr.w	r3, [r3, r2, lsl #2]
 8006102:	f3c3 0315 	ubfx	r3, r3, #0, #22
 8006106:	e7f4      	b.n	80060f2 <__kernel_rem_pio2+0x352>
 8006108:	a90c      	add	r1, sp, #48	; 0x30
 800610a:	f851 1023 	ldr.w	r1, [r1, r3, lsl #2]
 800610e:	3b01      	subs	r3, #1
 8006110:	430a      	orrs	r2, r1
 8006112:	e788      	b.n	8006026 <__kernel_rem_pio2+0x286>
 8006114:	3301      	adds	r3, #1
 8006116:	f852 1d04 	ldr.w	r1, [r2, #-4]!
 800611a:	2900      	cmp	r1, #0
 800611c:	d0fa      	beq.n	8006114 <__kernel_rem_pio2+0x374>
 800611e:	9a08      	ldr	r2, [sp, #32]
 8006120:	f502 7218 	add.w	r2, r2, #608	; 0x260
 8006124:	446a      	add	r2, sp
 8006126:	3a98      	subs	r2, #152	; 0x98
 8006128:	9208      	str	r2, [sp, #32]
 800612a:	9a06      	ldr	r2, [sp, #24]
 800612c:	a920      	add	r1, sp, #128	; 0x80
 800612e:	18a2      	adds	r2, r4, r2
 8006130:	18e3      	adds	r3, r4, r3
 8006132:	f104 0801 	add.w	r8, r4, #1
 8006136:	eb01 05c2 	add.w	r5, r1, r2, lsl #3
 800613a:	9302      	str	r3, [sp, #8]
 800613c:	9b02      	ldr	r3, [sp, #8]
 800613e:	4543      	cmp	r3, r8
 8006140:	da04      	bge.n	800614c <__kernel_rem_pio2+0x3ac>
 8006142:	461c      	mov	r4, r3
 8006144:	e6a2      	b.n	8005e8c <__kernel_rem_pio2+0xec>
 8006146:	9a0b      	ldr	r2, [sp, #44]	; 0x2c
 8006148:	2301      	movs	r3, #1
 800614a:	e7e4      	b.n	8006116 <__kernel_rem_pio2+0x376>
 800614c:	9b0a      	ldr	r3, [sp, #40]	; 0x28
 800614e:	f853 0028 	ldr.w	r0, [r3, r8, lsl #2]
 8006152:	f7fa f9df 	bl	8000514 <__aeabi_i2d>
 8006156:	e8e5 0102 	strd	r0, r1, [r5], #8
 800615a:	9b09      	ldr	r3, [sp, #36]	; 0x24
 800615c:	46ab      	mov	fp, r5
 800615e:	461c      	mov	r4, r3
 8006160:	f04f 0900 	mov.w	r9, #0
 8006164:	2600      	movs	r6, #0
 8006166:	2700      	movs	r7, #0
 8006168:	9b05      	ldr	r3, [sp, #20]
 800616a:	4599      	cmp	r9, r3
 800616c:	dd06      	ble.n	800617c <__kernel_rem_pio2+0x3dc>
 800616e:	9b08      	ldr	r3, [sp, #32]
 8006170:	e8e3 6702 	strd	r6, r7, [r3], #8
 8006174:	f108 0801 	add.w	r8, r8, #1
 8006178:	9308      	str	r3, [sp, #32]
 800617a:	e7df      	b.n	800613c <__kernel_rem_pio2+0x39c>
 800617c:	e97b 2302 	ldrd	r2, r3, [fp, #-8]!
 8006180:	e8f4 0102 	ldrd	r0, r1, [r4], #8
 8006184:	f7fa fa30 	bl	80005e8 <__aeabi_dmul>
 8006188:	4602      	mov	r2, r0
 800618a:	460b      	mov	r3, r1
 800618c:	4630      	mov	r0, r6
 800618e:	4639      	mov	r1, r7
 8006190:	f7fa f874 	bl	800027c <__adddf3>
 8006194:	f109 0901 	add.w	r9, r9, #1
 8006198:	4606      	mov	r6, r0
 800619a:	460f      	mov	r7, r1
 800619c:	e7e4      	b.n	8006168 <__kernel_rem_pio2+0x3c8>
 800619e:	3d01      	subs	r5, #1
 80061a0:	e747      	b.n	8006032 <__kernel_rem_pio2+0x292>
 80061a2:	ec47 6b10 	vmov	d0, r6, r7
 80061a6:	f1ca 0000 	rsb	r0, sl, #0
 80061aa:	f000 f949 	bl	8006440 <scalbn>
 80061ae:	ec57 6b10 	vmov	r6, r7, d0
 80061b2:	4ba0      	ldr	r3, [pc, #640]	; (8006434 <__kernel_rem_pio2+0x694>)
 80061b4:	ee10 0a10 	vmov	r0, s0
 80061b8:	2200      	movs	r2, #0
 80061ba:	4639      	mov	r1, r7
 80061bc:	f7fa fc9a 	bl	8000af4 <__aeabi_dcmpge>
 80061c0:	b1f8      	cbz	r0, 8006202 <__kernel_rem_pio2+0x462>
 80061c2:	4b9d      	ldr	r3, [pc, #628]	; (8006438 <__kernel_rem_pio2+0x698>)
 80061c4:	2200      	movs	r2, #0
 80061c6:	4630      	mov	r0, r6
 80061c8:	4639      	mov	r1, r7
 80061ca:	f7fa fa0d 	bl	80005e8 <__aeabi_dmul>
 80061ce:	f7fa fca5 	bl	8000b1c <__aeabi_d2iz>
 80061d2:	4680      	mov	r8, r0
 80061d4:	f7fa f99e 	bl	8000514 <__aeabi_i2d>
 80061d8:	4b96      	ldr	r3, [pc, #600]	; (8006434 <__kernel_rem_pio2+0x694>)
 80061da:	2200      	movs	r2, #0
 80061dc:	f7fa fa04 	bl	80005e8 <__aeabi_dmul>
 80061e0:	460b      	mov	r3, r1
 80061e2:	4602      	mov	r2, r0
 80061e4:	4639      	mov	r1, r7
 80061e6:	4630      	mov	r0, r6
 80061e8:	f7fa f846 	bl	8000278 <__aeabi_dsub>
 80061ec:	f7fa fc96 	bl	8000b1c <__aeabi_d2iz>
 80061f0:	1c65      	adds	r5, r4, #1
 80061f2:	ab0c      	add	r3, sp, #48	; 0x30
 80061f4:	f10a 0a18 	add.w	sl, sl, #24
 80061f8:	f843 0024 	str.w	r0, [r3, r4, lsl #2]
 80061fc:	f843 8025 	str.w	r8, [r3, r5, lsl #2]
 8006200:	e71f      	b.n	8006042 <__kernel_rem_pio2+0x2a2>
 8006202:	4630      	mov	r0, r6
 8006204:	4639      	mov	r1, r7
 8006206:	f7fa fc89 	bl	8000b1c <__aeabi_d2iz>
 800620a:	ab0c      	add	r3, sp, #48	; 0x30
 800620c:	4625      	mov	r5, r4
 800620e:	f843 0024 	str.w	r0, [r3, r4, lsl #2]
 8006212:	e716      	b.n	8006042 <__kernel_rem_pio2+0x2a2>
 8006214:	ab0c      	add	r3, sp, #48	; 0x30
 8006216:	f853 0024 	ldr.w	r0, [r3, r4, lsl #2]
 800621a:	f7fa f97b 	bl	8000514 <__aeabi_i2d>
 800621e:	4632      	mov	r2, r6
 8006220:	463b      	mov	r3, r7
 8006222:	f7fa f9e1 	bl	80005e8 <__aeabi_dmul>
 8006226:	4642      	mov	r2, r8
 8006228:	e96a 0102 	strd	r0, r1, [sl, #-8]!
 800622c:	464b      	mov	r3, r9
 800622e:	4630      	mov	r0, r6
 8006230:	4639      	mov	r1, r7
 8006232:	f7fa f9d9 	bl	80005e8 <__aeabi_dmul>
 8006236:	3c01      	subs	r4, #1
 8006238:	4606      	mov	r6, r0
 800623a:	460f      	mov	r7, r1
 800623c:	e713      	b.n	8006066 <__kernel_rem_pio2+0x2c6>
 800623e:	e8f8 2302 	ldrd	r2, r3, [r8], #8
 8006242:	e8f6 0102 	ldrd	r0, r1, [r6], #8
 8006246:	f7fa f9cf 	bl	80005e8 <__aeabi_dmul>
 800624a:	4602      	mov	r2, r0
 800624c:	460b      	mov	r3, r1
 800624e:	4648      	mov	r0, r9
 8006250:	4651      	mov	r1, sl
 8006252:	f7fa f813 	bl	800027c <__adddf3>
 8006256:	3701      	adds	r7, #1
 8006258:	4681      	mov	r9, r0
 800625a:	468a      	mov	sl, r1
 800625c:	9b00      	ldr	r3, [sp, #0]
 800625e:	429f      	cmp	r7, r3
 8006260:	dc02      	bgt.n	8006268 <__kernel_rem_pio2+0x4c8>
 8006262:	9b06      	ldr	r3, [sp, #24]
 8006264:	429f      	cmp	r7, r3
 8006266:	ddea      	ble.n	800623e <__kernel_rem_pio2+0x49e>
 8006268:	9a06      	ldr	r2, [sp, #24]
 800626a:	ab48      	add	r3, sp, #288	; 0x120
 800626c:	eb03 06c2 	add.w	r6, r3, r2, lsl #3
 8006270:	e9c6 9a00 	strd	r9, sl, [r6]
 8006274:	3c01      	subs	r4, #1
 8006276:	e6fa      	b.n	800606e <__kernel_rem_pio2+0x2ce>
 8006278:	9ba4      	ldr	r3, [sp, #656]	; 0x290
 800627a:	2b02      	cmp	r3, #2
 800627c:	dc0b      	bgt.n	8006296 <__kernel_rem_pio2+0x4f6>
 800627e:	2b00      	cmp	r3, #0
 8006280:	dc39      	bgt.n	80062f6 <__kernel_rem_pio2+0x556>
 8006282:	d05d      	beq.n	8006340 <__kernel_rem_pio2+0x5a0>
 8006284:	9b02      	ldr	r3, [sp, #8]
 8006286:	f003 0007 	and.w	r0, r3, #7
 800628a:	f50d 7d19 	add.w	sp, sp, #612	; 0x264
 800628e:	ecbd 8b02 	vpop	{d8}
 8006292:	e8bd 8ff0 	ldmia.w	sp!, {r4, r5, r6, r7, r8, r9, sl, fp, pc}
 8006296:	9ba4      	ldr	r3, [sp, #656]	; 0x290
 8006298:	2b03      	cmp	r3, #3
 800629a:	d1f3      	bne.n	8006284 <__kernel_rem_pio2+0x4e4>
 800629c:	9b05      	ldr	r3, [sp, #20]
 800629e:	9500      	str	r5, [sp, #0]
 80062a0:	f503 7318 	add.w	r3, r3, #608	; 0x260
 80062a4:	eb0d 0403 	add.w	r4, sp, r3
 80062a8:	f5a4 74a4 	sub.w	r4, r4, #328	; 0x148
 80062ac:	46a2      	mov	sl, r4
 80062ae:	9b00      	ldr	r3, [sp, #0]
 80062b0:	2b00      	cmp	r3, #0
 80062b2:	f1aa 0a08 	sub.w	sl, sl, #8
 80062b6:	dc69      	bgt.n	800638c <__kernel_rem_pio2+0x5ec>
 80062b8:	46aa      	mov	sl, r5
 80062ba:	f1ba 0f01 	cmp.w	sl, #1
 80062be:	f1a4 0408 	sub.w	r4, r4, #8
 80062c2:	f300 8083 	bgt.w	80063cc <__kernel_rem_pio2+0x62c>
 80062c6:	9c05      	ldr	r4, [sp, #20]
 80062c8:	ab48      	add	r3, sp, #288	; 0x120
 80062ca:	441c      	add	r4, r3
 80062cc:	2000      	movs	r0, #0
 80062ce:	2100      	movs	r1, #0
 80062d0:	2d01      	cmp	r5, #1
 80062d2:	f300 809a 	bgt.w	800640a <__kernel_rem_pio2+0x66a>
 80062d6:	e9dd 7848 	ldrd	r7, r8, [sp, #288]	; 0x120
 80062da:	e9dd 564a 	ldrd	r5, r6, [sp, #296]	; 0x128
 80062de:	f1bb 0f00 	cmp.w	fp, #0
 80062e2:	f040 8098 	bne.w	8006416 <__kernel_rem_pio2+0x676>
 80062e6:	9b04      	ldr	r3, [sp, #16]
 80062e8:	e9c3 7800 	strd	r7, r8, [r3]
 80062ec:	e9c3 5602 	strd	r5, r6, [r3, #8]
 80062f0:	e9c3 0104 	strd	r0, r1, [r3, #16]
 80062f4:	e7c6      	b.n	8006284 <__kernel_rem_pio2+0x4e4>
 80062f6:	9e05      	ldr	r6, [sp, #20]
 80062f8:	ab48      	add	r3, sp, #288	; 0x120
 80062fa:	441e      	add	r6, r3
 80062fc:	462c      	mov	r4, r5
 80062fe:	2000      	movs	r0, #0
 8006300:	2100      	movs	r1, #0
 8006302:	2c00      	cmp	r4, #0
 8006304:	da33      	bge.n	800636e <__kernel_rem_pio2+0x5ce>
 8006306:	f1bb 0f00 	cmp.w	fp, #0
 800630a:	d036      	beq.n	800637a <__kernel_rem_pio2+0x5da>
 800630c:	4602      	mov	r2, r0
 800630e:	f101 4300 	add.w	r3, r1, #2147483648	; 0x80000000
 8006312:	9c04      	ldr	r4, [sp, #16]
 8006314:	e9c4 2300 	strd	r2, r3, [r4]
 8006318:	4602      	mov	r2, r0
 800631a:	460b      	mov	r3, r1
 800631c:	e9dd 0148 	ldrd	r0, r1, [sp, #288]	; 0x120
 8006320:	f7f9 ffaa 	bl	8000278 <__aeabi_dsub>
 8006324:	ae4a      	add	r6, sp, #296	; 0x128
 8006326:	2401      	movs	r4, #1
 8006328:	42a5      	cmp	r5, r4
 800632a:	da29      	bge.n	8006380 <__kernel_rem_pio2+0x5e0>
 800632c:	f1bb 0f00 	cmp.w	fp, #0
 8006330:	d002      	beq.n	8006338 <__kernel_rem_pio2+0x598>
 8006332:	f101 4300 	add.w	r3, r1, #2147483648	; 0x80000000
 8006336:	4619      	mov	r1, r3
 8006338:	9b04      	ldr	r3, [sp, #16]
 800633a:	e9c3 0102 	strd	r0, r1, [r3, #8]
 800633e:	e7a1      	b.n	8006284 <__kernel_rem_pio2+0x4e4>
 8006340:	9c05      	ldr	r4, [sp, #20]
 8006342:	ab48      	add	r3, sp, #288	; 0x120
 8006344:	441c      	add	r4, r3
 8006346:	2000      	movs	r0, #0
 8006348:	2100      	movs	r1, #0
 800634a:	2d00      	cmp	r5, #0
 800634c:	da09      	bge.n	8006362 <__kernel_rem_pio2+0x5c2>
 800634e:	f1bb 0f00 	cmp.w	fp, #0
 8006352:	d002      	beq.n	800635a <__kernel_rem_pio2+0x5ba>
 8006354:	f101 4300 	add.w	r3, r1, #2147483648	; 0x80000000
 8006358:	4619      	mov	r1, r3
 800635a:	9b04      	ldr	r3, [sp, #16]
 800635c:	e9c3 0100 	strd	r0, r1, [r3]
 8006360:	e790      	b.n	8006284 <__kernel_rem_pio2+0x4e4>
 8006362:	e974 2302 	ldrd	r2, r3, [r4, #-8]!
 8006366:	f7f9 ff89 	bl	800027c <__adddf3>
 800636a:	3d01      	subs	r5, #1
 800636c:	e7ed      	b.n	800634a <__kernel_rem_pio2+0x5aa>
 800636e:	e976 2302 	ldrd	r2, r3, [r6, #-8]!
 8006372:	f7f9 ff83 	bl	800027c <__adddf3>
 8006376:	3c01      	subs	r4, #1
 8006378:	e7c3      	b.n	8006302 <__kernel_rem_pio2+0x562>
 800637a:	4602      	mov	r2, r0
 800637c:	460b      	mov	r3, r1
 800637e:	e7c8      	b.n	8006312 <__kernel_rem_pio2+0x572>
 8006380:	e8f6 2302 	ldrd	r2, r3, [r6], #8
 8006384:	f7f9 ff7a 	bl	800027c <__adddf3>
 8006388:	3401      	adds	r4, #1
 800638a:	e7cd      	b.n	8006328 <__kernel_rem_pio2+0x588>
 800638c:	e9da 8900 	ldrd	r8, r9, [sl]
 8006390:	e9da 6702 	ldrd	r6, r7, [sl, #8]
 8006394:	9b00      	ldr	r3, [sp, #0]
 8006396:	3b01      	subs	r3, #1
 8006398:	9300      	str	r3, [sp, #0]
 800639a:	4632      	mov	r2, r6
 800639c:	463b      	mov	r3, r7
 800639e:	4640      	mov	r0, r8
 80063a0:	4649      	mov	r1, r9
 80063a2:	f7f9 ff6b 	bl	800027c <__adddf3>
 80063a6:	e9cd 0106 	strd	r0, r1, [sp, #24]
 80063aa:	4602      	mov	r2, r0
 80063ac:	460b      	mov	r3, r1
 80063ae:	4640      	mov	r0, r8
 80063b0:	4649      	mov	r1, r9
 80063b2:	f7f9 ff61 	bl	8000278 <__aeabi_dsub>
 80063b6:	4632      	mov	r2, r6
 80063b8:	463b      	mov	r3, r7
 80063ba:	f7f9 ff5f 	bl	800027c <__adddf3>
 80063be:	ed9d 7b06 	vldr	d7, [sp, #24]
 80063c2:	e9ca 0102 	strd	r0, r1, [sl, #8]
 80063c6:	ed8a 7b00 	vstr	d7, [sl]
 80063ca:	e770      	b.n	80062ae <__kernel_rem_pio2+0x50e>
 80063cc:	e9d4 8900 	ldrd	r8, r9, [r4]
 80063d0:	e9d4 6702 	ldrd	r6, r7, [r4, #8]
 80063d4:	4640      	mov	r0, r8
 80063d6:	4632      	mov	r2, r6
 80063d8:	463b      	mov	r3, r7
 80063da:	4649      	mov	r1, r9
 80063dc:	f7f9 ff4e 	bl	800027c <__adddf3>
 80063e0:	e9cd 0100 	strd	r0, r1, [sp]
 80063e4:	4602      	mov	r2, r0
 80063e6:	460b      	mov	r3, r1
 80063e8:	4640      	mov	r0, r8
 80063ea:	4649      	mov	r1, r9
 80063ec:	f7f9 ff44 	bl	8000278 <__aeabi_dsub>
 80063f0:	4632      	mov	r2, r6
 80063f2:	463b      	mov	r3, r7
 80063f4:	f7f9 ff42 	bl	800027c <__adddf3>
 80063f8:	ed9d 7b00 	vldr	d7, [sp]
 80063fc:	e9c4 0102 	strd	r0, r1, [r4, #8]
 8006400:	ed84 7b00 	vstr	d7, [r4]
 8006404:	f10a 3aff 	add.w	sl, sl, #4294967295
 8006408:	e757      	b.n	80062ba <__kernel_rem_pio2+0x51a>
 800640a:	e974 2302 	ldrd	r2, r3, [r4, #-8]!
 800640e:	f7f9 ff35 	bl	800027c <__adddf3>
 8006412:	3d01      	subs	r5, #1
 8006414:	e75c      	b.n	80062d0 <__kernel_rem_pio2+0x530>
 8006416:	9b04      	ldr	r3, [sp, #16]
 8006418:	9a04      	ldr	r2, [sp, #16]
 800641a:	601f      	str	r7, [r3, #0]
 800641c:	f108 4400 	add.w	r4, r8, #2147483648	; 0x80000000
 8006420:	605c      	str	r4, [r3, #4]
 8006422:	609d      	str	r5, [r3, #8]
 8006424:	f106 4300 	add.w	r3, r6, #2147483648	; 0x80000000
 8006428:	60d3      	str	r3, [r2, #12]
 800642a:	f101 4300 	add.w	r3, r1, #2147483648	; 0x80000000
 800642e:	6110      	str	r0, [r2, #16]
 8006430:	6153      	str	r3, [r2, #20]
 8006432:	e727      	b.n	8006284 <__kernel_rem_pio2+0x4e4>
 8006434:	41700000 	.word	0x41700000
 8006438:	3e700000 	.word	0x3e700000
 800643c:	00000000 	.word	0x00000000

08006440 <scalbn>:
 8006440:	b570      	push	{r4, r5, r6, lr}
 8006442:	ec55 4b10 	vmov	r4, r5, d0
 8006446:	f3c5 510a 	ubfx	r1, r5, #20, #11
 800644a:	4606      	mov	r6, r0
 800644c:	462b      	mov	r3, r5
 800644e:	b999      	cbnz	r1, 8006478 <scalbn+0x38>
 8006450:	f025 4300 	bic.w	r3, r5, #2147483648	; 0x80000000
 8006454:	4323      	orrs	r3, r4
 8006456:	d03f      	beq.n	80064d8 <scalbn+0x98>
 8006458:	4b35      	ldr	r3, [pc, #212]	; (8006530 <scalbn+0xf0>)
 800645a:	4629      	mov	r1, r5
 800645c:	ee10 0a10 	vmov	r0, s0
 8006460:	2200      	movs	r2, #0
 8006462:	f7fa f8c1 	bl	80005e8 <__aeabi_dmul>
 8006466:	4b33      	ldr	r3, [pc, #204]	; (8006534 <scalbn+0xf4>)
 8006468:	429e      	cmp	r6, r3
 800646a:	4604      	mov	r4, r0
 800646c:	460d      	mov	r5, r1
 800646e:	da10      	bge.n	8006492 <scalbn+0x52>
 8006470:	a327      	add	r3, pc, #156	; (adr r3, 8006510 <scalbn+0xd0>)
 8006472:	e9d3 2300 	ldrd	r2, r3, [r3]
 8006476:	e01f      	b.n	80064b8 <scalbn+0x78>
 8006478:	f240 72ff 	movw	r2, #2047	; 0x7ff
 800647c:	4291      	cmp	r1, r2
 800647e:	d10c      	bne.n	800649a <scalbn+0x5a>
 8006480:	ee10 2a10 	vmov	r2, s0
 8006484:	4620      	mov	r0, r4
 8006486:	4629      	mov	r1, r5
 8006488:	f7f9 fef8 	bl	800027c <__adddf3>
 800648c:	4604      	mov	r4, r0
 800648e:	460d      	mov	r5, r1
 8006490:	e022      	b.n	80064d8 <scalbn+0x98>
 8006492:	460b      	mov	r3, r1
 8006494:	f3c1 510a 	ubfx	r1, r1, #20, #11
 8006498:	3936      	subs	r1, #54	; 0x36
 800649a:	f24c 3250 	movw	r2, #50000	; 0xc350
 800649e:	4296      	cmp	r6, r2
 80064a0:	dd0d      	ble.n	80064be <scalbn+0x7e>
 80064a2:	2d00      	cmp	r5, #0
 80064a4:	a11c      	add	r1, pc, #112	; (adr r1, 8006518 <scalbn+0xd8>)
 80064a6:	e9d1 0100 	ldrd	r0, r1, [r1]
 80064aa:	da02      	bge.n	80064b2 <scalbn+0x72>
 80064ac:	a11c      	add	r1, pc, #112	; (adr r1, 8006520 <scalbn+0xe0>)
 80064ae:	e9d1 0100 	ldrd	r0, r1, [r1]
 80064b2:	a319      	add	r3, pc, #100	; (adr r3, 8006518 <scalbn+0xd8>)
 80064b4:	e9d3 2300 	ldrd	r2, r3, [r3]
 80064b8:	f7fa f896 	bl	80005e8 <__aeabi_dmul>
 80064bc:	e7e6      	b.n	800648c <scalbn+0x4c>
 80064be:	1872      	adds	r2, r6, r1
 80064c0:	f240 71fe 	movw	r1, #2046	; 0x7fe
 80064c4:	428a      	cmp	r2, r1
 80064c6:	dcec      	bgt.n	80064a2 <scalbn+0x62>
 80064c8:	2a00      	cmp	r2, #0
 80064ca:	dd08      	ble.n	80064de <scalbn+0x9e>
 80064cc:	f023 43ff 	bic.w	r3, r3, #2139095040	; 0x7f800000
 80064d0:	f423 03e0 	bic.w	r3, r3, #7340032	; 0x700000
 80064d4:	ea43 5502 	orr.w	r5, r3, r2, lsl #20
 80064d8:	ec45 4b10 	vmov	d0, r4, r5
 80064dc:	bd70      	pop	{r4, r5, r6, pc}
 80064de:	f112 0f35 	cmn.w	r2, #53	; 0x35
 80064e2:	da08      	bge.n	80064f6 <scalbn+0xb6>
 80064e4:	2d00      	cmp	r5, #0
 80064e6:	a10a      	add	r1, pc, #40	; (adr r1, 8006510 <scalbn+0xd0>)
 80064e8:	e9d1 0100 	ldrd	r0, r1, [r1]
 80064ec:	dac0      	bge.n	8006470 <scalbn+0x30>
 80064ee:	a10e      	add	r1, pc, #56	; (adr r1, 8006528 <scalbn+0xe8>)
 80064f0:	e9d1 0100 	ldrd	r0, r1, [r1]
 80064f4:	e7bc      	b.n	8006470 <scalbn+0x30>
 80064f6:	f023 43ff 	bic.w	r3, r3, #2139095040	; 0x7f800000
 80064fa:	3236      	adds	r2, #54	; 0x36
 80064fc:	f423 03e0 	bic.w	r3, r3, #7340032	; 0x700000
 8006500:	ea43 5102 	orr.w	r1, r3, r2, lsl #20
 8006504:	4620      	mov	r0, r4
 8006506:	4b0c      	ldr	r3, [pc, #48]	; (8006538 <scalbn+0xf8>)
 8006508:	2200      	movs	r2, #0
 800650a:	e7d5      	b.n	80064b8 <scalbn+0x78>
 800650c:	f3af 8000 	nop.w
 8006510:	c2f8f359 	.word	0xc2f8f359
 8006514:	01a56e1f 	.word	0x01a56e1f
 8006518:	8800759c 	.word	0x8800759c
 800651c:	7e37e43c 	.word	0x7e37e43c
 8006520:	8800759c 	.word	0x8800759c
 8006524:	fe37e43c 	.word	0xfe37e43c
 8006528:	c2f8f359 	.word	0xc2f8f359
 800652c:	81a56e1f 	.word	0x81a56e1f
 8006530:	43500000 	.word	0x43500000
 8006534:	ffff3cb0 	.word	0xffff3cb0
 8006538:	3c900000 	.word	0x3c900000
 800653c:	00000000 	.word	0x00000000

08006540 <floor>:
 8006540:	ec51 0b10 	vmov	r0, r1, d0
 8006544:	f3c1 530a 	ubfx	r3, r1, #20, #11
 8006548:	e92d 41f0 	stmdb	sp!, {r4, r5, r6, r7, r8, lr}
 800654c:	f2a3 36ff 	subw	r6, r3, #1023	; 0x3ff
 8006550:	2e13      	cmp	r6, #19
 8006552:	ee10 5a10 	vmov	r5, s0
 8006556:	ee10 8a10 	vmov	r8, s0
 800655a:	460c      	mov	r4, r1
 800655c:	dc31      	bgt.n	80065c2 <floor+0x82>
 800655e:	2e00      	cmp	r6, #0
 8006560:	da14      	bge.n	800658c <floor+0x4c>
 8006562:	a333      	add	r3, pc, #204	; (adr r3, 8006630 <floor+0xf0>)
 8006564:	e9d3 2300 	ldrd	r2, r3, [r3]
 8006568:	f7f9 fe88 	bl	800027c <__adddf3>
 800656c:	2200      	movs	r2, #0
 800656e:	2300      	movs	r3, #0
 8006570:	f7fa faca 	bl	8000b08 <__aeabi_dcmpgt>
 8006574:	b138      	cbz	r0, 8006586 <floor+0x46>
 8006576:	2c00      	cmp	r4, #0
 8006578:	da53      	bge.n	8006622 <floor+0xe2>
 800657a:	f024 4400 	bic.w	r4, r4, #2147483648	; 0x80000000
 800657e:	4325      	orrs	r5, r4
 8006580:	d052      	beq.n	8006628 <floor+0xe8>
 8006582:	4c2d      	ldr	r4, [pc, #180]	; (8006638 <floor+0xf8>)
 8006584:	2500      	movs	r5, #0
 8006586:	4621      	mov	r1, r4
 8006588:	4628      	mov	r0, r5
 800658a:	e024      	b.n	80065d6 <floor+0x96>
 800658c:	4f2b      	ldr	r7, [pc, #172]	; (800663c <floor+0xfc>)
 800658e:	4137      	asrs	r7, r6
 8006590:	ea01 0307 	and.w	r3, r1, r7
 8006594:	4303      	orrs	r3, r0
 8006596:	d01e      	beq.n	80065d6 <floor+0x96>
 8006598:	a325      	add	r3, pc, #148	; (adr r3, 8006630 <floor+0xf0>)
 800659a:	e9d3 2300 	ldrd	r2, r3, [r3]
 800659e:	f7f9 fe6d 	bl	800027c <__adddf3>
 80065a2:	2200      	movs	r2, #0
 80065a4:	2300      	movs	r3, #0
 80065a6:	f7fa faaf 	bl	8000b08 <__aeabi_dcmpgt>
 80065aa:	2800      	cmp	r0, #0
 80065ac:	d0eb      	beq.n	8006586 <floor+0x46>
 80065ae:	2c00      	cmp	r4, #0
 80065b0:	bfbe      	ittt	lt
 80065b2:	f44f 1380 	movlt.w	r3, #1048576	; 0x100000
 80065b6:	4133      	asrlt	r3, r6
 80065b8:	18e4      	addlt	r4, r4, r3
 80065ba:	ea24 0407 	bic.w	r4, r4, r7
 80065be:	2500      	movs	r5, #0
 80065c0:	e7e1      	b.n	8006586 <floor+0x46>
 80065c2:	2e33      	cmp	r6, #51	; 0x33
 80065c4:	dd0b      	ble.n	80065de <floor+0x9e>
 80065c6:	f5b6 6f80 	cmp.w	r6, #1024	; 0x400
 80065ca:	d104      	bne.n	80065d6 <floor+0x96>
 80065cc:	ee10 2a10 	vmov	r2, s0
 80065d0:	460b      	mov	r3, r1
 80065d2:	f7f9 fe53 	bl	800027c <__adddf3>
 80065d6:	ec41 0b10 	vmov	d0, r0, r1
 80065da:	e8bd 81f0 	ldmia.w	sp!, {r4, r5, r6, r7, r8, pc}
 80065de:	f2a3 4313 	subw	r3, r3, #1043	; 0x413
 80065e2:	f04f 37ff 	mov.w	r7, #4294967295
 80065e6:	40df      	lsrs	r7, r3
 80065e8:	4238      	tst	r0, r7
 80065ea:	d0f4      	beq.n	80065d6 <floor+0x96>
 80065ec:	a310      	add	r3, pc, #64	; (adr r3, 8006630 <floor+0xf0>)
 80065ee:	e9d3 2300 	ldrd	r2, r3, [r3]
 80065f2:	f7f9 fe43 	bl	800027c <__adddf3>
 80065f6:	2200      	movs	r2, #0
 80065f8:	2300      	movs	r3, #0
 80065fa:	f7fa fa85 	bl	8000b08 <__aeabi_dcmpgt>
 80065fe:	2800      	cmp	r0, #0
 8006600:	d0c1      	beq.n	8006586 <floor+0x46>
 8006602:	2c00      	cmp	r4, #0
 8006604:	da0a      	bge.n	800661c <floor+0xdc>
 8006606:	2e14      	cmp	r6, #20
 8006608:	d101      	bne.n	800660e <floor+0xce>
 800660a:	3401      	adds	r4, #1
 800660c:	e006      	b.n	800661c <floor+0xdc>
 800660e:	f1c6 0634 	rsb	r6, r6, #52	; 0x34
 8006612:	2301      	movs	r3, #1
 8006614:	40b3      	lsls	r3, r6
 8006616:	441d      	add	r5, r3
 8006618:	45a8      	cmp	r8, r5
 800661a:	d8f6      	bhi.n	800660a <floor+0xca>
 800661c:	ea25 0507 	bic.w	r5, r5, r7
 8006620:	e7b1      	b.n	8006586 <floor+0x46>
 8006622:	2500      	movs	r5, #0
 8006624:	462c      	mov	r4, r5
 8006626:	e7ae      	b.n	8006586 <floor+0x46>
 8006628:	f04f 4400 	mov.w	r4, #2147483648	; 0x80000000
 800662c:	e7ab      	b.n	8006586 <floor+0x46>
 800662e:	bf00      	nop
 8006630:	8800759c 	.word	0x8800759c
 8006634:	7e37e43c 	.word	0x7e37e43c
 8006638:	bff00000 	.word	0xbff00000
 800663c:	000fffff 	.word	0x000fffff

08006640 <_init>:
 8006640:	b5f8      	push	{r3, r4, r5, r6, r7, lr}
 8006642:	bf00      	nop
 8006644:	bcf8      	pop	{r3, r4, r5, r6, r7}
 8006646:	bc08      	pop	{r3}
 8006648:	469e      	mov	lr, r3
 800664a:	4770      	bx	lr

0800664c <_fini>:
 800664c:	b5f8      	push	{r3, r4, r5, r6, r7, lr}
 800664e:	bf00      	nop
 8006650:	bcf8      	pop	{r3, r4, r5, r6, r7}
 8006652:	bc08      	pop	{r3}
 8006654:	469e      	mov	lr, r3
 8006656:	4770      	bx	lr
